 serialport

 Timestamp is 5bb935ec (Sat Oct  6 18:23:40 2018)

 Preferred load address is 0000000180000000

 Start         Length     Name                   Class
 0001:00000000 00000040H .text$di                CODE
 0001:00000040 0001c950H .text$mn                CODE
 0001:0001c990 00000020H .text$mn$00             CODE
 0001:0001c9b0 000010c0H .text$x                 CODE
 0001:0001da70 0000006fH .text$yd                CODE
 0002:00000000 00000340H .idata$5                DATA
 0002:00000340 00000010H .00cfg                  DATA
 0002:00000350 00000008H .CRT$XCA                DATA
 0002:00000358 00000010H .CRT$XCU                DATA
 0002:00000368 00000008H .CRT$XCZ                DATA
 0002:00000370 00000008H .CRT$XIA                DATA
 0002:00000378 00000018H .CRT$XIC                DATA
 0002:00000390 00000008H .CRT$XIZ                DATA
 0002:00000398 00000008H .CRT$XPA                DATA
 0002:000003a0 00000010H .CRT$XPX                DATA
 0002:000003b0 00000008H .CRT$XPXA               DATA
 0002:000003b8 00000008H .CRT$XPZ                DATA
 0002:000003c0 00000008H .CRT$XTA                DATA
 0002:000003c8 00000008H .CRT$XTZ                DATA
 0002:000003d0 00000000H .gfids$y                DATA
 0002:000003d0 00009620H .rdata                  DATA
 0002:000099f0 0000037cH .rdata$r                DATA
 0002:00009d6c 00000414H .rdata$zzzdbg           DATA
 0002:0000a180 00000008H .rtc$IAA                DATA
 0002:0000a188 00000008H .rtc$IZZ                DATA
 0002:0000a190 00000008H .rtc$TAA                DATA
 0002:0000a198 00000008H .rtc$TZZ                DATA
 0002:0000a1a0 00002678H .xdata                  DATA
 0002:0000c818 000001dcH .xdata$x                DATA
 0002:0000c9f4 00000020H .didat$2                DATA
 0002:0000ca14 00000024H .didat$3                DATA
 0002:0000ca38 00000210H .didat$4                DATA
 0002:0000cc48 00001048H .didat$6                DATA
 0002:0000dc90 00000210H .didat$7                DATA
 0002:0000dea0 00000058H .edata                  DATA
 0002:0000def8 0000003cH .idata$2                DATA
 0002:0000df34 00000014H .idata$3                DATA
 0002:0000df48 00000340H .idata$4                DATA
 0002:0000e288 0000078cH .idata$6                DATA
 0003:00000000 00000980H .data                   DATA
 0003:00000980 00000118H .data$r                 DATA
 0003:00000a98 00000218H .didat$5                DATA
 0003:00000cb0 0000124cH .bss                    DATA
 0004:00000000 00001a10H .pdata                  DATA
 0005:00000000 00000060H .rsrc$01                DATA
 0005:00000060 00000180H .rsrc$02                DATA

  Address         Publics by Value              Rva+Base               Lib:Object

 0000:00000000       __hybrid_code_map_count    0000000000000000     <absolute>
 0000:00000000       __hybrid_code_map          0000000000000000     <absolute>
 0000:00000000       __guard_iat_count          0000000000000000     <absolute>
 0000:00000000       __guard_longjmp_count      0000000000000000     <absolute>
 0000:00000000       __volatile_metadata        0000000000000000     <absolute>
 0000:00000000       __guard_longjmp_table      0000000000000000     <absolute>
 0000:00000000       __guard_iat_table          0000000000000000     <absolute>
 0000:00000000       __guard_fids_count         0000000000000000     <absolute>
 0000:00000000       ___safe_se_handler_count   0000000000000000     <absolute>
 0000:00000000       __enclave_config           0000000000000000     <absolute>
 0000:00000000       ___safe_se_handler_table   0000000000000000     <absolute>
 0000:00000000       __guard_fids_table         0000000000000000     <absolute>
 0000:00000000       __hybrid_auxiliary_iat     0000000000000000     <absolute>
 0000:00000000       __dynamic_value_reloc_table 0000000000000000     <absolute>
 0000:00000100       __guard_flags              0000000000000100     <absolute>
 0000:00000000       __ImageBase                0000000180000000     <linker-defined>
 0001:00000120       ??1AsyncResource@Nan@@QEAA@XZ 0000000180001120 f i serialport.obj
 0001:00000160       ??1EscapableHandleScope@Nan@@QEAA@XZ 0000000180001160 f i serialport.obj
 0001:00000190       ??1HandleScope@Nan@@QEAA@XZ 0000000180001190 f i serialport.obj
 0001:000001b0       ?ThrowTypeError@Nan@@YAXPEBD@Z 00000001800011b0 f i serialport.obj
 0001:00000250       ??1Utf8String@Nan@@QEAA@XZ 0000000180001250 f i serialport.obj
 0001:00000280       ??1Callback@Nan@@QEAA@XZ   0000000180001280 f i serialport.obj
 0001:000002c0       ?Call@Callback@Nan@@QEBA?AV?$Local@VValue@v8@@@v8@@HQEAV34@@Z 00000001800012c0 f i serialport.obj
 0001:000004e0       ??1?$Persistent@VObject@v8@@V?$NonCopyablePersistentTraits@VObject@v8@@@2@@Nan@@QEAA@XZ 00000001800014e0 f i serialport_win.obj
 0001:000004e0       ??1?$Persistent@VFunction@v8@@V?$NonCopyablePersistentTraits@VFunction@v8@@@2@@Nan@@QEAA@XZ 00000001800014e0 f i serialport.obj
 0001:00000500       ?getValueFromObject@@YA?AV?$Local@VValue@v8@@@v8@@V?$Local@VObject@v8@@@2@V?$basic_string@DU?$char_traits@D@std@@V?$allocator@D@2@@std@@@Z 0000000180001500 f   serialport.obj
 0001:00000650       ?getIntFromObject@@YAHV?$Local@VObject@v8@@@v8@@V?$basic_string@DU?$char_traits@D@std@@V?$allocator@D@2@@std@@@Z 0000000180001650 f   serialport.obj
 0001:00000790       ?getBoolFromObject@@YA_NV?$Local@VObject@v8@@@v8@@V?$basic_string@DU?$char_traits@D@std@@V?$allocator@D@2@@std@@@Z 0000000180001790 f   serialport.obj
 0001:000008d0       ?Open@@YAXAEBV?$FunctionCallbackInfo@VValue@v8@@@Nan@@@Z 00000001800018d0 f   serialport.obj
 0001:00000f70       ?EIO_AfterOpen@@YAXPEAUuv_work_s@@@Z 0000000180001f70 f   serialport.obj
 0001:00001140       ?Update@@YAXAEBV?$FunctionCallbackInfo@VValue@v8@@@Nan@@@Z 0000000180002140 f   serialport.obj
 0001:00001450       ?EIO_AfterUpdate@@YAXPEAUuv_work_s@@@Z 0000000180002450 f   serialport.obj
 0001:00001550       ?Close@@YAXAEBV?$FunctionCallbackInfo@VValue@v8@@@Nan@@@Z 0000000180002550 f   serialport.obj
 0001:00001750       ?EIO_AfterFlush@@YAXPEAUuv_work_s@@@Z 0000000180002750 f   serialport.obj
 0001:00001750       ?EIO_AfterDrain@@YAXPEAUuv_work_s@@@Z 0000000180002750 f   serialport.obj
 0001:00001750       ?EIO_AfterClose@@YAXPEAUuv_work_s@@@Z 0000000180002750 f   serialport.obj
 0001:00001850       ?Flush@@YAXAEBV?$FunctionCallbackInfo@VValue@v8@@@Nan@@@Z 0000000180002850 f   serialport.obj
 0001:00001a20       ?Set@@YAXAEBV?$FunctionCallbackInfo@VValue@v8@@@Nan@@@Z 0000000180002a20 f   serialport.obj
 0001:00001d90       ?EIO_AfterSet@@YAXPEAUuv_work_s@@@Z 0000000180002d90 f   serialport.obj
 0001:00001e90       ?Get@@YAXAEBV?$FunctionCallbackInfo@VValue@v8@@@Nan@@@Z 0000000180002e90 f   serialport.obj
 0001:00002080       ?EIO_AfterGet@@YAXPEAUuv_work_s@@@Z 0000000180003080 f   serialport.obj
 0001:000022f0       ?Drain@@YAXAEBV?$FunctionCallbackInfo@VValue@v8@@@Nan@@@Z 00000001800032f0 f   serialport.obj
 0001:000024d0       ?ToParityEnum@@YA?AW4SerialPortParity@@AEBV?$Local@VString@v8@@@v8@@@Z 00000001800034d0 f i serialport.obj
 0001:00002700       init                       0000000180003700 f   serialport.obj
 0001:00002830       ??1?$Persistent@VFunction@v8@@V?$NonCopyablePersistentTraits@VFunction@v8@@@2@@v8@@QEAA@XZ 0000000180003830 f i serialport.obj
 0001:00002830       ??1?$Persistent@VObject@v8@@V?$NonCopyablePersistentTraits@VObject@v8@@@2@@v8@@QEAA@XZ 0000000180003830 f i serialport_win.obj
 0001:00002850       ??1?$basic_string@DU?$char_traits@D@std@@V?$allocator@D@2@@std@@QEAA@XZ 0000000180003850 f i serialport.obj
 0001:000028c0       ??0?$basic_string@DU?$char_traits@D@std@@V?$allocator@D@2@@std@@QEAA@AEBV01@@Z 00000001800038c0 f i serialport.obj
 0001:000029a0       ?assign@?$basic_string@DU?$char_traits@D@std@@V?$allocator@D@2@@std@@QEAAAEAV12@QEBD@Z 00000001800039a0 f i serialport.obj
 0001:00002b00       ??$New@VString@v8@@V?$basic_string@DU?$char_traits@D@std@@V?$allocator@D@2@@std@@@Nan@@YA?AV?$MaybeLocal@VString@v8@@@v8@@V?$basic_string@DU?$char_traits@D@std@@V?$allocator@D@2@@std@@@Z 0000000180003b00 f i serialport.obj
 0001:00002c00       ??$New@VFunctionTemplate@v8@@@Nan@@YA?AV?$Local@VFunctionTemplate@v8@@@v8@@P6AXAEBV?$FunctionCallbackInfo@VValue@v8@@@0@@ZV?$Local@VValue@v8@@@2@@Z 0000000180003c00 f i serialport.obj
 0001:00002db0       ??$SetMethod@VObject@v8@@VLocal@2@@Nan@@YAXV?$Local@VObject@v8@@@v8@@PEBDP6AXAEBV?$FunctionCallbackInfo@VValue@v8@@@0@@Z@Z 0000000180003db0 f i serialport.obj
 0001:00002e80       ?_Xlen@?$basic_string@DU?$char_traits@D@std@@V?$allocator@D@2@@std@@SAXXZ 0000000180003e80 f i serialport.obj
 0001:00002ea0       ??$SetMethodAux@V?$Local@VObject@v8@@@v8@@@imp@Nan@@YAXV?$Local@VObject@v8@@@v8@@V?$Local@VString@v8@@@3@V?$Local@VFunctionTemplate@v8@@@3@ZZ 0000000180003ea0 f i serialport.obj
 0001:00002f40       __local_stdio_printf_options 0000000180003f40 f i serialport_win.obj
 0001:00002f50       _snprintf_s                0000000180003f50 f i serialport_win.obj
 0001:00002fc0       ?ErrorCodeToString@@YAXPEBDHPEAD@Z 0000000180003fc0 f   serialport_win.obj
 0001:00003060       ?AsyncCloseCallback@@YAXPEAUuv_handle_s@@@Z 0000000180004060 f   serialport_win.obj
 0001:00003070       ?EIO_Open@@YAXPEAUuv_work_s@@@Z 0000000180004070 f   serialport_win.obj
 0001:00003440       ?EIO_Update@@YAXPEAUuv_work_s@@@Z 0000000180004440 f   serialport_win.obj
 0001:00003500       ?EIO_Set@@YAXPEAUuv_work_s@@@Z 0000000180004500 f   serialport_win.obj
 0001:000035d0       ?EIO_Get@@YAXPEAUuv_work_s@@@Z 00000001800045d0 f   serialport_win.obj
 0001:00003650       ?Write@@YAXAEBV?$FunctionCallbackInfo@VValue@v8@@@Nan@@@Z 0000000180004650 f   serialport_win.obj
 0001:00003940       ?WriteIOCompletion@@YAXKKPEAU_OVERLAPPED@@@Z 0000000180004940 f   serialport_win.obj
 0001:000039b0       ?WriteThread@@YAKPEAX@Z    00000001800049b0 f   serialport_win.obj
 0001:00003a90       ?EIO_AfterWrite@@YAXPEAUuv_async_s@@@Z 0000000180004a90 f   serialport_win.obj
 0001:00003bc0       ?Read@@YAXAEBV?$FunctionCallbackInfo@VValue@v8@@@Nan@@@Z 0000000180004bc0 f   serialport_win.obj
 0001:00004010       ?ReadIOCompletion@@YAXKKPEAU_OVERLAPPED@@@Z 0000000180005010 f   serialport_win.obj
 0001:000041d0       ?ReadThread@@YAKPEAX@Z     00000001800051d0 f   serialport_win.obj
 0001:000042f0       ?EIO_AfterRead@@YAXPEAUuv_async_s@@@Z 00000001800052f0 f   serialport_win.obj
 0001:000044e0       ?EIO_Close@@YAXPEAUuv_work_s@@@Z 00000001800054e0 f   serialport_win.obj
 0001:000045b0       ?List@@YAXAEBV?$FunctionCallbackInfo@VValue@v8@@@Nan@@@Z 00000001800055b0 f   serialport_win.obj
 0001:00004700       ?EIO_List@@YAXPEAUuv_work_s@@@Z 0000000180005700 f   serialport_win.obj
 0001:00004bd0       ?setIfNotEmpty@@YAXV?$Local@VObject@v8@@@v8@@V?$basic_string@DU?$char_traits@D@std@@V?$allocator@D@2@@std@@PEBD@Z 0000000180005bd0 f   serialport_win.obj
 0001:00004da0       ?EIO_AfterList@@YAXPEAUuv_work_s@@@Z 0000000180005da0 f   serialport_win.obj
 0001:000051f0       ??1ListResultItem@@QEAA@XZ 00000001800061f0 f i serialport_win.obj
 0001:00005480       ?EIO_Flush@@YAXPEAUuv_work_s@@@Z 0000000180006480 f   serialport_win.obj
 0001:000054c0       ?EIO_Drain@@YAXPEAUuv_work_s@@@Z 00000001800064c0 f   serialport_win.obj
 0001:00005500       ??1?$list@PEAUListResultItem@@V?$allocator@PEAUListResultItem@@@std@@@std@@QEAA@XZ 0000000180006500 f i serialport_win.obj
 0001:00005570       ??1?$_List_buy@HV?$allocator@H@std@@@std@@QEAA@XZ 0000000180006570 f i serialport_win.obj
 0001:000055b0       ??1?$_List_buy@PEAUListResultItem@@V?$allocator@PEAUListResultItem@@@std@@@std@@QEAA@XZ 00000001800065b0 f i serialport_win.obj
 0001:000055e0       ??1?$_List_alloc@U?$_List_base_types@HV?$allocator@H@std@@@std@@@std@@QEAA@XZ 00000001800065e0 f i serialport_win.obj
 0001:00005610       ??1?$_List_alloc@U?$_List_base_types@PEAUListResultItem@@V?$allocator@PEAUListResultItem@@@std@@@std@@@std@@QEAA@XZ 0000000180006610 f i serialport_win.obj
 0001:0000567c       __imp_load_uv_queue_work   000000018000667c f   node:node.exe
 0001:00005688       __tailMerge_node_exe       0000000180006688     node:node.exe
 0001:00005701       __imp_load_?Global@Context@v8@@QEAA?AV?$Local@VObject@v8@@@2@XZ 0000000180006701 f   node:node.exe
 0001:0000570d       __imp_load_?Value@External@v8@@QEBAPEAXXZ 000000018000670d f   node:node.exe
 0001:00005719       __imp_load_?New@External@v8@@SA?AV?$Local@VExternal@v8@@@2@PEAVIsolate@2@PEAX@Z 0000000180006719 f   node:node.exe
 0001:00005725       __imp_load_?New@Integer@v8@@SA?AV?$Local@VInteger@v8@@@2@PEAVIsolate@2@H@Z 0000000180006725 f   node:node.exe
 0001:00005731       __imp_load_?ThrowException@Isolate@v8@@QEAA?AV?$Local@VValue@v8@@@2@V32@@Z 0000000180006731 f   node:node.exe
 0001:0000573d       __imp_load_?GetCurrentContext@Isolate@v8@@QEAA?AV?$Local@VContext@v8@@@2@XZ 000000018000673d f   node:node.exe
 0001:00005749       __imp_load_?GetCurrent@Isolate@v8@@SAPEAV12@XZ 0000000180006749 f   node:node.exe
 0001:00005755       __imp_load_?CreateHandle@HandleScope@v8@@KAPEAPEAVObject@internal@2@PEAVIsolate@42@PEAV342@@Z 0000000180006755 f   node:node.exe
 0001:00005761       __imp_load_?CreateHandle@HandleScope@v8@@CAPEAPEAVObject@internal@2@PEAVHeapObject@42@PEAV342@@Z 0000000180006761 f   node:node.exe
 0001:0000576d       __imp_load_??1HandleScope@v8@@QEAA@XZ 000000018000676d f   node:node.exe
 0001:00005779       __imp_load_??0HandleScope@v8@@QEAA@PEAVIsolate@1@@Z 0000000180006779 f   node:node.exe
 0001:00005785       __imp_load_?Error@Exception@v8@@SA?AV?$Local@VValue@v8@@@2@V?$Local@VString@v8@@@2@@Z 0000000180006785 f   node:node.exe
 0001:00005791       __imp_load_?TypeError@Exception@v8@@SA?AV?$Local@VValue@v8@@@2@V?$Local@VString@v8@@@2@@Z 0000000180006791 f   node:node.exe
 0001:0000579d       __imp_load_?SetClassName@FunctionTemplate@v8@@QEAAXV?$Local@VString@v8@@@2@@Z 000000018000679d f   node:node.exe
 0001:000057a9       __imp_load_?GetFunction@FunctionTemplate@v8@@QEAA?AV?$MaybeLocal@VFunction@v8@@@2@V?$Local@VContext@v8@@@2@@Z 00000001800067a9 f   node:node.exe
 0001:000057b5       __imp_load_?New@FunctionTemplate@v8@@SA?AV?$Local@VFunctionTemplate@v8@@@2@PEAVIsolate@2@P6AXAEBV?$FunctionCallbackInfo@VValue@v8@@@2@@ZV?$Local@VValue@v8@@@2@V?$Local@VSignature@v8@@@2@HW4ConstructorBehavior@2@W4SideEffectType@2@@Z 00000001800067b5 f   node:node.exe
 0001:000057c1       __imp_load_?Value@Boolean@v8@@QEBA_NXZ 00000001800067c1 f   node:node.exe
 0001:000057cd       __imp_load_?ToLocalEmpty@V8@v8@@CAXXZ 00000001800067cd f   node:node.exe
 0001:000057d9       __imp_load_?FromJustIsNothing@V8@v8@@CAXXZ 00000001800067d9 f   node:node.exe
 0001:000057e5       __imp_load_?DisposeGlobal@V8@v8@@CAXPEAPEAVObject@internal@2@@Z 00000001800067e5 f   node:node.exe
 0001:000057f1       __imp_load_?GlobalizeReference@V8@v8@@CAPEAPEAVObject@internal@2@PEAVIsolate@42@PEAPEAV342@@Z 00000001800067f1 f   node:node.exe
 0001:000057fd       __imp_load_?Int32Value@Value@v8@@QEBA?AV?$Maybe@H@2@V?$Local@VContext@v8@@@2@@Z 00000001800067fd f   node:node.exe
 0001:00005809       __imp_load_?NumberValue@Value@v8@@QEBA?AV?$Maybe@N@2@V?$Local@VContext@v8@@@2@@Z 0000000180006809 f   node:node.exe
 0001:00005815       __imp_load_?ToInt32@Value@v8@@QEBA?AV?$MaybeLocal@VInt32@v8@@@2@V?$Local@VContext@v8@@@2@@Z 0000000180006815 f   node:node.exe
 0001:00005821       __imp_load_?ToString@Value@v8@@QEBA?AV?$MaybeLocal@VString@v8@@@2@V?$Local@VContext@v8@@@2@@Z 0000000180006821 f   node:node.exe
 0001:0000582d       __imp_load_?ToBoolean@Value@v8@@QEBA?AV?$MaybeLocal@VBoolean@v8@@@2@V?$Local@VContext@v8@@@2@@Z 000000018000682d f   node:node.exe
 0001:00005839       __imp_load_?IsInt32@Value@v8@@QEBA_NXZ 0000000180006839 f   node:node.exe
 0001:00005845       __imp_load_?IsObject@Value@v8@@QEBA_NXZ 0000000180006845 f   node:node.exe
 0001:00005851       __imp_load_?IsFunction@Value@v8@@QEBA_NXZ 0000000180006851 f   node:node.exe
 0001:0000585d       __imp_load_?Escape@EscapableHandleScope@v8@@AEAAPEAPEAVObject@internal@2@PEAPEAV342@@Z 000000018000685d f   node:node.exe
 0001:00005869       __imp_load_??0EscapableHandleScope@v8@@QEAA@PEAVIsolate@1@@Z 0000000180006869 f   node:node.exe
 0001:00005875       __imp_load_??1Utf8Value@String@v8@@QEAA@XZ 0000000180006875 f   node:node.exe
 0001:00005881       __imp_load_??0Utf8Value@String@v8@@QEAA@V?$Local@VValue@v8@@@2@@Z 0000000180006881 f   node:node.exe
 0001:0000588d       __imp_load_?NewFromUtf8@String@v8@@SA?AV?$MaybeLocal@VString@v8@@@2@PEAVIsolate@2@PEBDW4NewStringType@2@H@Z 000000018000688d f   node:node.exe
 0001:00005899       __imp_load_?WriteUtf8@String@v8@@QEBAHPEADHPEAHH@Z 0000000180006899 f   node:node.exe
 0001:000058a5       __imp_load_?Length@String@v8@@QEBAHXZ 00000001800068a5 f   node:node.exe
 0001:000058b1       __imp_load_?Value@Int32@v8@@QEBAHXZ 00000001800068b1 f   node:node.exe
 0001:000058bd       __imp_load_?SlowGetInternalField@Object@v8@@AEAA?AV?$Local@VValue@v8@@@2@H@Z 00000001800068bd f   node:node.exe
 0001:000058c9       __imp_load_?New@Object@v8@@SA?AV?$Local@VObject@v8@@@2@PEAVIsolate@2@@Z 00000001800068c9 f   node:node.exe
 0001:000058d5       __imp_load_?SetInternalField@Object@v8@@QEAAXHV?$Local@VValue@v8@@@2@@Z 00000001800068d5 f   node:node.exe
 0001:000058e1       __imp_load_?Has@Object@v8@@QEAA?AV?$Maybe@_N@2@V?$Local@VContext@v8@@@2@V?$Local@VValue@v8@@@2@@Z 00000001800068e1 f   node:node.exe
 0001:000058ed       __imp_load_?Get@Object@v8@@QEAA?AV?$MaybeLocal@VValue@v8@@@2@V?$Local@VContext@v8@@@2@V?$Local@VValue@v8@@@2@@Z 00000001800068ed f   node:node.exe
 0001:000058f9       __imp_load_?Set@Object@v8@@QEAA_NV?$Local@VValue@v8@@@2@0@Z 00000001800068f9 f   node:node.exe
 0001:00005905       __imp_load_?SetInternalFieldCount@ObjectTemplate@v8@@QEAAXH@Z 0000000180006905 f   node:node.exe
 0001:00005911       __imp_load_?NewInstance@ObjectTemplate@v8@@QEAA?AV?$MaybeLocal@VObject@v8@@@2@V?$Local@VContext@v8@@@2@@Z 0000000180006911 f   node:node.exe
 0001:0000591d       __imp_load_?New@ObjectTemplate@v8@@SA?AV?$Local@VObjectTemplate@v8@@@2@PEAVIsolate@2@V?$Local@VFunctionTemplate@v8@@@2@@Z 000000018000691d f   node:node.exe
 0001:00005929       __imp_load_?EmitAsyncDestroy@node@@YAXPEAVIsolate@v8@@Uasync_context@1@@Z 0000000180006929 f   node:node.exe
 0001:00005935       __imp_load_node_module_register 0000000180006935 f   node:node.exe
 0001:00005941       __imp_load_?MakeCallback@node@@YA?AV?$MaybeLocal@VValue@v8@@@v8@@PEAVIsolate@3@V?$Local@VObject@v8@@@3@V?$Local@VFunction@v8@@@3@HPEAV?$Local@VValue@v8@@@3@Uasync_context@1@@Z 0000000180006941 f   node:node.exe
 0001:0000594d       __imp_load_?EmitAsyncInit@node@@YA?AUasync_context@1@PEAVIsolate@v8@@V?$Local@VObject@v8@@@4@V?$Local@VString@v8@@@4@N@Z 000000018000694d f   node:node.exe
 0001:00005959       __imp_load_uv_default_loop 0000000180006959 f   node:node.exe
 0001:00005965       __imp_load_?ToObject@Value@v8@@QEBA?AV?$Local@VObject@v8@@@2@XZ 0000000180006965 f   node:node.exe
 0001:00005971       __imp_load_?ToString@Value@v8@@QEBA?AV?$Local@VString@v8@@@2@XZ 0000000180006971 f   node:node.exe
 0001:0000597d       __imp_load_??1EscapableHandleScope@v8@@QEAA@XZ 000000018000697d f   node:node.exe
 0001:00005989       __imp_load_?New@Array@v8@@SA?AV?$Local@VArray@v8@@@2@PEAVIsolate@2@H@Z 0000000180006989 f   node:node.exe
 0001:00005995       __imp_load_?ToInteger@Value@v8@@QEBA?AV?$MaybeLocal@VInteger@v8@@@2@V?$Local@VContext@v8@@@2@@Z 0000000180006995 f   node:node.exe
 0001:000059a1       __imp_load_?Set@Object@v8@@QEAA?AV?$Maybe@_N@2@V?$Local@VContext@v8@@@2@V?$Local@VValue@v8@@@2@1@Z 00000001800069a1 f   node:node.exe
 0001:000059ad       __imp_load_?Set@Object@v8@@QEAA?AV?$Maybe@_N@2@V?$Local@VContext@v8@@@2@IV?$Local@VValue@v8@@@2@@Z 00000001800069ad f   node:node.exe
 0001:000059b9       __imp_load_uv_close        00000001800069b9 f   node:node.exe
 0001:000059c5       __imp_load_?HasInstance@Buffer@node@@YA_NV?$Local@VValue@v8@@@v8@@@Z 00000001800069c5 f   node:node.exe
 0001:000059d1       __imp_load_?Data@Buffer@node@@YAPEADV?$Local@VObject@v8@@@v8@@@Z 00000001800069d1 f   node:node.exe
 0001:000059dd       __imp_load_?Length@Buffer@node@@YA_KV?$Local@VObject@v8@@@v8@@@Z 00000001800069dd f   node:node.exe
 0001:000059e9       __imp_load_uv_async_send   00000001800069e9 f   node:node.exe
 0001:000059f5       __imp_load_uv_async_init   00000001800069f5 f   node:node.exe
 0001:00005a04       ??0bad_alloc@std@@QEAA@AEBV01@@Z 0000000180006a04 f i libcpmt:xthrow.obj
 0001:00005a44       ??0bad_alloc@std@@QEAA@XZ  0000000180006a44 f i libcpmt:xthrow.obj
 0001:00005a64       ??0exception@std@@QEAA@AEBV01@@Z 0000000180006a64 f i libcpmt:xthrow.obj
 0001:00005a9c       ??0length_error@std@@QEAA@AEBV01@@Z 0000000180006a9c f i libcpmt:xthrow.obj
 0001:00005adc       ??0length_error@std@@QEAA@PEBD@Z 0000000180006adc f i libcpmt:xthrow.obj
 0001:00005b28       ??0logic_error@std@@QEAA@AEBV01@@Z 0000000180006b28 f i libcpmt:xthrow.obj
 0001:00005b68       ??1bad_exception@std@@UEAA@XZ 0000000180006b68 f i libvcruntime:frame.obj
 0001:00005b68       ??1bad_alloc@std@@UEAA@XZ  0000000180006b68 f i libcpmt:xthrow.obj
 0001:00005b68       ??1bad_array_new_length@std@@UEAA@XZ 0000000180006b68 f i LIBCMT:throw_bad_alloc.obj
 0001:00005b68       ??1length_error@std@@UEAA@XZ 0000000180006b68 f i libcpmt:xthrow.obj
 0001:00005b7c       ??_Eexception@std@@UEAAPEAXI@Z 0000000180006b7c f i libcpmt:xthrow.obj
 0001:00005b7c       ??_Gbad_array_new_length@std@@UEAAPEAXI@Z 0000000180006b7c f i LIBCMT:throw_bad_alloc.obj
 0001:00005b7c       ??_Gexception@std@@UEAAPEAXI@Z 0000000180006b7c f i libcpmt:xthrow.obj
 0001:00005b7c       ??_Ebad_exception@std@@UEAAPEAXI@Z 0000000180006b7c f i libvcruntime:frame.obj
 0001:00005b7c       ??_Ebad_alloc@std@@UEAAPEAXI@Z 0000000180006b7c f i libcpmt:xthrow.obj
 0001:00005b7c       ??_Gbad_exception@std@@UEAAPEAXI@Z 0000000180006b7c f i libvcruntime:frame.obj
 0001:00005b7c       ??_Elength_error@std@@UEAAPEAXI@Z 0000000180006b7c f i libcpmt:xthrow.obj
 0001:00005b7c       ??_Gbad_alloc@std@@UEAAPEAXI@Z 0000000180006b7c f i libcpmt:xthrow.obj
 0001:00005b7c       ??_Ebad_array_new_length@std@@UEAAPEAXI@Z 0000000180006b7c f i LIBCMT:throw_bad_alloc.obj
 0001:00005b7c       ??_Elogic_error@std@@UEAAPEAXI@Z 0000000180006b7c f i libcpmt:xthrow.obj
 0001:00005b7c       ??_Glogic_error@std@@UEAAPEAXI@Z 0000000180006b7c f i libcpmt:xthrow.obj
 0001:00005b7c       ??_Glength_error@std@@UEAAPEAXI@Z 0000000180006b7c f i libcpmt:xthrow.obj
 0001:00005bc0       ?_Xlength_error@std@@YAXPEBD@Z 0000000180006bc0 f   libcpmt:xthrow.obj
 0001:00005be4       ?what@exception@std@@UEBAPEBDXZ 0000000180006be4 f i libcpmt:xthrow.obj
 0001:00005c10       __security_check_cookie    0000000180006c10 f   LIBCMT:_amdsecgs_.obj
 0001:00005c34       ??2@YAPEAX_K@Z             0000000180006c34 f   LIBCMT:new_scalar.obj
 0001:00005c70       ??3@YAXPEAX_K@Z            0000000180006c70 f   LIBCMT:delete_scalar_size.obj
 0001:00005c78       __raise_securityfailure    0000000180006c78 f   LIBCMT:gs_report.obj
 0001:00005cac       __report_gsfailure         0000000180006cac f   LIBCMT:gs_report.obj
 0001:00005d80       __report_rangecheckfailure 0000000180006d80 f   LIBCMT:gs_report.obj
 0001:00005d94       __report_securityfailure   0000000180006d94 f   LIBCMT:gs_report.obj
 0001:00005f14       __scrt_acquire_startup_lock 0000000180006f14 f   LIBCMT:utility.obj
 0001:00005f50       __scrt_dllmain_after_initialize_c 0000000180006f50 f   LIBCMT:utility.obj
 0001:00005f84       __scrt_dllmain_before_initialize_c 0000000180006f84 f   LIBCMT:utility.obj
 0001:00005f9c       __scrt_dllmain_crt_thread_attach 0000000180006f9c f   LIBCMT:utility.obj
 0001:00005fc4       __scrt_dllmain_crt_thread_detach 0000000180006fc4 f   LIBCMT:utility.obj
 0001:00005fdc       __scrt_dllmain_exception_filter 0000000180006fdc f   LIBCMT:utility.obj
 0001:0000603c       __scrt_dllmain_uninitialize_c 000000018000703c f   LIBCMT:utility.obj
 0001:0000606c       __scrt_dllmain_uninitialize_critical 000000018000706c f   LIBCMT:utility.obj
 0001:00006080       __scrt_initialize_crt      0000000180007080 f   LIBCMT:utility.obj
 0001:000060cc       __scrt_initialize_onexit_tables 00000001800070cc f   LIBCMT:utility.obj
 0001:000061a4       __scrt_is_nonwritable_in_current_image 00000001800071a4 f   LIBCMT:utility.obj
 0001:00006240       __scrt_release_startup_lock 0000000180007240 f   LIBCMT:utility.obj
 0001:00006264       __scrt_uninitialize_crt    0000000180007264 f   LIBCMT:utility.obj
 0001:00006290       _onexit                    0000000180007290 f   LIBCMT:utility.obj
 0001:000062e0       atexit                     00000001800072e0 f   LIBCMT:utility.obj
 0001:00006628       _DllMainCRTStartup         0000000180007628 f   LIBCMT:dll_dllmain.obj
 0001:00006668       ??_Etype_info@@UEAAPEAXI@Z 0000000180007668 f i LIBCMT:std_type_info_static.obj
 0001:00006668       ??_Gtype_info@@UEAAPEAXI@Z 0000000180007668 f i LIBCMT:std_type_info_static.obj
 0001:00006694       ??0bad_array_new_length@std@@QEAA@AEBV01@@Z 0000000180007694 f i LIBCMT:throw_bad_alloc.obj
 0001:000066d4       ??0bad_array_new_length@std@@QEAA@XZ 00000001800076d4 f i LIBCMT:throw_bad_alloc.obj
 0001:000066f4       ?__scrt_throw_std_bad_alloc@@YAXXZ 00000001800076f4 f   LIBCMT:throw_bad_alloc.obj
 0001:00006714       ?__scrt_throw_std_bad_array_new_length@@YAXXZ 0000000180007714 f   LIBCMT:throw_bad_alloc.obj
 0001:00006734       ??3@YAXPEAX@Z              0000000180007734 f   LIBCMT:delete_scalar.obj
 0001:0000673c       __isa_available_init       000000018000773c f   LIBCMT:_cpu_disp_.obj
 0001:000068f8       _get_startup_argv_mode     00000001800078f8 f   LIBCMT:argv_mode.obj
 0001:000068f8       DllMain                    00000001800078f8 f   LIBCMT:dll_dllmain_stub.obj
 0001:00006900       __scrt_is_ucrt_dll_in_use  0000000180007900 f   LIBCMT:ucrt_detection.obj
 0001:0000690c       __crt_debugger_hook        000000018000790c f   LIBCMT:utility_desktop.obj
 0001:00006914       __scrt_fastfail            0000000180007914 f   LIBCMT:utility_desktop.obj
 0001:00006a60       _guard_check_icall_nop     0000000180007a60 f i LIBCMT:guard_support.obj
 0001:00006a64       __security_init_cookie     0000000180007a64 f   LIBCMT:gs_support.obj
 0001:00006b10       ?__scrt_initialize_type_info@@YAXXZ 0000000180007b10 f   LIBCMT:tncleanup.obj
 0001:00006b20       ?__scrt_uninitialize_type_info@@YAXXZ 0000000180007b20 f   LIBCMT:tncleanup.obj
 0001:00006b2c       __local_stdio_scanf_options 0000000180007b2c f i LIBCMT:default_local_stdio_options.obj
 0001:00006b34       __scrt_initialize_default_local_stdio_options 0000000180007b34 f   LIBCMT:default_local_stdio_options.obj
 0001:00006b50       __scrt_get_dyn_tls_init_callback 0000000180007b50 f   LIBCMT:dyn_tls_init.obj
 0001:00006b58       _RTC_Initialize            0000000180007b58 f   LIBCMT:_initsect_.obj
 0001:00006b94       _RTC_Terminate             0000000180007b94 f   LIBCMT:_initsect_.obj
 0001:00006bd0       ??$_CallSETranslator@V__FrameHandler3@@@@YAHPEAUEHExceptionRecord@@PEA_KPEAU_CONTEXT@@PEAU_xDISPATCHER_CONTEXT@@PEBU_s_FuncInfo@@K1@Z 0000000180007bd0 f i libvcruntime:risctrnsctrl.obj
 0001:00006c24       ?CatchTryBlock@__FrameHandler3@@SAPEBU_s_TryBlockMapEntry@@PEBU_s_FuncInfo@@H@Z 0000000180007c24 f   libvcruntime:risctrnsctrl.obj
 0001:00006c7c       ?ExecutionInCatch@__FrameHandler3@@SA_NPEAU_xDISPATCHER_CONTEXT@@PEBU_s_FuncInfo@@@Z 0000000180007c7c f   libvcruntime:risctrnsctrl.obj
 0001:00006ca8       ?FrameUnwindToEmptyState@__FrameHandler3@@SAXPEA_KPEAU_xDISPATCHER_CONTEXT@@PEBU_s_FuncInfo@@@Z 0000000180007ca8 f   libvcruntime:risctrnsctrl.obj
 0001:00006d0c       ?GetEstablisherFrame@__FrameHandler3@@SAPEA_KPEA_KPEAU_xDISPATCHER_CONTEXT@@PEBU_s_FuncInfo@@0@Z 0000000180007d0c f   libvcruntime:risctrnsctrl.obj
 0001:00006dd8       ?GetRangeOfTrysToCheck@__FrameHandler3@@SA?AU?$pair@Viterator@TryBlockMap@__FrameHandler3@@V123@@std@@AEAVTryBlockMap@1@HH@Z 0000000180007dd8 f   libvcruntime:risctrnsctrl.obj
 0001:00006f34       ?UnwindNestedFrames@__FrameHandler3@@SAXPEA_KPEAUEHExceptionRecord@@PEAU_CONTEXT@@0PEAXPEBU_s_FuncInfo@@HHPEBU_s_HandlerType@@PEAU_xDISPATCHER_CONTEXT@@E@Z 0000000180007f34 f   libvcruntime:risctrnsctrl.obj
 0001:00007058       _CreateFrameInfo           0000000180008058 f   libvcruntime:risctrnsctrl.obj
 0001:00007094       _FindAndUnlinkFrame        0000000180008094 f   libvcruntime:risctrnsctrl.obj
 0001:000070e8       _GetImageBase              00000001800080e8 f   libvcruntime:risctrnsctrl.obj
 0001:000070fc       _GetThrowImageBase         00000001800080fc f   libvcruntime:risctrnsctrl.obj
 0001:00007110       _SetImageBase              0000000180008110 f   libvcruntime:risctrnsctrl.obj
 0001:00007128       _SetThrowImageBase         0000000180008128 f   libvcruntime:risctrnsctrl.obj
 0001:00007140       __CxxFrameHandler3         0000000180008140 f   libvcruntime:risctrnsctrl.obj
 0001:000071c0       strstr                     00000001800081c0 f   libvcruntime:strstr.obj
 0001:000073c0       __std_exception_copy       00000001800083c0 f   libvcruntime:std_exception.obj
 0001:00007450       __std_exception_destroy    0000000180008450 f   libvcruntime:std_exception.obj
 0001:00007478       _CxxThrowException         0000000180008478 f   libvcruntime:throw.obj
 0001:00007538       __vcrt_initialize          0000000180008538 f   libvcruntime:initialization.obj
 0001:0000756c       __vcrt_thread_attach       000000018000856c f   libvcruntime:initialization.obj
 0001:00007580       __vcrt_thread_detach       0000000180008580 f   libvcruntime:initialization.obj
 0001:00007594       __vcrt_uninitialize        0000000180008594 f   libvcruntime:initialization.obj
 0001:000075b4       __vcrt_uninitialize_critical 00000001800085b4 f   libvcruntime:initialization.obj
 0001:000075c4       __C_specific_handler       00000001800085c4 f   libvcruntime:_riscchandler_.obj
 0001:000077e0       memset_repmovs             00000001800087e0 f   libvcruntime:memset.obj
 0001:00007800       memset                     0000000180008800 f   libvcruntime:memset.obj
 0001:00007990       __std_type_info_compare    0000000180008990 f   libvcruntime:std_type_info.obj
 0001:000079b8       __std_type_info_destroy_list 00000001800089b8 f   libvcruntime:std_type_info.obj
 0001:000079e4       __vcrt_freefls             00000001800089e4 f   libvcruntime:per_thread_data.obj
 0001:00007a04       __vcrt_freeptd             0000000180008a04 f   libvcruntime:per_thread_data.obj
 0001:00007a54       __vcrt_getptd              0000000180008a54 f   libvcruntime:per_thread_data.obj
 0001:00007a70       __vcrt_getptd_noexit       0000000180008a70 f   libvcruntime:per_thread_data.obj
 0001:00007b3c       __vcrt_initialize_ptd      0000000180008b3c f   libvcruntime:per_thread_data.obj
 0001:00007b90       __vcrt_uninitialize_ptd    0000000180008b90 f   libvcruntime:per_thread_data.obj
 0001:00007bb4       ?GetCurrentState@__FrameHandler3@@SAHPEA_KPEAU_xDISPATCHER_CONTEXT@@PEBU_s_FuncInfo@@@Z 0000000180008bb4 f   libvcruntime:ehstate.obj
 0001:00007bdc       ?GetUnwindTryBlock@__FrameHandler3@@SAHPEA_KPEAU_xDISPATCHER_CONTEXT@@PEBU_s_FuncInfo@@@Z 0000000180008bdc f   libvcruntime:ehstate.obj
 0001:00007c08       ?SetState@__FrameHandler3@@SAXPEA_KPEBU_s_FuncInfo@@H@Z 0000000180008c08 f   libvcruntime:ehstate.obj
 0001:00007c14       ?SetUnwindTryBlock@__FrameHandler3@@SAXPEA_KPEAU_xDISPATCHER_CONTEXT@@PEBU_s_FuncInfo@@H@Z 0000000180008c14 f   libvcruntime:ehstate.obj
 0001:00007c50       ?StateFromControlPc@__FrameHandler3@@SAHPEBU_s_FuncInfo@@PEAU_xDISPATCHER_CONTEXT@@@Z 0000000180008c50 f   libvcruntime:ehstate.obj
 0001:00007c58       ?StateFromIp@__FrameHandler3@@SAHPEBU_s_FuncInfo@@PEAU_xDISPATCHER_CONTEXT@@_K@Z 0000000180008c58 f   libvcruntime:ehstate.obj
 0001:000086e4       ??$TypeMatchHelper@$$CBU_s_HandlerType@@@@YAHPEBU_s_HandlerType@@PEBU_s_CatchableType@@PEBU_s_ThrowInfo@@@Z 00000001800096e4 f i libvcruntime:frame.obj
 0001:00008828       ??$__InternalCxxFrameHandler@V__FrameHandler3@@@@YA?AW4_EXCEPTION_DISPOSITION@@PEAUEHExceptionRecord@@PEA_KPEAU_CONTEXT@@PEAU_xDISPATCHER_CONTEXT@@PEBU_s_FuncInfo@@H1E@Z 0000000180009828 f i libvcruntime:frame.obj
 0001:00008a70       ??0bad_exception@std@@QEAA@AEBV01@@Z 0000000180009a70 f i libvcruntime:frame.obj
 0001:00008ab0       ??0bad_exception@std@@QEAA@XZ 0000000180009ab0 f i libvcruntime:frame.obj
 0001:00008ad0       ?CxxCallCatchBlock@__FrameHandler3@@SAPEAXPEAU_EXCEPTION_RECORD@@@Z 0000000180009ad0 f   libvcruntime:frame.obj
 0001:00008d44       ?FrameUnwindToState@__FrameHandler3@@SAXPEA_KPEAU_xDISPATCHER_CONTEXT@@PEBU_s_FuncInfo@@H@Z 0000000180009d44 f   libvcruntime:frame.obj
 0001:00008ed8       ?GetHandlerSearchState@__FrameHandler3@@SAHPEA_KPEAU_xDISPATCHER_CONTEXT@@PEBU_s_FuncInfo@@@Z 0000000180009ed8 f i libvcruntime:frame.obj
 0001:000090dc       ?_CallMemberFunction1@@YAXQEAX00@Z 000000018000a0dc f i libvcruntime:frame.obj
 0001:000090e8       ?_CallMemberFunction2@@YAXQEAX00H@Z 000000018000a0e8 f i libvcruntime:frame.obj
 0001:000090f8       __vcrt_initialize_locks    000000018000a0f8 f   libvcruntime:locks.obj
 0001:00009140       __vcrt_uninitialize_locks  000000018000a140 f   libvcruntime:locks.obj
 0001:00009350       __vcrt_FlsAlloc            000000018000a350 f   libvcruntime:winapi_downlevel.obj
 0001:00009398       __vcrt_FlsFree             000000018000a398 f   libvcruntime:winapi_downlevel.obj
 0001:000093e0       __vcrt_FlsGetValue         000000018000a3e0 f   libvcruntime:winapi_downlevel.obj
 0001:00009428       __vcrt_FlsSetValue         000000018000a428 f   libvcruntime:winapi_downlevel.obj
 0001:0000947c       __vcrt_InitializeCriticalSectionEx 000000018000a47c f   libvcruntime:winapi_downlevel.obj
 0001:000094e0       __vcrt_initialize_winapi_thunks 000000018000a4e0 f   libvcruntime:winapi_downlevel.obj
 0001:00009510       __vcrt_uninitialize_winapi_thunks 000000018000a510 f   libvcruntime:winapi_downlevel.obj
 0001:00009550       __vcrt_initialize_pure_virtual_call_handler 000000018000a550 f   libvcruntime:purevirt_data.obj
 0001:00009570       _NLG_Notify                000000018000a570 f   libvcruntime:_notify_.obj
 0001:00009590       __NLG_Dispatch2            000000018000a590 f   libvcruntime:_notify_.obj
 0001:000095a0       __NLG_Return2              000000018000a5a0 f   libvcruntime:_notify_.obj
 0001:000095a4       __except_validate_context_record 000000018000a5a4 f   libvcruntime:jbcxrval.obj
 0001:000095dc       __DestructExceptionObject  000000018000a5dc f   libvcruntime:ehhelpers.obj
 0001:00009650       ?_CallMemberFunction0@@YAXQEAX0@Z 000000018000a650 f i libvcruntime:ehhelpers.obj
 0001:00009654       _IsExceptionObjectToBeDestroyed 000000018000a654 f   libvcruntime:ehhelpers.obj
 0001:00009684       __AdjustPointer            000000018000a684 f   libvcruntime:ehhelpers.obj
 0001:000096a8       __FrameUnwindFilter        000000018000a6a8 f   libvcruntime:ehhelpers.obj
 0001:00009710       _CallSettingFrame          000000018000a710 f   libvcruntime:handlers.obj
 0001:00009760       _CallSettingFrameEncoded   000000018000a760 f   libvcruntime:handlers.obj
 0001:000097c0       memcpy_repmovs             000000018000a7c0 f   libvcruntime:memcpy.obj
 0001:000097e0       memmove                    000000018000a7e0 f   libvcruntime:memcpy.obj
 0001:000097e0       memcpy                     000000018000a7e0 f   libvcruntime:memcpy.obj
 0001:00009c18       free                       000000018000ac18 f   libucrt:free.obj
 0001:0000a604       ??$ftprintf@PEAU_iobuf@@PEB_WAEBQEB_WAEBQEB_WAEBI@?$__crt_char_traits@_W@@SAH$$QEAPEAU_iobuf@@$$QEAPEB_WAEBQEB_W2AEBI@Z 000000018000b604 f i libucrt:assert.obj
 0001:0000a62c       _wassert                   000000018000b62c f   libucrt:assert.obj
 0001:0000a6b0       fwprintf                   000000018000b6b0 f i libucrt:assert.obj
 0001:0000a6f4       swprintf                   000000018000b6f4 f i libucrt:assert.obj
 0001:0000a748       __acrt_call_reportfault    000000018000b748 f   libucrt:invalid_parameter.obj
 0001:0000a8a4       __acrt_initialize_invalid_parameter_handler 000000018000b8a4 f   libucrt:invalid_parameter.obj
 0001:0000a8ac       _invalid_parameter         000000018000b8ac f   libucrt:invalid_parameter.obj
 0001:0000a95c       _invalid_parameter_noinfo  000000018000b95c f   libucrt:invalid_parameter.obj
 0001:0000a97c       _invalid_parameter_noinfo_noreturn 000000018000b97c f   libucrt:invalid_parameter.obj
 0001:0000a9ac       _invoke_watson             000000018000b9ac f   libucrt:invalid_parameter.obj
 0001:0000a9f4       malloc                     000000018000b9f4 f   libucrt:malloc.obj
 0001:0000a9fc       strncpy_s                  000000018000b9fc f   libucrt:strncpy_s.obj
 0001:0000aec4       ??$ensure_buffer_is_big_enough@D@formatting_buffer@__crt_stdio_output@@QEAA_N_K@Z 000000018000bec4 f i libucrt:output.obj
 0001:0000af6c       ??$ensure_buffer_is_big_enough@_W@formatting_buffer@__crt_stdio_output@@QEAA_N_K@Z 000000018000bf6c f i libucrt:output.obj
 0001:0000b018       ??$is_wide_character_specifier@_W@__crt_stdio_output@@YA_N_K_WW4length_modifier@0@@Z 000000018000c018 f i libucrt:output.obj
 0001:0000b058       ??$type_case_integer_parse_into_buffer@I@?$output_processor@DV?$string_output_adapter@D@__crt_stdio_output@@V?$format_validation_base@DV?$string_output_adapter@D@__crt_stdio_output@@@2@@__crt_stdio_output@@AEAAXII_N@Z 000000018000c058 f i libucrt:output.obj
 0001:0000b0e8       ??$type_case_integer_parse_into_buffer@I@?$output_processor@_WV?$stream_output_adapter@_W@__crt_stdio_output@@V?$standard_base@_WV?$stream_output_adapter@_W@__crt_stdio_output@@@2@@__crt_stdio_output@@AEAAXII_N@Z 000000018000c0e8 f i libucrt:output.obj
 0001:0000b0e8       ??$type_case_integer_parse_into_buffer@I@?$output_processor@_WV?$string_output_adapter@_W@__crt_stdio_output@@V?$standard_base@_WV?$string_output_adapter@_W@__crt_stdio_output@@@2@@__crt_stdio_output@@AEAAXII_N@Z 000000018000c0e8 f i libucrt:output.obj
 0001:0000b188       ??$type_case_integer_parse_into_buffer@_K@?$output_processor@DV?$string_output_adapter@D@__crt_stdio_output@@V?$format_validation_base@DV?$string_output_adapter@D@__crt_stdio_output@@@2@@__crt_stdio_output@@AEAAX_KI_N@Z 000000018000c188 f i libucrt:output.obj
 0001:0000b21c       ??$type_case_integer_parse_into_buffer@_K@?$output_processor@_WV?$stream_output_adapter@_W@__crt_stdio_output@@V?$standard_base@_WV?$stream_output_adapter@_W@__crt_stdio_output@@@2@@__crt_stdio_output@@AEAAX_KI_N@Z 000000018000c21c f i libucrt:output.obj
 0001:0000b21c       ??$type_case_integer_parse_into_buffer@_K@?$output_processor@_WV?$string_output_adapter@_W@__crt_stdio_output@@V?$standard_base@_WV?$string_output_adapter@_W@__crt_stdio_output@@@2@@__crt_stdio_output@@AEAAX_KI_N@Z 000000018000c21c f i libucrt:output.obj
 0001:0000b2c0       ??$write_multiple_characters@V?$stream_output_adapter@_W@__crt_stdio_output@@D@__crt_stdio_output@@YAXAEBV?$stream_output_adapter@_W@0@DHQEAH@Z 000000018000c2c0 f i libucrt:output.obj
 0001:0000b354       ??$write_multiple_characters@V?$string_output_adapter@D@__crt_stdio_output@@D@__crt_stdio_output@@YAXAEBV?$string_output_adapter@D@0@DHQEAH@Z 000000018000c354 f i libucrt:output.obj
 0001:0000b3cc       ??$write_multiple_characters@V?$string_output_adapter@_W@__crt_stdio_output@@D@__crt_stdio_output@@YAXAEBV?$string_output_adapter@_W@0@DHQEAH@Z 000000018000c3cc f i libucrt:output.obj
 0001:0000b448       ??0_LocaleUpdate@@QEAA@QEAU__crt_locale_pointers@@@Z 000000018000c448 f i libucrt:output.obj
 0001:0000b4e4       ??1_LocaleUpdate@@QEAA@XZ  000000018000c4e4 f i libucrt:output.obj
 0001:0000b62c       ?crop_zeroes@__crt_stdio_output@@YAXPEADQEAU__crt_locale_pointers@@@Z 000000018000c62c f i libucrt:output.obj
 0001:0000b698       ?force_decimal_point@__crt_stdio_output@@YAXPEADQEAU__crt_locale_pointers@@@Z 000000018000c698 f i libucrt:output.obj
 0001:0000b708       ?parse_int_from_format_string@?$output_processor@DV?$string_output_adapter@D@__crt_stdio_output@@V?$format_validation_base@DV?$string_output_adapter@D@__crt_stdio_output@@@2@@__crt_stdio_output@@AEAA_NQEAH@Z 000000018000c708 f i libucrt:output.obj
 0001:0000b7ac       ?parse_int_from_format_string@?$output_processor@_WV?$string_output_adapter@_W@__crt_stdio_output@@V?$standard_base@_WV?$string_output_adapter@_W@__crt_stdio_output@@@2@@__crt_stdio_output@@AEAA_NQEAH@Z 000000018000c7ac f i libucrt:output.obj
 0001:0000b7ac       ?parse_int_from_format_string@?$output_processor@_WV?$stream_output_adapter@_W@__crt_stdio_output@@V?$standard_base@_WV?$stream_output_adapter@_W@__crt_stdio_output@@@2@@__crt_stdio_output@@AEAA_NQEAH@Z 000000018000c7ac f i libucrt:output.obj
 0001:0000b850       ?process@?$output_processor@DV?$string_output_adapter@D@__crt_stdio_output@@V?$format_validation_base@DV?$string_output_adapter@D@__crt_stdio_output@@@2@@__crt_stdio_output@@QEAAHXZ 000000018000c850 f i libucrt:output.obj
 0001:0000ba64       ?process@?$output_processor@_WV?$stream_output_adapter@_W@__crt_stdio_output@@V?$standard_base@_WV?$stream_output_adapter@_W@__crt_stdio_output@@@2@@__crt_stdio_output@@QEAAHXZ 000000018000ca64 f i libucrt:output.obj
 0001:0000bcbc       ?process@?$output_processor@_WV?$string_output_adapter@_W@__crt_stdio_output@@V?$standard_base@_WV?$string_output_adapter@_W@__crt_stdio_output@@@2@@__crt_stdio_output@@QEAAHXZ 000000018000ccbc f i libucrt:output.obj
 0001:0000bf18       ?state_case_normal@?$output_processor@DV?$string_output_adapter@D@__crt_stdio_output@@V?$format_validation_base@DV?$string_output_adapter@D@__crt_stdio_output@@@2@@__crt_stdio_output@@AEAA_NXZ 000000018000cf18 f i libucrt:output.obj
 0001:0000bf8c       ?state_case_normal_tchar@?$output_processor@DV?$string_output_adapter@D@__crt_stdio_output@@V?$format_validation_base@DV?$string_output_adapter@D@__crt_stdio_output@@@2@@__crt_stdio_output@@AEAA_ND@Z 000000018000cf8c f i libucrt:output.obj
 0001:0000c024       ?state_case_size@?$output_processor@DV?$string_output_adapter@D@__crt_stdio_output@@V?$format_validation_base@DV?$string_output_adapter@D@__crt_stdio_output@@@2@@__crt_stdio_output@@AEAA_NXZ 000000018000d024 f i libucrt:output.obj
 0001:0000c198       ?state_case_size@?$output_processor@_WV?$stream_output_adapter@_W@__crt_stdio_output@@V?$standard_base@_WV?$stream_output_adapter@_W@__crt_stdio_output@@@2@@__crt_stdio_output@@AEAA_NXZ 000000018000d198 f i libucrt:output.obj
 0001:0000c330       ?state_case_size@?$output_processor@_WV?$string_output_adapter@_W@__crt_stdio_output@@V?$standard_base@_WV?$string_output_adapter@_W@__crt_stdio_output@@@2@@__crt_stdio_output@@AEAA_NXZ 000000018000d330 f i libucrt:output.obj
 0001:0000c4c8       ?state_case_type@?$output_processor@DV?$string_output_adapter@D@__crt_stdio_output@@V?$format_validation_base@DV?$string_output_adapter@D@__crt_stdio_output@@@2@@__crt_stdio_output@@AEAA_NXZ 000000018000d4c8 f i libucrt:output.obj
 0001:0000c734       ?state_case_type@?$output_processor@_WV?$stream_output_adapter@_W@__crt_stdio_output@@V?$standard_base@_WV?$stream_output_adapter@_W@__crt_stdio_output@@@2@@__crt_stdio_output@@AEAA_NXZ 000000018000d734 f i libucrt:output.obj
 0001:0000ca20       ?state_case_type@?$output_processor@_WV?$string_output_adapter@_W@__crt_stdio_output@@V?$standard_base@_WV?$string_output_adapter@_W@__crt_stdio_output@@@2@@__crt_stdio_output@@AEAA_NXZ 000000018000da20 f i libucrt:output.obj
 0001:0000ccf4       ?type_case_Z@?$output_processor@DV?$string_output_adapter@D@__crt_stdio_output@@V?$format_validation_base@DV?$string_output_adapter@D@__crt_stdio_output@@@2@@__crt_stdio_output@@AEAA_NXZ 000000018000dcf4 f i libucrt:output.obj
 0001:0000cd6c       ?type_case_Z@?$output_processor@_WV?$stream_output_adapter@_W@__crt_stdio_output@@V?$standard_base@_WV?$stream_output_adapter@_W@__crt_stdio_output@@@2@@__crt_stdio_output@@AEAA_NXZ 000000018000dd6c f i libucrt:output.obj
 0001:0000cd6c       ?type_case_Z@?$output_processor@_WV?$string_output_adapter@_W@__crt_stdio_output@@V?$standard_base@_WV?$string_output_adapter@_W@__crt_stdio_output@@@2@@__crt_stdio_output@@AEAA_NXZ 000000018000dd6c f i libucrt:output.obj
 0001:0000cde8       ?type_case_a@?$output_processor@DV?$string_output_adapter@D@__crt_stdio_output@@V?$format_validation_base@DV?$string_output_adapter@D@__crt_stdio_output@@@2@@__crt_stdio_output@@AEAA_NXZ 000000018000dde8 f i libucrt:output.obj
 0001:0000cfa4       ?type_case_a@?$output_processor@_WV?$string_output_adapter@_W@__crt_stdio_output@@V?$standard_base@_WV?$string_output_adapter@_W@__crt_stdio_output@@@2@@__crt_stdio_output@@AEAA_NXZ 000000018000dfa4 f i libucrt:output.obj
 0001:0000cfa4       ?type_case_a@?$output_processor@_WV?$stream_output_adapter@_W@__crt_stdio_output@@V?$standard_base@_WV?$stream_output_adapter@_W@__crt_stdio_output@@@2@@__crt_stdio_output@@AEAA_NXZ 000000018000dfa4 f i libucrt:output.obj
 0001:0000d184       ?type_case_c_tchar@?$output_processor@DV?$string_output_adapter@D@__crt_stdio_output@@V?$format_validation_base@DV?$string_output_adapter@D@__crt_stdio_output@@@2@@__crt_stdio_output@@AEAA_ND@Z 000000018000e184 f i libucrt:output.obj
 0001:0000d248       ?type_case_c_tchar@?$output_processor@_WV?$stream_output_adapter@_W@__crt_stdio_output@@V?$standard_base@_WV?$stream_output_adapter@_W@__crt_stdio_output@@@2@@__crt_stdio_output@@AEAA_N_W@Z 000000018000e248 f i libucrt:output.obj
 0001:0000d248       ?type_case_c_tchar@?$output_processor@_WV?$string_output_adapter@_W@__crt_stdio_output@@V?$standard_base@_WV?$string_output_adapter@_W@__crt_stdio_output@@@2@@__crt_stdio_output@@AEAA_N_W@Z 000000018000e248 f i libucrt:output.obj
 0001:0000d2f0       ?type_case_integer@?$output_processor@DV?$string_output_adapter@D@__crt_stdio_output@@V?$format_validation_base@DV?$string_output_adapter@D@__crt_stdio_output@@@2@@__crt_stdio_output@@AEAA_NI_N@Z 000000018000e2f0 f i libucrt:output.obj
 0001:0000d4b8       ?type_case_integer@?$output_processor@_WV?$stream_output_adapter@_W@__crt_stdio_output@@V?$standard_base@_WV?$stream_output_adapter@_W@__crt_stdio_output@@@2@@__crt_stdio_output@@AEAA_NI_N@Z 000000018000e4b8 f i libucrt:output.obj
 0001:0000d4b8       ?type_case_integer@?$output_processor@_WV?$string_output_adapter@_W@__crt_stdio_output@@V?$standard_base@_WV?$string_output_adapter@_W@__crt_stdio_output@@@2@@__crt_stdio_output@@AEAA_NI_N@Z 000000018000e4b8 f i libucrt:output.obj
 0001:0000d684       ?type_case_n@?$output_processor@_WV?$stream_output_adapter@_W@__crt_stdio_output@@V?$standard_base@_WV?$stream_output_adapter@_W@__crt_stdio_output@@@2@@__crt_stdio_output@@AEAA_NXZ 000000018000e684 f i libucrt:output.obj
 0001:0000d684       ?type_case_n@?$output_processor@DV?$string_output_adapter@D@__crt_stdio_output@@V?$format_validation_base@DV?$string_output_adapter@D@__crt_stdio_output@@@2@@__crt_stdio_output@@AEAA_NXZ 000000018000e684 f i libucrt:output.obj
 0001:0000d684       ?type_case_n@?$output_processor@_WV?$string_output_adapter@_W@__crt_stdio_output@@V?$standard_base@_WV?$string_output_adapter@_W@__crt_stdio_output@@@2@@__crt_stdio_output@@AEAA_NXZ 000000018000e684 f i libucrt:output.obj
 0001:0000d760       ?type_case_s@?$output_processor@DV?$string_output_adapter@D@__crt_stdio_output@@V?$format_validation_base@DV?$string_output_adapter@D@__crt_stdio_output@@@2@@__crt_stdio_output@@AEAA_NXZ 000000018000e760 f i libucrt:output.obj
 0001:0000d7f8       ?type_case_s@?$output_processor@_WV?$string_output_adapter@_W@__crt_stdio_output@@V?$standard_base@_WV?$string_output_adapter@_W@__crt_stdio_output@@@2@@__crt_stdio_output@@AEAA_NXZ 000000018000e7f8 f i libucrt:output.obj
 0001:0000d7f8       ?type_case_s@?$output_processor@_WV?$stream_output_adapter@_W@__crt_stdio_output@@V?$standard_base@_WV?$stream_output_adapter@_W@__crt_stdio_output@@@2@@__crt_stdio_output@@AEAA_NXZ 000000018000e7f8 f i libucrt:output.obj
 0001:0000d8bc       ?write_stored_string_tchar@?$output_processor@DV?$string_output_adapter@D@__crt_stdio_output@@V?$format_validation_base@DV?$string_output_adapter@D@__crt_stdio_output@@@2@@__crt_stdio_output@@AEAA_ND@Z 000000018000e8bc f i libucrt:output.obj
 0001:0000d994       ?write_stored_string_tchar@?$output_processor@_WV?$stream_output_adapter@_W@__crt_stdio_output@@V?$standard_base@_WV?$stream_output_adapter@_W@__crt_stdio_output@@@2@@__crt_stdio_output@@AEAA_N_W@Z 000000018000e994 f i libucrt:output.obj
 0001:0000da9c       ?write_stored_string_tchar@?$output_processor@_WV?$string_output_adapter@_W@__crt_stdio_output@@V?$standard_base@_WV?$string_output_adapter@_W@__crt_stdio_output@@@2@@__crt_stdio_output@@AEAA_N_W@Z 000000018000ea9c f i libucrt:output.obj
 0001:0000db88       ?write_string@?$string_output_adapter@D@__crt_stdio_output@@QEBAXQEBDHQEAHAEAV__crt_deferred_errno_cache@@@Z 000000018000eb88 f i libucrt:output.obj
 0001:0000dc2c       ?write_string@?$string_output_adapter@_W@__crt_stdio_output@@QEBAXQEB_WHQEAHAEAV__crt_deferred_errno_cache@@@Z 000000018000ec2c f i libucrt:output.obj
 0001:0000dcd4       ?write_string_impl@?$output_adapter_common@_WV?$stream_output_adapter@_W@__crt_stdio_output@@@__crt_stdio_output@@IEBAXQEB_WHQEAHAEAV__crt_deferred_errno_cache@@@Z 000000018000ecd4 f i libucrt:output.obj
 0001:0000ddd8       __stdio_common_vfwprintf   000000018000edd8 f   libucrt:output.obj
 0001:0000de64       __stdio_common_vsnprintf_s 000000018000ee64 f   libucrt:output.obj
 0001:0000df98       __stdio_common_vswprintf   000000018000ef98 f   libucrt:output.obj
 0001:0000dfb0       strncpy                    000000018000efb0 f   libucrt:strncpy.obj
 0001:0000e114       __ascii_stricmp            000000018000f114 f   libucrt:stricmp.obj
 0001:0000e154       _stricmp                   000000018000f154 f   libucrt:stricmp.obj
 0001:0000e19c       _stricmp_l                 000000018000f19c f   libucrt:stricmp.obj
 0001:0000e250       __acrt_initialize_new_handler 000000018000f250 f   libucrt:new_handler.obj
 0001:0000e258       _callnewh                  000000018000f258 f   libucrt:new_handler.obj
 0001:0000e288       _query_new_handler         000000018000f288 f   libucrt:new_handler.obj
 0001:0000e2bc       _seh_filter_dll            000000018000f2bc f   libucrt:exception_filter.obj
 0001:0000e2d0       _seh_filter_exe            000000018000f2d0 f   libucrt:exception_filter.obj
 0001:0000e6c8       __acrt_initialize_thread_local_exit_callback 000000018000f6c8 f   libucrt:exit.obj
 0001:0000e6d0       _cexit                     000000018000f6d0 f   libucrt:exit.obj
 0001:0000e6e0       _exit                      000000018000f6e0 f   libucrt:exit.obj
 0001:0000e6ec       _is_c_termination_complete 000000018000f6ec f   libucrt:exit.obj
 0001:0000e8b8       __acrt_allocate_buffer_for_argv 000000018000f8b8 f   libucrt:argv_parsing.obj
 0001:0000e918       _configure_narrow_argv     000000018000f918 f   libucrt:argv_parsing.obj
 0001:0000ec90       __dcrt_uninitialize_environments_nolock 000000018000fc90 f   libucrt:environment_initialization.obj
 0001:0000ecc8       _initialize_narrow_environment 000000018000fcc8 f   libucrt:environment_initialization.obj
 0001:0000f058       _crt_atexit                0000000180010058 f   libucrt:onexit.obj
 0001:0000f068       _execute_onexit_table      0000000180010068 f   libucrt:onexit.obj
 0001:0000f0a4       _initialize_onexit_table   00000001800100a4 f   libucrt:onexit.obj
 0001:0000f0e4       _register_onexit_function  00000001800100e4 f   libucrt:onexit.obj
 0001:0000f164       __acrt_uninitialize_command_line 0000000180010164 f   libucrt:argv_data.obj
 0001:0000f270       __acrt_initialize          0000000180010270 f   libucrt:initialization.obj
 0001:0000f284       __acrt_thread_attach       0000000180010284 f   libucrt:initialization.obj
 0001:0000f298       __acrt_thread_detach       0000000180010298 f   libucrt:initialization.obj
 0001:0000f2a8       __acrt_uninitialize        00000001800102a8 f   libucrt:initialization.obj
 0001:0000f2e0       __acrt_uninitialize_critical 00000001800102e0 f   libucrt:initialization.obj
 0001:0000f2f0       _initterm                  00000001800102f0 f   libucrt:initterm.obj
 0001:0000f354       _initterm_e                0000000180010354 f   libucrt:initterm.obj
 0001:0000f394       terminate                  0000000180010394 f   libucrt:terminate.obj
 0001:0000f3b4       __ascii_strnicmp           00000001800103b4 f   libucrt:strnicmp.obj
 0001:0000f410       _strnicmp                  0000000180010410 f   libucrt:strnicmp.obj
 0001:0000f410       strnicmp                   0000000180010410 f   libucrt:strnicmp.obj
 0001:0000f460       _strnicmp_l                0000000180010460 f   libucrt:strnicmp.obj
 0001:0000f53c       _strdup                    000000018001053c f   libucrt:strdup.obj
 0001:0000f53c       strdup                     000000018001053c f   libucrt:strdup.obj
 0001:0000f5b4       strcpy_s                   00000001800105b4 f   libucrt:strcpy_s.obj
 0001:0000f624       abort                      0000000180010624 f   libucrt:abort.obj
 0001:0000f67c       calloc                     000000018001067c f   libucrt:calloc.obj
 0001:0000f684       wcsncmp                    0000000180010684 f   libucrt:wcsncmp.obj
 0001:0000f6b0       ??$parse_integer@KV?$c_string_character_source@D@__crt_strtox@@@__crt_strtox@@YAKQEAU__crt_locale_pointers@@V?$c_string_character_source@D@0@H_N@Z 00000001800106b0 f i libucrt:atox.obj
 0001:0000f9ec       ??$parse_integer@KV?$c_string_character_source@_W@__crt_strtox@@@__crt_strtox@@YAKQEAU__crt_locale_pointers@@V?$c_string_character_source@_W@0@H_N@Z 00000001800109ec f i libucrt:atox.obj
 0001:000100b0       strncmp                    00000001800110b0 f   libucrt:strncmp.obj
 0001:00010130       _free_base                 0000000180011130 f   libucrt:free_base.obj
 0001:00010170       _query_app_type            0000000180011170 f   libucrt:report_runtime_error.obj
 0001:00010178       __acrt_errno_from_os_error 0000000180011178 f   libucrt:errno.obj
 0001:000101c0       __acrt_errno_map_os_error  00000001800111c0 f   libucrt:errno.obj
 0001:00010210       __doserrno                 0000000180011210 f   libucrt:errno.obj
 0001:00010230       _errno                     0000000180011230 f   libucrt:errno.obj
 0001:00010380       _itow_s                    0000000180011380 f   libucrt:xtoa.obj
 0001:000103a0       _set_error_mode            00000001800113a0 f   libucrt:set_error_mode.obj
 0001:000103e0       wcscat_s                   00000001800113e0 f   libucrt:wcscat_s.obj
 0001:0001046c       wcscpy_s                   000000018001146c f   libucrt:wcscpy_s.obj
 0001:000104e4       wcsncat_s                  00000001800114e4 f   libucrt:wcsncat_s.obj
 0001:000105f8       __acrt_GetModuleFileNameA  00000001800115f8 f   libucrt:getmodulefilenamea.obj
 0001:00010674       __acrt_show_wide_message_box 0000000180011674 f   libucrt:crtmbox.obj
 0001:00010718       __acrt_initialize_stdio    0000000180011718 f   libucrt:_file.obj
 0001:00010838       __acrt_iob_func            0000000180011838 f   libucrt:_file.obj
 0001:0001084c       __acrt_uninitialize_stdio  000000018001184c f   libucrt:_file.obj
 0001:000108a8       _lock_file                 00000001800118a8 f   libucrt:_file.obj
 0001:000108b4       _unlock_file               00000001800118b4 f   libucrt:_file.obj
 0001:00010adc       __acrt_stdio_flush_nolock  0000000180011adc f   libucrt:fflush.obj
 0001:00010b58       _fflush_nolock             0000000180011b58 f   libucrt:fflush.obj
 0001:00010ba4       _flushall                  0000000180011ba4 f   libucrt:fflush.obj
 0001:00010bac       fflush                     0000000180011bac f   libucrt:fflush.obj
 0001:00010d44       setvbuf                    0000000180011d44 f   libucrt:setvbuf.obj
 0001:00010e28       __acrt_get_sigabrt_handler 0000000180011e28 f   libucrt:signal.obj
 0001:00010e58       __acrt_initialize_signal_handlers 0000000180011e58 f   libucrt:signal.obj
 0001:00010e78       raise                      0000000180011e78 f   libucrt:signal.obj
 0001:00011470       __acrt_freeptd             0000000180012470 f   libucrt:per_thread_data.obj
 0001:000114b4       __acrt_getptd              00000001800124b4 f   libucrt:per_thread_data.obj
 0001:00011578       __acrt_getptd_head         0000000180012578 f   libucrt:per_thread_data.obj
 0001:00011620       __acrt_getptd_noexit       0000000180012620 f   libucrt:per_thread_data.obj
 0001:000116d8       __acrt_initialize_ptd      00000001800126d8 f   libucrt:per_thread_data.obj
 0001:00011714       __acrt_uninitialize_ptd    0000000180012714 f   libucrt:per_thread_data.obj
 0001:00011738       _malloc_base               0000000180012738 f   libucrt:malloc_base.obj
 0001:00011798       isdigit                    0000000180012798 f i libucrt:_ctype.obj
 0001:00011860       _tolower_l                 0000000180012860 f   libucrt:tolower_toupper.obj
 0001:000119a0       tolower                    00000001800129a0 f   libucrt:tolower_toupper.obj
 0001:000119cc       strtol                     00000001800129cc f   libucrt:strtox.obj
 0001:000119f8       wcstol                     00000001800129f8 f   libucrt:strtox.obj
 0001:00011a24       _mbtowc_l                  0000000180012a24 f   libucrt:mbtowc.obj
 0001:00011ba0       mbtowc                     0000000180012ba0 f   libucrt:mbtowc.obj
 0001:00011ba8       _wctomb_s_l                0000000180012ba8 f   libucrt:wctomb.obj
 0001:00011d2c       wctomb_s                   0000000180012d2c f   libucrt:wctomb.obj
 0001:00011d40       strnlen                    0000000180012d40 f   libucrt:strnlen.obj
 0001:00011e90       wcsnlen                    0000000180012e90 f   libucrt:strnlen.obj
 0001:00012068       __acrt_update_locale_info  0000000180013068 f   libucrt:locale_update.obj
 0001:0001209c       __acrt_update_multibyte_info 000000018001309c f   libucrt:locale_update.obj
 0001:00012aa0       __acrt_fp_format           0000000180013aa0 f   libucrt:cvt.obj
 0001:00012d28       _fputwc_nolock             0000000180013d28 f   libucrt:fputwc.obj
 0001:00012ea0       _fileno                    0000000180013ea0 f   libucrt:fileno.obj
 0001:00012ec8       _fputc_nolock              0000000180013ec8 f   libucrt:fputc.obj
 0001:00012ee0       _get_printf_count_output   0000000180013ee0 f   libucrt:printf_count_output.obj
 0001:00012ef8       __acrt_stdio_begin_temporary_buffering_nolock 0000000180013ef8 f   libucrt:_sftbuf.obj
 0001:00012fc8       __acrt_stdio_end_temporary_buffering_nolock 0000000180013fc8 f   libucrt:_sftbuf.obj
 0001:00013074       __acrt_set_locale_changed  0000000180014074 f   libucrt:wsetlocale.obj
 0001:00013080       __acrt_uninitialize_locale 0000000180014080 f   libucrt:wsetlocale.obj
 0001:00013298       __acrt_initialize_lowio    0000000180014298 f   libucrt:ioinit.obj
 0001:000132d4       __acrt_uninitialize_lowio  00000001800142d4 f   libucrt:ioinit.obj
 0001:00013314       __acrt_initialize_locks    0000000180014314 f   libucrt:locks.obj
 0001:0001335c       __acrt_lock                000000018001435c f   libucrt:locks.obj
 0001:00013378       __acrt_uninitialize_locks  0000000180014378 f   libucrt:locks.obj
 0001:000133b0       __acrt_unlock              00000001800143b0 f   libucrt:locks.obj
 0001:000133cc       __acrt_get_developer_information_policy 00000001800143cc f   libucrt:win_policies.obj
 0001:00013420       __acrt_get_process_end_policy 0000000180014420 f   libucrt:win_policies.obj
 0001:0001345c       __acrt_get_windowing_model_policy 000000018001445c f   libucrt:win_policies.obj
 0001:000134c8       _calloc_base               00000001800144c8 f   libucrt:calloc_base.obj
 0001:00013aa8       __acrt_expand_narrow_argv_wildcards 0000000180014aa8 f   libucrt:argv_wildcards.obj
 0001:000141dc       __acrt_initialize_multibyte 00000001800151dc f   libucrt:mbctype.obj
 0001:0001423c       __acrt_update_thread_multibyte_data 000000018001523c f   libucrt:mbctype.obj
 0001:00014258       _setmbcp_nolock            0000000180015258 f   libucrt:mbctype.obj
 0001:00014588       _ismbblead                 0000000180015588 f   libucrt:ismbbyte.obj
 0001:0001459c       __acrt_initialize_command_line 000000018001559c f   libucrt:argv_data.obj
 0001:000145c4       __acrt_MultiByteToWideChar 00000001800155c4 f   libucrt:multibytetowidechar.obj
 0001:00014620       __acrt_WideCharToMultiByte 0000000180015620 f   libucrt:widechartomultibyte.obj
 0001:000146b8       __dcrt_get_narrow_environment_from_os 00000001800156b8 f   libucrt:get_environment_from_os.obj
 0001:000147bc       _recalloc                  00000001800157bc f   libucrt:recalloc.obj
 0001:000147c4       _recalloc_base             00000001800157c4 f   libucrt:recalloc.obj
 0001:00014a34       __acrt_AppPolicyGetProcessTerminationMethodInternal 0000000180015a34 f   libucrt:winapi_thunks.obj
 0001:00014a84       __acrt_AppPolicyGetShowDeveloperDiagnosticInternal 0000000180015a84 f   libucrt:winapi_thunks.obj
 0001:00014ad4       __acrt_AppPolicyGetWindowingModelInternal 0000000180015ad4 f   libucrt:winapi_thunks.obj
 0001:00014b24       __acrt_FlsAlloc            0000000180015b24 f   libucrt:winapi_thunks.obj
 0001:00014b6c       __acrt_FlsFree             0000000180015b6c f   libucrt:winapi_thunks.obj
 0001:00014bb4       __acrt_FlsGetValue         0000000180015bb4 f   libucrt:winapi_thunks.obj
 0001:00014bfc       __acrt_FlsSetValue         0000000180015bfc f   libucrt:winapi_thunks.obj
 0001:00014c50       __acrt_InitializeCriticalSectionEx 0000000180015c50 f   libucrt:winapi_thunks.obj
 0001:00014cb4       __acrt_LCMapStringEx       0000000180015cb4 f   libucrt:winapi_thunks.obj
 0001:00014d90       __acrt_LocaleNameToLCID    0000000180015d90 f   libucrt:winapi_thunks.obj
 0001:00014de0       __acrt_MessageBoxW         0000000180015de0 f   libucrt:winapi_thunks.obj
 0001:00014e54       __acrt_can_show_message_box 0000000180015e54 f   libucrt:winapi_thunks.obj
 0001:00014ec4       __acrt_get_parent_window   0000000180015ec4 f   libucrt:winapi_thunks.obj
 0001:00014f40       __acrt_initialize_winapi_thunks 0000000180015f40 f   libucrt:winapi_thunks.obj
 0001:00014f88       __acrt_is_interactive      0000000180015f88 f   libucrt:winapi_thunks.obj
 0001:00015050       __acrt_uninitialize_winapi_thunks 0000000180016050 f   libucrt:winapi_thunks.obj
 0001:00015094       __acrt_initialize_heap     0000000180016094 f   libucrt:heap_handle.obj
 0001:000150b0       __acrt_uninitialize_heap   00000001800160b0 f   libucrt:heap_handle.obj
 0001:000150bc       __acrt_execute_initializers 00000001800160bc f   libucrt:shared_initialization.obj
 0001:0001513c       __acrt_execute_uninitializers 000000018001613c f   libucrt:shared_initialization.obj
 0001:00015178       __acrt_has_user_matherr    0000000180016178 f   libucrt:matherr.obj
 0001:00015198       __acrt_initialize_user_matherr 0000000180016198 f   libucrt:matherr.obj
 0001:000151a0       __acrt_invoke_user_matherr 00000001800161a0 f   libucrt:matherr.obj
 0001:000151d0       __pctype_func              00000001800161d0 f   libucrt:ctype.obj
 0001:00015200       iswctype                   0000000180016200 f   libucrt:iswctype.obj
 0001:00015270       _isctype_l                 0000000180016270 f   libucrt:isctype.obj
 0001:00015588       _mbstowcs_l                0000000180016588 f   libucrt:mbstowcs.obj
 0001:00015590       mbstowcs                   0000000180016590 f   libucrt:mbstowcs.obj
 0001:000155ac       _fcloseall                 00000001800165ac f   libucrt:closeall.obj
 0001:00015660       __acrt_stdio_free_buffer_nolock 0000000180016660 f   libucrt:_freebuf.obj
 0001:0001572c       _commit                    000000018001672c f   libucrt:commit.obj
 0001:00015d68       _write                     0000000180016d68 f   libucrt:write.obj
 0001:00015e54       _write_nolock              0000000180016e54 f   libucrt:write.obj
 0001:00016134       __acrt_add_locale_ref      0000000180017134 f   libucrt:locale_refcounting.obj
 0001:000161c0       __acrt_free_locale         00000001800171c0 f   libucrt:locale_refcounting.obj
 0001:00016338       __acrt_locale_add_lc_time_reference 0000000180017338 f   libucrt:locale_refcounting.obj
 0001:00016360       __acrt_locale_free_lc_time_if_unreferenced 0000000180017360 f   libucrt:locale_refcounting.obj
 0001:00016398       __acrt_locale_release_lc_time_reference 0000000180017398 f   libucrt:locale_refcounting.obj
 0001:000163c0       __acrt_release_locale_ref  00000001800173c0 f   libucrt:locale_refcounting.obj
 0001:00016468       __acrt_update_thread_locale_data 0000000180017468 f   libucrt:locale_refcounting.obj
 0001:000164d8       _updatetlocinfoEx_nolock   00000001800174d8 f   libucrt:locale_refcounting.obj
 0001:00016540       _query_new_mode            0000000180017540 f   libucrt:new_mode.obj
 0001:00016548       _isleadbyte_l              0000000180017548 f i libucrt:_wctype.obj
 0001:000168a0       __acrt_LCMapStringA        00000001800178a0 f   libucrt:lcmapstringa.obj
 0001:00016938       ?__mbrtowc_utf8@__crt_mbstring@@YA_KPEA_WPEBD_KPEAU_Mbstatet@@@Z 0000000180017938 f   libucrt:mbrtowc.obj
 0001:00016974       ?__mbsrtowcs_utf8@__crt_mbstring@@YA_KPEA_WPEAPEBD_KPEAU_Mbstatet@@@Z 0000000180017974 f   libucrt:mbrtowc.obj
 0001:00016aec       __acrt_fp_strflt_to_string 0000000180017aec f   libucrt:_fptostr.obj
 0001:00016bd0       ?divide@__crt_strtox@@YA_KAEAUbig_integer@1@AEBU21@@Z 0000000180017bd0 f i libucrt:cfout.obj
 0001:00017060       __acrt_fltout              0000000180018060 f   libucrt:cfout.obj
 0001:00018584       __acrt_stdio_flush_and_write_narrow_nolock 0000000180019584 f   libucrt:_flsbuf.obj
 0001:0001866c       __acrt_stdio_flush_and_write_wide_nolock 000000018001966c f   libucrt:_flsbuf.obj
 0001:00018758       _isatty                    0000000180019758 f   libucrt:isatty.obj
 0001:000187b8       __acrt_locale_free_monetary 00000001800197b8 f   libucrt:initmon.obj
 0001:000188c4       __acrt_locale_free_numeric 00000001800198c4 f   libucrt:initnum.obj
 0001:00018984       __acrt_locale_free_time    0000000180019984 f   libucrt:inittime.obj
 0001:00018a8c       __acrt_GetStringTypeA      0000000180019a8c f   libucrt:getstringtypea.obj
 0001:00018c1c       __acrt_lowio_create_handle_array 0000000180019c1c f   libucrt:osfinfo.obj
 0001:00018cb4       __acrt_lowio_destroy_handle_array 0000000180019cb4 f   libucrt:osfinfo.obj
 0001:00018d04       __acrt_lowio_ensure_fh_exists 0000000180019d04 f   libucrt:osfinfo.obj
 0001:00018dac       __acrt_lowio_lock_fh       0000000180019dac f   libucrt:osfinfo.obj
 0001:00018dd0       __acrt_lowio_unlock_fh     0000000180019dd0 f   libucrt:osfinfo.obj
 0001:00018df4       _free_osfhnd               0000000180019df4 f   libucrt:osfinfo.obj
 0001:00018eb0       _get_osfhandle             0000000180019eb0 f   libucrt:osfinfo.obj
 0001:00018f30       qsort                      0000000180019f30 f   libucrt:qsort.obj
 0001:00019380       strpbrk                    000000018001a380 f   libucrt:strpbrk.obj
 0001:00019760       ??$__acrt_convert_wcs_mbs@D_W$$A6A_KPEA_WPEBD_KPEAU__crt_locale_pointers@@@ZU__crt_win32_buffer_internal_dynamic_resizing@@@@YAHQEBDAEAV?$__crt_win32_buffer@_WU__crt_win32_buffer_internal_dynamic_resizing@@@@A6A_KPEA_WPEBD_KPEAU__crt_locale_pointers@@@Z5@Z 000000018001a760 f i libucrt:findfirstfileexa.obj
 0001:00019868       __acrt_FindFirstFileExA    000000018001a868 f   libucrt:findfirstfileexa.obj
 0001:0001990c       ??$__acrt_convert_wcs_mbs@_WD$$A6A_KPEADPEB_W_KPEAU__crt_locale_pointers@@@ZU__crt_win32_buffer_no_resizing@@@@YAHQEB_WAEAV?$__crt_win32_buffer@DU__crt_win32_buffer_no_resizing@@@@A6A_KPEADPEB_W_KPEAU__crt_locale_pointers@@@Z5@Z 000000018001a90c f i libucrt:findnextfilea.obj
 0001:000199d8       __acrt_FindNextFileA       000000018001a9d8 f   libucrt:findnextfilea.obj
 0001:00019b0c       _mbsdec                    000000018001ab0c f   libucrt:mbsdec.obj
 0001:00019b14       _mbsdec_l                  000000018001ab14 f   libucrt:mbsdec.obj
 0001:00019bc0       _msize                     000000018001abc0 f   libucrt:msize.obj
 0001:00019bc8       _msize_base                000000018001abc8 f   libucrt:msize.obj
 0001:00019c04       _realloc_base              000000018001ac04 f   libucrt:realloc_base.obj
 0001:00019d68       __acrt_DownlevelLocaleNameToLCID 000000018001ad68 f   libucrt:lcidtoname_downlevel.obj
 0001:00019d9c       __acrt_GetStringTypeW      000000018001ad9c f   libucrt:getstringtypew.obj
 0001:00019da4       _fclose_nolock             000000018001ada4 f   libucrt:fclose.obj
 0001:00019e28       fclose                     000000018001ae28 f   libucrt:fclose.obj
 0001:0001a018       _lseeki64                  000000018001b018 f   libucrt:lseek.obj
 0001:0001a020       _lseeki64_nolock           000000018001b020 f   libucrt:lseek.obj
 0001:0001a028       _putwch_nolock             000000018001b028 f   libucrt:putwch.obj
 0001:0001a064       __strncnt                  000000018001b064 f   libucrt:strncnt.obj
 0001:0001a07c       ?__mbrtoc32_utf8@__crt_mbstring@@YA_KPEA_UPEBD_KPEAU_Mbstatet@@@Z 000000018001b07c f   libucrt:mbrtoc32.obj
 0001:0001a258       fegetenv                   000000018001b258 f   libucrt:fegetenv.obj
 0001:0001a278       fesetenv                   000000018001b278 f   libucrt:fesetenv.obj
 0001:0001a2c8       feholdexcept               000000018001b2c8 f   libucrt:feholdexcept.obj
 0001:0001a318       ceil                       000000018001b318 f   libucrt:ceil.obj
 0001:0001a3e0       log10                      000000018001b3e0 f   libucrt:log10.obj
 0001:0001a98c       __acrt_stdio_allocate_buffer_nolock 000000018001b98c f   libucrt:_getbuf.obj
 0001:0001ad5c       _wcstombs_l                000000018001bd5c f   libucrt:wcstombs.obj
 0001:0001add8       _close                     000000018001bdd8 f   libucrt:close.obj
 0001:0001ae7c       _close_nolock              000000018001be7c f   libucrt:close.obj
 0001:0001af38       ?__acrt_stdio_free_stream@@YAXV__crt_stdio_stream@@@Z 000000018001bf38 f   libucrt:stream.obj
 0001:0001af54       __dcrt_lowio_ensure_console_output_initialized 000000018001bf54 f   libucrt:initcon.obj
 0001:0001afa8       __dcrt_terminate_console_output 000000018001bfa8 f   libucrt:initcon.obj
 0001:0001afc4       __dcrt_write_console       000000018001bfc4 f   libucrt:initcon.obj
 0001:0001b084       __acrt_fenv_get_control    000000018001c084 f   libucrt:_fenvutils.obj
 0001:0001b184       __acrt_fenv_get_status     000000018001c184 f   libucrt:_fenvutils.obj
 0001:0001b1dc       __acrt_fenv_set_control    000000018001c1dc f   libucrt:_fenvutils.obj
 0001:0001b324       __acrt_fenv_set_status     000000018001c324 f   libucrt:_fenvutils.obj
 0001:0001b3a8       _clearfp                   000000018001c3a8 f   libucrt:ieee.obj
 0001:0001b53c       _handle_error              000000018001c53c f   libucrt:libm_error.obj
 0001:0001b664       _handle_nan                000000018001c664 f   libucrt:libm_error.obj
 0001:0001b680       __acrt_initialize_fma3     000000018001c680 f   libucrt:fma3_available.obj
 0001:0001b6f0       _log10_special             000000018001c6f0 f   libucrt:log_special.obj
 0001:0001b7a8       ?__wcsrtombs_utf8@__crt_mbstring@@YA_KPEADPEAPEB_W_KPEAU_Mbstatet@@@Z 000000018001c7a8 f   libucrt:wcrtomb.obj
 0001:0001b8e0       _get_fpsr                  000000018001c8e0 f   libucrt:fpsr.obj
 0001:0001b8f0       _set_fpsr                  000000018001c8f0 f   libucrt:fpsr.obj
 0001:0001b8fa       _fclrf                     000000018001c8fa f   libucrt:fpsr.obj
 0001:0001b90e       _frnd                      000000018001c90e f   libucrt:fpsr.obj
 0001:0001b930       _raise_exc                 000000018001c930 f   libucrt:fpexcept.obj
 0001:0001b958       _raise_exc_ex              000000018001c958 f   libucrt:fpexcept.obj
 0001:0001bc68       _set_errno_from_matherr    000000018001cc68 f   libucrt:fpexcept.obj
 0001:0001bc98       _clrfp                     000000018001cc98 f   libucrt:fpctrl.obj
 0001:0001bcb8       _ctrlfp                    000000018001ccb8 f   libucrt:fpctrl.obj
 0001:0001bd34       _set_statfp                000000018001cd34 f   libucrt:fpctrl.obj
 0001:0001bd54       _statfp                    000000018001cd54 f   libucrt:fpctrl.obj
 0001:0001bd68       ?__c16rtomb_utf8@__crt_mbstring@@YA_KPEAD_SPEAU_Mbstatet@@@Z 000000018001cd68 f   libucrt:c16rtomb.obj
 0001:0001be10       ?__c32rtomb_utf8@__crt_mbstring@@YA_KPEAD_UPEAU_Mbstatet@@@Z 000000018001ce10 f   libucrt:c32rtomb.obj
 0001:0001bec8       c32rtomb                   000000018001cec8 f   libucrt:c32rtomb.obj
 0001:0001becd       IsProcessorFeaturePresent  000000018001cecd f   kernel32:KERNEL32.dll
 0001:0001bed4       ?DloadAcquireSectionWriteAccess@@YAXXZ 000000018001ced4 f i DelayImp:delayhlp.obj
 0001:0001bf80       ?DloadGetSRWLockFunctionPointers@@YAEXZ 000000018001cf80 f i DelayImp:delayhlp.obj
 0001:0001c01c       ?DloadMakePermanentImageCommit@@YAXPEAX_K@Z 000000018001d01c f i DelayImp:delayhlp.obj
 0001:0001c0b4       ?DloadObtainSection@@YAPEAXPEAK0@Z 000000018001d0b4 f i DelayImp:delayhlp.obj
 0001:0001c150       ?DloadProtectSection@@YAXKPEAK@Z 000000018001d150 f i DelayImp:delayhlp.obj
 0001:0001c1e0       ?DloadReleaseSectionWriteAccess@@YAXXZ 000000018001d1e0 f i DelayImp:delayhlp.obj
 0001:0001c274       __delayLoadHelper2         000000018001d274 f   DelayImp:delayhlp.obj
 0001:0001c534       __GSHandlerCheck           000000018001d534 f   LIBCMT:_gshandler_.obj
 0001:0001c554       __GSHandlerCheckCommon     000000018001d554 f   LIBCMT:_gshandler_.obj
 0001:0001c5b0       _FindPESection             000000018001d5b0 f   LIBCMT:pesect.obj
 0001:0001c600       _IsNonwritableInCurrentImage 000000018001d600 f   LIBCMT:pesect.obj
 0001:0001c650       _ValidateImageBase         000000018001d650 f   LIBCMT:pesect.obj
 0001:0001c690       _alloca_probe              000000018001d690 f   LIBCMT:_chkstk_.obj
 0001:0001c690       __chkstk                   000000018001d690 f   LIBCMT:_chkstk_.obj
 0001:0001c6e4       __GSHandlerCheck_EH        000000018001d6e4 f   LIBCMT:gshandlereh.obj
 0001:0001c764       strrchr                    000000018001d764 f   libvcruntime:strrchr.obj
 0001:0001c8c0       memcmp                     000000018001d8c0 f   libvcruntime:memcmp.obj
 0001:0001c9a0       _guard_dispatch_icall_nop  000000018001d9a0 f   LIBCMT:_guard_dispatch_.obj
 0002:00000000       __imp_RegQueryValueExA     000000018001f000     advapi32:ADVAPI32.dll
 0002:00000008       __imp_RegCloseKey          000000018001f008     advapi32:ADVAPI32.dll
 0002:00000010       \177ADVAPI32_NULL_THUNK_DATA 000000018001f010     advapi32:ADVAPI32.dll
 0002:00000018       __imp_GetCommModemStatus   000000018001f018     kernel32:KERNEL32.dll
 0002:00000020       __imp_WriteFileEx          000000018001f020     kernel32:KERNEL32.dll
 0002:00000028       __imp_WaitForSingleObject  000000018001f028     kernel32:KERNEL32.dll
 0002:00000030       __imp_GetCommMask          000000018001f030     kernel32:KERNEL32.dll
 0002:00000038       __imp_ExitThread           000000018001f038     kernel32:KERNEL32.dll
 0002:00000040       __imp_GetLastError         000000018001f040     kernel32:KERNEL32.dll
 0002:00000048       __imp_EscapeCommFunction   000000018001f048     kernel32:KERNEL32.dll
 0002:00000050       __imp_CreateFileA          000000018001f050     kernel32:KERNEL32.dll
 0002:00000058       __imp_LoadLibraryA         000000018001f058     kernel32:KERNEL32.dll
 0002:00000060       __imp_GetCommState         000000018001f060     kernel32:KERNEL32.dll
 0002:00000068       __imp_CloseHandle          000000018001f068     kernel32:KERNEL32.dll
 0002:00000070       __imp_PurgeComm            000000018001f070     kernel32:KERNEL32.dll
 0002:00000078       __imp_CreateThread         000000018001f078     kernel32:KERNEL32.dll
 0002:00000080       __imp_GetOverlappedResult  000000018001f080     kernel32:KERNEL32.dll
 0002:00000088       __imp_SetCommMask          000000018001f088     kernel32:KERNEL32.dll
 0002:00000090       __imp_GetProcAddress       000000018001f090     kernel32:KERNEL32.dll
 0002:00000098       __imp_SleepEx              000000018001f098     kernel32:KERNEL32.dll
 0002:000000a0       __imp_CreateEventA         000000018001f0a0     kernel32:KERNEL32.dll
 0002:000000a8       __imp_SetCommTimeouts      000000018001f0a8     kernel32:KERNEL32.dll
 0002:000000b0       __imp_SetCommState         000000018001f0b0     kernel32:KERNEL32.dll
 0002:000000b8       __imp_FlushFileBuffers     000000018001f0b8     kernel32:KERNEL32.dll
 0002:000000c0       __imp_GetModuleHandleA     000000018001f0c0     kernel32:KERNEL32.dll
 0002:000000c8       __imp_LoadLibraryExA       000000018001f0c8     kernel32:KERNEL32.dll
 0002:000000d0       __imp_SetLastError         000000018001f0d0     kernel32:KERNEL32.dll
 0002:000000d8       __imp_ReadFileEx           000000018001f0d8     kernel32:KERNEL32.dll
 0002:000000e0       __imp_ReadFile             000000018001f0e0     kernel32:KERNEL32.dll
 0002:000000e8       __imp_VirtualQuery         000000018001f0e8     kernel32:KERNEL32.dll
 0002:000000f0       __imp_VirtualProtect       000000018001f0f0     kernel32:KERNEL32.dll
 0002:000000f8       __imp_GetSystemInfo        000000018001f0f8     kernel32:KERNEL32.dll
 0002:00000100       __imp_CreateFileW          000000018001f100     kernel32:KERNEL32.dll
 0002:00000108       __imp_SetFilePointerEx     000000018001f108     kernel32:KERNEL32.dll
 0002:00000110       __imp_HeapReAlloc          000000018001f110     kernel32:KERNEL32.dll
 0002:00000118       __imp_HeapSize             000000018001f118     kernel32:KERNEL32.dll
 0002:00000120       __imp_RtlCaptureContext    000000018001f120     kernel32:KERNEL32.dll
 0002:00000128       __imp_RtlLookupFunctionEntry 000000018001f128     kernel32:KERNEL32.dll
 0002:00000130       __imp_RtlVirtualUnwind     000000018001f130     kernel32:KERNEL32.dll
 0002:00000138       __imp_UnhandledExceptionFilter 000000018001f138     kernel32:KERNEL32.dll
 0002:00000140       __imp_SetUnhandledExceptionFilter 000000018001f140     kernel32:KERNEL32.dll
 0002:00000148       __imp_GetCurrentProcess    000000018001f148     kernel32:KERNEL32.dll
 0002:00000150       __imp_TerminateProcess     000000018001f150     kernel32:KERNEL32.dll
 0002:00000158       __imp_IsProcessorFeaturePresent 000000018001f158     kernel32:KERNEL32.dll
 0002:00000160       __imp_IsDebuggerPresent    000000018001f160     kernel32:KERNEL32.dll
 0002:00000168       __imp_GetStartupInfoW      000000018001f168     kernel32:KERNEL32.dll
 0002:00000170       __imp_GetModuleHandleW     000000018001f170     kernel32:KERNEL32.dll
 0002:00000178       __imp_QueryPerformanceCounter 000000018001f178     kernel32:KERNEL32.dll
 0002:00000180       __imp_GetCurrentProcessId  000000018001f180     kernel32:KERNEL32.dll
 0002:00000188       __imp_GetCurrentThreadId   000000018001f188     kernel32:KERNEL32.dll
 0002:00000190       __imp_GetSystemTimeAsFileTime 000000018001f190     kernel32:KERNEL32.dll
 0002:00000198       __imp_InitializeSListHead  000000018001f198     kernel32:KERNEL32.dll
 0002:000001a0       __imp_RtlUnwindEx          000000018001f1a0     kernel32:KERNEL32.dll
 0002:000001a8       __imp_RtlPcToFileHeader    000000018001f1a8     kernel32:KERNEL32.dll
 0002:000001b0       __imp_RaiseException       000000018001f1b0     kernel32:KERNEL32.dll
 0002:000001b8       __imp_InterlockedFlushSList 000000018001f1b8     kernel32:KERNEL32.dll
 0002:000001c0       __imp_EncodePointer        000000018001f1c0     kernel32:KERNEL32.dll
 0002:000001c8       __imp_EnterCriticalSection 000000018001f1c8     kernel32:KERNEL32.dll
 0002:000001d0       __imp_LeaveCriticalSection 000000018001f1d0     kernel32:KERNEL32.dll
 0002:000001d8       __imp_DeleteCriticalSection 000000018001f1d8     kernel32:KERNEL32.dll
 0002:000001e0       __imp_InitializeCriticalSectionAndSpinCount 000000018001f1e0     kernel32:KERNEL32.dll
 0002:000001e8       __imp_TlsAlloc             000000018001f1e8     kernel32:KERNEL32.dll
 0002:000001f0       __imp_TlsGetValue          000000018001f1f0     kernel32:KERNEL32.dll
 0002:000001f8       __imp_TlsSetValue          000000018001f1f8     kernel32:KERNEL32.dll
 0002:00000200       __imp_TlsFree              000000018001f200     kernel32:KERNEL32.dll
 0002:00000208       __imp_FreeLibrary          000000018001f208     kernel32:KERNEL32.dll
 0002:00000210       __imp_LoadLibraryExW       000000018001f210     kernel32:KERNEL32.dll
 0002:00000218       __imp_GetStdHandle         000000018001f218     kernel32:KERNEL32.dll
 0002:00000220       __imp_GetFileType          000000018001f220     kernel32:KERNEL32.dll
 0002:00000228       __imp_GetModuleFileNameW   000000018001f228     kernel32:KERNEL32.dll
 0002:00000230       __imp_GetModuleHandleExW   000000018001f230     kernel32:KERNEL32.dll
 0002:00000238       __imp_WriteConsoleW        000000018001f238     kernel32:KERNEL32.dll
 0002:00000240       __imp_ExitProcess          000000018001f240     kernel32:KERNEL32.dll
 0002:00000248       __imp_HeapFree             000000018001f248     kernel32:KERNEL32.dll
 0002:00000250       __imp_WriteFile            000000018001f250     kernel32:KERNEL32.dll
 0002:00000258       __imp_OutputDebugStringW   000000018001f258     kernel32:KERNEL32.dll
 0002:00000260       __imp_HeapAlloc            000000018001f260     kernel32:KERNEL32.dll
 0002:00000268       __imp_FindClose            000000018001f268     kernel32:KERNEL32.dll
 0002:00000270       __imp_FindFirstFileExW     000000018001f270     kernel32:KERNEL32.dll
 0002:00000278       __imp_FindNextFileW        000000018001f278     kernel32:KERNEL32.dll
 0002:00000280       __imp_IsValidCodePage      000000018001f280     kernel32:KERNEL32.dll
 0002:00000288       __imp_GetACP               000000018001f288     kernel32:KERNEL32.dll
 0002:00000290       __imp_GetOEMCP             000000018001f290     kernel32:KERNEL32.dll
 0002:00000298       __imp_GetCPInfo            000000018001f298     kernel32:KERNEL32.dll
 0002:000002a0       __imp_GetCommandLineA      000000018001f2a0     kernel32:KERNEL32.dll
 0002:000002a8       __imp_GetCommandLineW      000000018001f2a8     kernel32:KERNEL32.dll
 0002:000002b0       __imp_MultiByteToWideChar  000000018001f2b0     kernel32:KERNEL32.dll
 0002:000002b8       __imp_WideCharToMultiByte  000000018001f2b8     kernel32:KERNEL32.dll
 0002:000002c0       __imp_GetEnvironmentStringsW 000000018001f2c0     kernel32:KERNEL32.dll
 0002:000002c8       __imp_FreeEnvironmentStringsW 000000018001f2c8     kernel32:KERNEL32.dll
 0002:000002d0       __imp_LCMapStringW         000000018001f2d0     kernel32:KERNEL32.dll
 0002:000002d8       __imp_GetProcessHeap       000000018001f2d8     kernel32:KERNEL32.dll
 0002:000002e0       __imp_GetConsoleCP         000000018001f2e0     kernel32:KERNEL32.dll
 0002:000002e8       __imp_GetConsoleMode       000000018001f2e8     kernel32:KERNEL32.dll
 0002:000002f0       __imp_GetStringTypeW       000000018001f2f0     kernel32:KERNEL32.dll
 0002:000002f8       __imp_SetStdHandle         000000018001f2f8     kernel32:KERNEL32.dll
 0002:00000300       \177KERNEL32_NULL_THUNK_DATA 000000018001f300     kernel32:KERNEL32.dll
 0002:00000308       __imp_SetupDiGetDeviceInstanceIdA 000000018001f308     setupapi:SETUPAPI.dll
 0002:00000310       __imp_SetupDiOpenDevRegKey 000000018001f310     setupapi:SETUPAPI.dll
 0002:00000318       __imp_SetupDiGetClassDevsA 000000018001f318     setupapi:SETUPAPI.dll
 0002:00000320       __imp_SetupDiDestroyDeviceInfoList 000000018001f320     setupapi:SETUPAPI.dll
 0002:00000328       __imp_SetupDiEnumDeviceInfo 000000018001f328     setupapi:SETUPAPI.dll
 0002:00000330       __imp_SetupDiGetDeviceRegistryPropertyA 000000018001f330     setupapi:SETUPAPI.dll
 0002:00000338       \177SETUPAPI_NULL_THUNK_DATA 000000018001f338     setupapi:SETUPAPI.dll
 0002:00000340       __guard_check_icall_fptr   000000018001f340     LIBCMT:guard_support.obj
 0002:00000348       __guard_dispatch_icall_fptr 000000018001f348     LIBCMT:guard_support.obj
 0002:00000350       __xc_a                     000000018001f350     LIBCMT:initializers.obj
 0002:00000360       _register_serialport_      000000018001f360     serialport.obj
 0002:00000368       __xc_z                     000000018001f368     LIBCMT:initializers.obj
 0002:00000370       __xi_a                     000000018001f370     LIBCMT:initializers.obj
 0002:00000378       __acrt_stdio_initializer   000000018001f378     libucrt:stdio_initializer.obj
 0002:00000380       __acrt_multibyte_initializer 000000018001f380     libucrt:multibyte_initializer.obj
 0002:00000388       __acrt_tran_fma3_initializer 000000018001f388     libucrt:fma3_initializer.obj
 0002:00000390       __xi_z                     000000018001f390     LIBCMT:initializers.obj
 0002:00000398       __xp_a                     000000018001f398     LIBCMT:initializers.obj
 0002:000003a0       __acrt_locale_terminator   000000018001f3a0     libucrt:locale_initializer.obj
 0002:000003a8       __dcrt_console_output_terminator 000000018001f3a8     libucrt:console_output_initializer.obj
 0002:000003b0       __acrt_stdio_terminator    000000018001f3b0     libucrt:stdio_initializer.obj
 0002:000003b8       __xp_z                     000000018001f3b8     LIBCMT:initializers.obj
 0002:000003c0       __xt_a                     000000018001f3c0     LIBCMT:initializers.obj
 0002:000003c8       __xt_z                     000000018001f3c8     LIBCMT:initializers.obj
 0002:000003d0       GUID_DEVCLASS_PORTS        000000018001f3d0     uuid:cguid_i.obj
 0002:000003e0       __sz_node_exe              000000018001f3e0     node:node.exe
 0002:000003f8       ??_7exception@std@@6B@     000000018001f3f8     libcpmt:xthrow.obj
 0002:00000408       ??_C@_0BC@EOODALEL@Unknown?5exception@ 000000018001f408     libcpmt:xthrow.obj
 0002:00000428       ??_7bad_alloc@std@@6B@     000000018001f428     libcpmt:xthrow.obj
 0002:00000438       ??_C@_0P@GHFPNOJB@bad?5allocation@ 000000018001f438     libcpmt:xthrow.obj
 0002:00000450       ??_7logic_error@std@@6B@   000000018001f450     libcpmt:xthrow.obj
 0002:00000468       ??_7length_error@std@@6B@  000000018001f468     libcpmt:xthrow.obj
 0002:00000488       _pRawDllMain               000000018001f488     LIBCMT:dll_dllmain.obj
 0002:00000488       _pDefaultRawDllMain        000000018001f488     LIBCMT:dll_dllmain.obj
 0002:00000498       ??_7type_info@@6B@         000000018001f498     LIBCMT:std_type_info_static.obj
 0002:000004a8       ??_7bad_array_new_length@std@@6B@ 000000018001f4a8     LIBCMT:throw_bad_alloc.obj
 0002:000004b8       ??_C@_0BF@KINCDENJ@bad?5array?5new?5length@ 000000018001f4b8     LIBCMT:throw_bad_alloc.obj
 0002:000005b8       ??_7bad_exception@std@@6B@ 000000018001f5b8     libvcruntime:frame.obj
 0002:000005c8       ??_C@_0O@DPKOEFFH@bad?5exception@ 000000018001f5c8     libvcruntime:frame.obj
 0002:000005f0       ??_C@_1DM@KHCHBNEB@?$AAa?$AAp?$AAi?$AA?9?$AAm?$AAs?$AA?9?$AAw?$AAi?$AAn?$AA?9?$AAc?$AAo?$AAr?$AAe@ 000000018001f5f0     libvcruntime:winapi_downlevel.obj
 0002:00000630       ??_C@_1DK@LPPGFMPP@?$AAa?$AAp?$AAi?$AA?9?$AAm?$AAs?$AA?9?$AAw?$AAi?$AAn?$AA?9?$AAc?$AAo?$AAr?$AAe@ 000000018001f630     libvcruntime:winapi_downlevel.obj
 0002:00000670       ??_C@_1BC@GDMECMAK@?$AAk?$AAe?$AAr?$AAn?$AAe?$AAl?$AA3?$AA2@ 000000018001f670     libvcruntime:winapi_downlevel.obj
 0002:00000688       ??_C@_1BA@PFFKHIOG@?$AAa?$AAp?$AAi?$AA?9?$AAm?$AAs?$AA?9@ 000000018001f688     libvcruntime:winapi_downlevel.obj
 0002:00000698       ??_C@_1BA@IAIFMGEF@?$AAe?$AAx?$AAt?$AA?9?$AAm?$AAs?$AA?9@ 000000018001f698     libvcruntime:winapi_downlevel.obj
 0002:000006b0       ??_C@_08KNHFBNJ@FlsAlloc@  000000018001f6b0     libvcruntime:winapi_downlevel.obj
 0002:000006c8       ??_C@_07PEJMOBNF@FlsFree@  000000018001f6c8     libvcruntime:winapi_downlevel.obj
 0002:000006d8       ??_C@_0M@GDNOONDI@FlsGetValue@ 000000018001f6d8     libvcruntime:winapi_downlevel.obj
 0002:000006f0       ??_C@_0M@JCPCPOEF@FlsSetValue@ 000000018001f6f0     libvcruntime:winapi_downlevel.obj
 0002:00000708       ??_C@_0BM@HCFOFFN@InitializeCriticalSectionEx@ 000000018001f708     libvcruntime:winapi_downlevel.obj
 0002:00000728       _pDestructExceptionObject  000000018001f728     libvcruntime:ehhelpers.obj
 0002:00000a68       ??_C@_08EHJDFFNH@__based?$CI@ 000000018001fa68     libvcruntime:undname.obj
 0002:00000a78       ??_C@_07KOLFKCDI@__cdecl@  000000018001fa78     libvcruntime:undname.obj
 0002:00000a80       ??_C@_08GHMPAG@__pascal@   000000018001fa80     libvcruntime:undname.obj
 0002:00000a90       ??_C@_09IFJBGAPI@__stdcall@ 000000018001fa90     libvcruntime:undname.obj
 0002:00000aa0       ??_C@_0L@NPHFGOKO@__thiscall@ 000000018001faa0     libvcruntime:undname.obj
 0002:00000ab0       ??_C@_0L@JMKHOMEK@__fastcall@ 000000018001fab0     libvcruntime:undname.obj
 0002:00000ac0       ??_C@_0N@BCKKPABJ@__vectorcall@ 000000018001fac0     libvcruntime:undname.obj
 0002:00000ad0       ??_C@_09HIJEGCPM@__clrcall@ 000000018001fad0     libvcruntime:undname.obj
 0002:00000adc       ??_C@_06GHPCKEAG@__eabi@   000000018001fadc     libvcruntime:undname.obj
 0002:00000ae8       ??_C@_09IOPIDJLG@__swift_1@ 000000018001fae8     libvcruntime:undname.obj
 0002:00000af8       ??_C@_09KFNFGKHF@__swift_2@ 000000018001faf8     libvcruntime:undname.obj
 0002:00000b08       ??_C@_07JOMMBBKO@__ptr64@  000000018001fb08     libvcruntime:undname.obj
 0002:00000b10       ??_C@_0L@PILCLIHE@__restrict@ 000000018001fb10     libvcruntime:undname.obj
 0002:00000b20       ??_C@_0M@GFIIJFMG@__unaligned@ 000000018001fb20     libvcruntime:undname.obj
 0002:00000b30       ??_C@_09DHDLOLLB@restrict?$CI@ 000000018001fb30     libvcruntime:undname.obj
 0002:00000b3c       ??_C@_04NIHEBCM@?5new@     000000018001fb3c     libvcruntime:undname.obj
 0002:00000b48       ??_C@_07FPCDHGMM@?5delete@ 000000018001fb48     libvcruntime:undname.obj
 0002:00000b50       ??_C@_01NEMOKFLO@?$DN@     000000018001fb50     libvcruntime:undname.obj
 0002:00000b54       ??_C@_02GPIOPFAK@?$DO?$DO@ 000000018001fb54     libvcruntime:undname.obj
 0002:00000b58       ??_C@_02FODMEDOG@?$DM?$DM@ 000000018001fb58     libvcruntime:undname.obj
 0002:00000b5c       ??_C@_01DCLJPIOD@?$CB@     000000018001fb5c     libvcruntime:undname.obj
 0002:00000b60       ??_C@_02EGOFBIJA@?$DN?$DN@ 000000018001fb60     libvcruntime:undname.obj
 0002:00000b64       ??_C@_02FDNJECIE@?$CB?$DN@ 000000018001fb64     libvcruntime:undname.obj
 0002:00000b68       ??_C@_02GPECMEKF@?$FL?$FN@ 000000018001fb68     libvcruntime:undname.obj
 0002:00000b70       ??_C@_08LHJFAFGD@operator@ 000000018001fb70     libvcruntime:undname.obj
 0002:00000b7c       ??_C@_02HBOOOICD@?9?$DO@   000000018001fb7c     libvcruntime:undname.obj
 0002:00000b80       ??_C@_01NBENCBCI@?$CK@     000000018001fb80     libvcruntime:undname.obj
 0002:00000b84       ??_C@_02ECNGHCIF@?$CL?$CL@ 000000018001fb84     libvcruntime:undname.obj
 0002:00000b88       ??_C@_02BAABKJLB@?9?9@     000000018001fb88     libvcruntime:undname.obj
 0002:00000b8c       ??_C@_01JOAMLHOP@?9@       000000018001fb8c     libvcruntime:undname.obj
 0002:00000b90       ??_C@_01MIFGBAGJ@?$CL@     000000018001fb90     libvcruntime:undname.obj
 0002:00000b94       ??_C@_01HNPIGOCE@?$CG@     000000018001fb94     libvcruntime:undname.obj
 0002:00000b98       ??_C@_03MNHNFDLC@?9?$DO?$CK@ 000000018001fb98     libvcruntime:undname.obj
 0002:00000b9c       ??_C@_01KMDKNFGN@?1@       000000018001fb9c     libvcruntime:undname.obj
 0002:00000ba0       ??_C@_01FGNFDNOH@?$CF@     000000018001fba0     libvcruntime:undname.obj
 0002:00000ba4       ??_C@_01MNNFJEPP@?$DM@     000000018001fba4     libvcruntime:undname.obj
 0002:00000ba8       ??_C@_02EHCHHCKH@?$DM?$DN@ 000000018001fba8     libvcruntime:undname.obj
 0002:00000bac       ??_C@_01PPODPGHN@?$DO@     000000018001fbac     libvcruntime:undname.obj
 0002:00000bb0       ??_C@_02EEKDKGMJ@?$DO?$DN@ 000000018001fbb0     libvcruntime:undname.obj
 0002:00000bb4       ??_C@_01IHBHIGKO@?0@       000000018001fbb4     libvcruntime:undname.obj
 0002:00000bb8       ??_C@_02HCKGKOFO@?$CI?$CJ@ 000000018001fbb8     libvcruntime:undname.obj
 0002:00000bbc       ??_C@_01PJKLJHI@?$HO@      000000018001fbbc     libvcruntime:undname.obj
 0002:00000bc0       ??_C@_01JKBOJNNK@?$FO@     000000018001fbc0     libvcruntime:undname.obj
 0002:00000bc4       ??_C@_01DNKMNLPK@?$HM@     000000018001fbc4     libvcruntime:undname.obj
 0002:00000bc8       ??_C@_02PPKAJPJL@?$CG?$CG@ 000000018001fbc8     libvcruntime:undname.obj
 0002:00000bcc       ??_C@_02NONPIBCD@?$HM?$HM@ 000000018001fbcc     libvcruntime:undname.obj
 0002:00000bd0       ??_C@_02FPIMKNGF@?$CK?$DN@ 000000018001fbd0     libvcruntime:undname.obj
 0002:00000bd4       ??_C@_02FOEOMHFC@?$CL?$DN@ 000000018001fbd4     libvcruntime:undname.obj
 0002:00000bd8       ??_C@_02FKMDLLOA@?9?$DN@   000000018001fbd8     libvcruntime:undname.obj
 0002:00000bdc       ??_C@_02FJEHGPIO@?1?$DN@   000000018001fbdc     libvcruntime:undname.obj
 0002:00000be0       ??_C@_02FENAOKFI@?$CF?$DN@ 000000018001fbe0     libvcruntime:undname.obj
 0002:00000be4       ??_C@_03IKFCCPFF@?$DO?$DO?$DN@ 000000018001fbe4     libvcruntime:undname.obj
 0002:00000be8       ??_C@_03CDNPDDLA@?$DM?$DM?$DN@ 000000018001fbe8     libvcruntime:undname.obj
 0002:00000bec       ??_C@_02FGJGFEAB@?$CG?$DN@ 000000018001fbec     libvcruntime:undname.obj
 0002:00000bf0       ??_C@_02DHLNPPGH@?$HM?$DN@ 000000018001fbf0     libvcruntime:undname.obj
 0002:00000bf4       ??_C@_02MHEGNOJ@?$FO?$DN@  000000018001fbf4     libvcruntime:undname.obj
 0002:00000bf8       ??_C@_09IFPLHPGF@?$GAvftable?8@ 000000018001fbf8     libvcruntime:undname.obj
 0002:00000c08       ??_C@_09BLBHBJP@?$GAvbtable?8@ 000000018001fc08     libvcruntime:undname.obj
 0002:00000c18       ??_C@_07FEEIOKP@?$GAvcall?8@ 000000018001fc18     libvcruntime:undname.obj
 0002:00000c20       ??_C@_08LLFFHHDJ@?$GAtypeof?8@ 000000018001fc20     libvcruntime:undname.obj
 0002:00000c30       ??_C@_0BF@KDPPACIK@?$GAlocal?5static?5guard?8@ 000000018001fc30     libvcruntime:undname.obj
 0002:00000c48       ??_C@_08OBABFOLI@?$GAstring?8@ 000000018001fc48     libvcruntime:undname.obj
 0002:00000c58       ??_C@_0BD@JDLKDPAB@?$GAvbase?5destructor?8@ 000000018001fc58     libvcruntime:undname.obj
 0002:00000c70       ??_C@_0BN@DEGPLNFK@?$GAvector?5deleting?5destructor?8@ 000000018001fc70     libvcruntime:undname.obj
 0002:00000c90       ??_C@_0BO@OBMKPJIG@?$GAdefault?5constructor?5closure?8@ 000000018001fc90     libvcruntime:undname.obj
 0002:00000cb0       ??_C@_0BN@IMDCHIKM@?$GAscalar?5deleting?5destructor?8@ 000000018001fcb0     libvcruntime:undname.obj
 0002:00000cd0       ??_C@_0BO@PFGOCPJJ@?$GAvector?5constructor?5iterator?8@ 000000018001fcd0     libvcruntime:undname.obj
 0002:00000cf0       ??_C@_0BN@LFPFMEDL@?$GAvector?5destructor?5iterator?8@ 000000018001fcf0     libvcruntime:undname.obj
 0002:00000d10       ??_C@_0CE@IKBNEHA@?$GAvector?5vbase?5constructor?5itera@ 000000018001fd10     libvcruntime:undname.obj
 0002:00000d38       ??_C@_0BL@NILFHHPC@?$GAvirtual?5displacement?5map?8@ 000000018001fd38     libvcruntime:undname.obj
 0002:00000d58       ??_C@_0CB@JONCMFFK@?$GAeh?5vector?5constructor?5iterator@ 000000018001fd58     libvcruntime:undname.obj
 0002:00000d80       ??_C@_0CA@GCEOPDGL@?$GAeh?5vector?5destructor?5iterator?8@ 000000018001fd80     libvcruntime:undname.obj
 0002:00000da0       ??_C@_0CH@OOJPLCPH@?$GAeh?5vector?5vbase?5constructor?5it@ 000000018001fda0     libvcruntime:undname.obj
 0002:00000dc8       ??_C@_0BL@LLKPOHJI@?$GAcopy?5constructor?5closure?8@ 000000018001fdc8     libvcruntime:undname.obj
 0002:00000de8       ??_C@_0BA@KBCDOMBN@?$GAudt?5returning?8@ 000000018001fde8     libvcruntime:undname.obj
 0002:00000df8       ??_C@_03KLGMFNMG@?$GAEH@   000000018001fdf8     libvcruntime:undname.obj
 0002:00000dfc       ??_C@_05KHLCHHI@?$GARTTI@  000000018001fdfc     libvcruntime:undname.obj
 0002:00000e08       ??_C@_0BA@KKLDJDLB@?$GAlocal?5vftable?8@ 000000018001fe08     libvcruntime:undname.obj
 0002:00000e18       ??_C@_0CE@IIHCMGGL@?$GAlocal?5vftable?5constructor?5clos@ 000000018001fe18     libvcruntime:undname.obj
 0002:00000e3c       ??_C@_06FHBGPFGH@?5new?$FL?$FN@ 000000018001fe3c     libvcruntime:undname.obj
 0002:00000e48       ??_C@_09LBNFPBCA@?5delete?$FL?$FN@ 000000018001fe48     libvcruntime:undname.obj
 0002:00000e58       ??_C@_0P@HJKNJFNN@?$GAomni?5callsig?8@ 000000018001fe58     libvcruntime:undname.obj
 0002:00000e68       ??_C@_0BL@CNOONJFP@?$GAplacement?5delete?5closure?8@ 000000018001fe68     libvcruntime:undname.obj
 0002:00000e88       ??_C@_0BN@CKNJLHMB@?$GAplacement?5delete?$FL?$FN?5closure?8@ 000000018001fe88     libvcruntime:undname.obj
 0002:00000ea8       ??_C@_0CG@CFDHKGGD@?$GAmanaged?5vector?5constructor?5ite@ 000000018001fea8     libvcruntime:undname.obj
 0002:00000ed0       ??_C@_0CF@IMGKMJNO@?$GAmanaged?5vector?5destructor?5iter@ 000000018001fed0     libvcruntime:undname.obj
 0002:00000ef8       ??_C@_0CG@HLDDJMAG@?$GAeh?5vector?5copy?5constructor?5ite@ 000000018001fef8     libvcruntime:undname.obj
 0002:00000f20       ??_C@_0CM@FCBBDIGB@?$GAeh?5vector?5vbase?5copy?5construct@ 000000018001ff20     libvcruntime:undname.obj
 0002:00000f50       ??_C@_0BL@CLIPGLGB@?$GAdynamic?5initializer?5for?5?8@ 000000018001ff50     libvcruntime:undname.obj
 0002:00000f70       ??_C@_0CB@PDBIFEP@?$GAdynamic?5atexit?5destructor?5for?5@ 000000018001ff70     libvcruntime:undname.obj
 0002:00000f98       ??_C@_0CD@CGAJBKEJ@?$GAvector?5copy?5constructor?5iterat@ 000000018001ff98     libvcruntime:undname.obj
 0002:00000fc0       ??_C@_0CJ@GJELGAMM@?$GAvector?5vbase?5copy?5constructor?5@ 000000018001ffc0     libvcruntime:undname.obj
 0002:00000ff0       ??_C@_0CL@FGIJHLCE@?$GAmanaged?5vector?5copy?5constructo@ 000000018001fff0     libvcruntime:undname.obj
 0002:00001020       ??_C@_0BM@PMGGMLDN@?$GAlocal?5static?5thread?5guard?8@ 0000000180020020     libvcruntime:undname.obj
 0002:00001040       ??_C@_0N@BDNMDMOL@operator?5?$CC?$CC?5@ 0000000180020040     libvcruntime:undname.obj
 0002:00001050       ??_C@_0BC@GGEBGALA@operator?5co_await@ 0000000180020050     libvcruntime:undname.obj
 0002:00001068       ??_C@_0BC@DAFEJGAK@?5Type?5Descriptor?8@ 0000000180020068     libvcruntime:undname.obj
 0002:00001080       ??_C@_0BM@LDKODKLH@?5Base?5Class?5Descriptor?5at?5?$CI@ 0000000180020080     libvcruntime:undname.obj
 0002:000010a0       ??_C@_0BD@LGICGFMM@?5Base?5Class?5Array?8@ 00000001800200a0     libvcruntime:undname.obj
 0002:000010b8       ??_C@_0BN@MECKDCOJ@?5Class?5Hierarchy?5Descriptor?8@ 00000001800200b8     libvcruntime:undname.obj
 0002:000010d8       ??_C@_0BK@CFCOFLF@?5Complete?5Object?5Locator?8@ 00000001800200d8     libvcruntime:undname.obj
 0002:00001100       ??_C@_1FE@LHBLIKM@?$AAA?$AAs?$AAs?$AAe?$AAr?$AAt?$AAi?$AAo?$AAn?$AA?5?$AAf?$AAa?$AAi?$AAl?$AAe?$AAd?$AA?3?$AA?5?$AA?$CF?$AAT?$AAs?$AA?0?$AA?5?$AAf?$AAi?$AAl?$AAe?$AA?5?$AA?$CF?$AAT?$AAs?$AA?0@ 0000000180020100     libucrt:assert.obj
 0002:00001160       ??_C@_1EK@MBDPDCGA@?$AAM?$AAi?$AAc?$AAr?$AAo?$AAs?$AAo?$AAf?$AAt?$AA?5?$AAV?$AAi?$AAs?$AAu?$AAa?$AAl?$AA?5?$AAC?$AA?$CL?$AA?$CL?$AA?5?$AAR?$AAu?$AAn?$AAt?$AAi?$AAm?$AAe?$AA?5?$AAL?$AAi?$AAb@ 0000000180020160     libucrt:assert.obj
 0002:000011b0       ??_C@_1CE@OJBNHDMO@?$AAA?$AAs?$AAs?$AAe?$AAr?$AAt?$AAi?$AAo?$AAn?$AA?5?$AAf?$AAa?$AAi?$AAl?$AAe?$AAd?$AA?$CB?$AA?$AA@ 00000001800201b0     libucrt:assert.obj
 0002:000011d8       ??_C@_1BE@PHKBBGE@?$AAP?$AAr?$AAo?$AAg?$AAr?$AAa?$AAm?$AA?3?$AA?5?$AA?$AA@ 00000001800201d8     libucrt:assert.obj
 0002:000011f0       ??_C@_1O@HEMHKNDC@?$AAF?$AAi?$AAl?$AAe?$AA?3?$AA?5?$AA?$AA@ 00000001800201f0     libucrt:assert.obj
 0002:00001200       ??_C@_1O@KCAFKHJE@?$AAL?$AAi?$AAn?$AAe?$AA?3?$AA?5?$AA?$AA@ 0000000180020200     libucrt:assert.obj
 0002:00001210       ??_C@_1BK@PEDCIPMA@?$AAE?$AAx?$AAp?$AAr?$AAe?$AAs?$AAs?$AAi?$AAo?$AAn?$AA?3?$AA?5?$AA?$AA@ 0000000180020210     libucrt:assert.obj
 0002:00001230       ??_C@_1OA@EGMLFBHJ@?$AAF?$AAo?$AAr?$AA?5?$AAi?$AAn?$AAf?$AAo?$AAr?$AAm?$AAa?$AAt?$AAi?$AAo?$AAn?$AA?5?$AAo?$AAn?$AA?5?$AAh?$AAo?$AAw?$AA?5?$AAy?$AAo?$AAu?$AAr?$AA?5?$AAp?$AAr?$AAo?$AAg@ 0000000180020230     libucrt:assert.obj
 0002:00001310       ??_C@_1HK@POCJMFGK@?$AA?$CI?$AAP?$AAr?$AAe?$AAs?$AAs?$AA?5?$AAR?$AAe?$AAt?$AAr?$AAy?$AA?5?$AAt?$AAo?$AA?5?$AAd?$AAe?$AAb?$AAu?$AAg?$AA?5?$AAt?$AAh?$AAe?$AA?5?$AAa?$AAp?$AAp?$AAl?$AAi?$AAc@ 0000000180020310     libucrt:assert.obj
 0002:00001390       ??_C@_17LGKOMLJ@?$AA?4?$AA?4?$AA?4?$AA?$AA@ 0000000180020390     libucrt:assert.obj
 0002:00001398       ??_C@_13LBAGMAIH@?$AA?6?$AA?$AA@ 0000000180020398     libucrt:assert.obj
 0002:0000139c       ??_C@_15IABLJNFO@?$AA?6?$AA?6?$AA?$AA@ 000000018002039c     libucrt:assert.obj
 0002:000013a8       ??_C@_1CO@EAEJAADC@?$AA?$DM?$AAp?$AAr?$AAo?$AAg?$AAr?$AAa?$AAm?$AA?5?$AAn?$AAa?$AAm?$AAe?$AA?5?$AAu?$AAn?$AAk?$AAn?$AAo?$AAw?$AAn?$AA?$DO?$AA?$AA@ 00000001800203a8     libucrt:assert.obj
 0002:000013e0       standard_lookup_table      00000001800203e0     libucrt:output.obj
 0002:00001440       format_validation_lookup_table 0000000180020440     libucrt:output.obj
 0002:000014a0       ??_C@_1O@CEDCILHN@?$AA?$CI?$AAn?$AAu?$AAl?$AAl?$AA?$CJ?$AA?$AA@ 00000001800204a0     libucrt:output.obj
 0002:000014b0       ??_C@_06OJHGLDPL@?$CInull?$CJ?$AA@ 00000001800204b0     libucrt:output.obj
 0002:000014c0       __acrt_exception_action_table 00000001800204c0     libucrt:exception_filter.obj
 0002:00001580       __acrt_signal_action_table_count 0000000180020580     libucrt:exception_filter.obj
 0002:00001588       __acrt_signal_action_first_fpe_index 0000000180020588     libucrt:exception_filter.obj
 0002:00001590       __acrt_signal_action_fpe_count 0000000180020590     libucrt:exception_filter.obj
 0002:00001598       ??_C@_1BI@BGOHAHKC@?$AAm?$AAs?$AAc?$AAo?$AAr?$AAe?$AAe?$AA?4?$AAd?$AAl?$AAl?$AA?$AA@ 0000000180020598     libucrt:exit.obj
 0002:000015b0       ??_C@_0P@MIGLKIOC@CorExitProcess?$AA@ 00000001800205b0     libucrt:exit.obj
 0002:00001820       ??_C@_03OEIAHPBN@INF?$AA@  0000000180020820     libucrt:cvt.obj
 0002:00001824       ??_C@_03OJHLLCGB@inf?$AA@  0000000180020824     libucrt:cvt.obj
 0002:00001828       ??_C@_03LKNCIKJB@NAN?$AA@  0000000180020828     libucrt:cvt.obj
 0002:0000182c       ??_C@_03LHCJEHON@nan?$AA@  000000018002082c     libucrt:cvt.obj
 0002:00001830       ??_C@_09OFJJIMPC@NAN?$CISNAN?$CJ?$AA@ 0000000180020830     libucrt:cvt.obj
 0002:00001840       ??_C@_09IPFBKMDL@nan?$CIsnan?$CJ?$AA@ 0000000180020840     libucrt:cvt.obj
 0002:00001850       ??_C@_08IKHNHAJ@NAN?$CIIND?$CJ?$AA@ 0000000180020850     libucrt:cvt.obj
 0002:00001860       ??_C@_08OFCDMILK@nan?$CIind?$CJ?$AA@ 0000000180020860     libucrt:cvt.obj
 0002:0000186c       ??_C@_05KLBDPFGC@e?$CL000?$AA@ 000000018002086c     libucrt:cvt.obj
 0002:00001880       __lc_time_c                0000000180020880     libucrt:nlsdata.obj
 0002:00001b40       ??_C@_03KOEHGMDN@Sun?$AA@  0000000180020b40     libucrt:nlsdata.obj
 0002:00001b44       ??_C@_03PDAGKDH@Mon?$AA@   0000000180020b44     libucrt:nlsdata.obj
 0002:00001b48       ??_C@_03NAGEINEP@Tue?$AA@  0000000180020b48     libucrt:nlsdata.obj
 0002:00001b4c       ??_C@_03MHOMLAJA@Wed?$AA@  0000000180020b4c     libucrt:nlsdata.obj
 0002:00001b50       ??_C@_03IOFIKPDN@Thu?$AA@  0000000180020b50     libucrt:nlsdata.obj
 0002:00001b54       ??_C@_03IDIOELNC@Fri?$AA@  0000000180020b54     libucrt:nlsdata.obj
 0002:00001b58       ??_C@_03FEFJNEK@Sat?$AA@   0000000180020b58     libucrt:nlsdata.obj
 0002:00001b5c       ??_C@_06OOPIFAJ@Sunday?$AA@ 0000000180020b5c     libucrt:nlsdata.obj
 0002:00001b64       ??_C@_06JLEDEDGH@Monday?$AA@ 0000000180020b64     libucrt:nlsdata.obj
 0002:00001b70       ??_C@_07BAAGCFCM@Tuesday?$AA@ 0000000180020b70     libucrt:nlsdata.obj
 0002:00001b78       ??_C@_09DLIGFAKA@Wednesday?$AA@ 0000000180020b78     libucrt:nlsdata.obj
 0002:00001b88       ??_C@_08HACCIKIA@Thursday?$AA@ 0000000180020b88     libucrt:nlsdata.obj
 0002:00001b94       ??_C@_06JECMNKMI@Friday?$AA@ 0000000180020b94     libucrt:nlsdata.obj
 0002:00001ba0       ??_C@_08INBOOONO@Saturday?$AA@ 0000000180020ba0     libucrt:nlsdata.obj
 0002:00001bac       ??_C@_03JIHJHPIE@Jan?$AA@  0000000180020bac     libucrt:nlsdata.obj
 0002:00001bb0       ??_C@_03HJBDCHOM@Feb?$AA@  0000000180020bb0     libucrt:nlsdata.obj
 0002:00001bb4       ??_C@_03ODNJBKGA@Mar?$AA@  0000000180020bb4     libucrt:nlsdata.obj
 0002:00001bb8       ??_C@_03LEOLGMJP@Apr?$AA@  0000000180020bb8     libucrt:nlsdata.obj
 0002:00001bbc       ??_C@_03CNMDKL@May?$AA@    0000000180020bbc     libucrt:nlsdata.obj
 0002:00001bc0       ??_C@_03IDFGHECI@Jun?$AA@  0000000180020bc0     libucrt:nlsdata.obj
 0002:00001bc4       ??_C@_03LBGABGKK@Jul?$AA@  0000000180020bc4     libucrt:nlsdata.obj
 0002:00001bc8       ??_C@_03IFJFEIGA@Aug?$AA@  0000000180020bc8     libucrt:nlsdata.obj
 0002:00001bcc       ??_C@_03GGCAPAJC@Sep?$AA@  0000000180020bcc     libucrt:nlsdata.obj
 0002:00001bd0       ??_C@_03BMAOKBAD@Oct?$AA@  0000000180020bd0     libucrt:nlsdata.obj
 0002:00001bd4       ??_C@_03JPJOFNIA@Nov?$AA@  0000000180020bd4     libucrt:nlsdata.obj
 0002:00001bd8       ??_C@_03MKABNOCG@Dec?$AA@  0000000180020bd8     libucrt:nlsdata.obj
 0002:00001be0       ??_C@_07CGJPFGJA@January?$AA@ 0000000180020be0     libucrt:nlsdata.obj
 0002:00001be8       ??_C@_08GNJGEPFN@February?$AA@ 0000000180020be8     libucrt:nlsdata.obj
 0002:00001bf4       ??_C@_05HPCKOFNC@March?$AA@ 0000000180020bf4     libucrt:nlsdata.obj
 0002:00001bfc       ??_C@_05DMJDNLEJ@April?$AA@ 0000000180020bfc     libucrt:nlsdata.obj
 0002:00001c04       ??_C@_04CNLMGBGM@June?$AA@ 0000000180020c04     libucrt:nlsdata.obj
 0002:00001c0c       ??_C@_04MIEPOIFP@July?$AA@ 0000000180020c0c     libucrt:nlsdata.obj
 0002:00001c14       ??_C@_06LBBHFDDG@August?$AA@ 0000000180020c14     libucrt:nlsdata.obj
 0002:00001c20       ??_C@_09BHHEALKD@September?$AA@ 0000000180020c20     libucrt:nlsdata.obj
 0002:00001c30       ??_C@_07JJNFCEND@October?$AA@ 0000000180020c30     libucrt:nlsdata.obj
 0002:00001c38       ??_C@_08HCHEGEOA@November?$AA@ 0000000180020c38     libucrt:nlsdata.obj
 0002:00001c48       ??_C@_08EDHMEBNP@December?$AA@ 0000000180020c48     libucrt:nlsdata.obj
 0002:00001c54       ??_C@_02DEDBPAFC@AM?$AA@   0000000180020c54     libucrt:nlsdata.obj
 0002:00001c58       ??_C@_02CJNFDJBF@PM?$AA@   0000000180020c58     libucrt:nlsdata.obj
 0002:00001c60       ??_C@_08BPBNCDIB@MM?1dd?1yy?$AA@ 0000000180020c60     libucrt:nlsdata.obj
 0002:00001c70       ??_C@_0BE@CKGJFCPC@dddd?0?5MMMM?5dd?0?5yyyy?$AA@ 0000000180020c70     libucrt:nlsdata.obj
 0002:00001c88       ??_C@_08JCCMCCIL@HH?3mm?3ss?$AA@ 0000000180020c88     libucrt:nlsdata.obj
 0002:00001c98       ??_C@_17MBGCMIPB@?$AAS?$AAu?$AAn?$AA?$AA@ 0000000180020c98     libucrt:nlsdata.obj
 0002:00001ca0       ??_C@_17KBOMKBF@?$AAM?$AAo?$AAn?$AA?$AA@ 0000000180020ca0     libucrt:nlsdata.obj
 0002:00001ca8       ??_C@_17BMKGEGOJ@?$AAT?$AAu?$AAe?$AA?$AA@ 0000000180020ca8     libucrt:nlsdata.obj
 0002:00001cb0       ??_C@_17CJEDCEPE@?$AAW?$AAe?$AAd?$AA?$AA@ 0000000180020cb0     libucrt:nlsdata.obj
 0002:00001cb8       ??_C@_17PDPHAADD@?$AAT?$AAh?$AAu?$AA?$AA@ 0000000180020cb8     libucrt:nlsdata.obj
 0002:00001cc0       ??_C@_17HFOLPPLP@?$AAF?$AAr?$AAi?$AA?$AA@ 0000000180020cc0     libucrt:nlsdata.obj
 0002:00001cc8       ??_C@_17GGIBDPIH@?$AAS?$AAa?$AAt?$AA?$AA@ 0000000180020cc8     libucrt:nlsdata.obj
 0002:00001cd0       ??_C@_1O@IHNHDHPB@?$AAS?$AAu?$AAn?$AAd?$AAa?$AAy?$AA?$AA@ 0000000180020cd0     libucrt:nlsdata.obj
 0002:00001ce0       ??_C@_1O@MMNBFLIA@?$AAM?$AAo?$AAn?$AAd?$AAa?$AAy?$AA?$AA@ 0000000180020ce0     libucrt:nlsdata.obj
 0002:00001cf0       ??_C@_1BA@ENFBFFEK@?$AAT?$AAu?$AAe?$AAs?$AAd?$AAa?$AAy?$AA?$AA@ 0000000180020cf0     libucrt:nlsdata.obj
 0002:00001d00       ??_C@_1BE@EBOGMDOH@?$AAW?$AAe?$AAd?$AAn?$AAe?$AAs?$AAd?$AAa?$AAy?$AA?$AA@ 0000000180020d00     libucrt:nlsdata.obj
 0002:00001d18       ??_C@_1BC@HHMNLIHE@?$AAT?$AAh?$AAu?$AAr?$AAs?$AAd?$AAa?$AAy?$AA?$AA@ 0000000180020d18     libucrt:nlsdata.obj
 0002:00001d30       ??_C@_1O@PDICJHAG@?$AAF?$AAr?$AAi?$AAd?$AAa?$AAy?$AA?$AA@ 0000000180020d30     libucrt:nlsdata.obj
 0002:00001d40       ??_C@_1BC@ENMNNPAJ@?$AAS?$AAa?$AAt?$AAu?$AAr?$AAd?$AAa?$AAy?$AA?$AA@ 0000000180020d40     libucrt:nlsdata.obj
 0002:00001d58       ??_C@_17DKNBKCHM@?$AAJ?$AAa?$AAn?$AA?$AA@ 0000000180020d58     libucrt:nlsdata.obj
 0002:00001d60       ??_C@_17LMDJEKJN@?$AAF?$AAe?$AAb?$AA?$AA@ 0000000180020d60     libucrt:nlsdata.obj
 0002:00001d68       ??_C@_17CKNLEDEC@?$AAM?$AAa?$AAr?$AA?$AA@ 0000000180020d68     libucrt:nlsdata.obj
 0002:00001d70       ??_C@_17LFPOIHDD@?$AAA?$AAp?$AAr?$AA?$AA@ 0000000180020d70     libucrt:nlsdata.obj
 0002:00001d78       ??_C@_17PNNKMEED@?$AAM?$AAa?$AAy?$AA?$AA@ 0000000180020d78     libucrt:nlsdata.obj
 0002:00001d80       ??_C@_17KCJGOCPB@?$AAJ?$AAu?$AAn?$AA?$AA@ 0000000180020d80     libucrt:nlsdata.obj
 0002:00001d88       ??_C@_17IJPCKHK@?$AAJ?$AAu?$AAl?$AA?$AA@ 0000000180020d88     libucrt:nlsdata.obj
 0002:00001d90       ??_C@_17ICPELBCN@?$AAA?$AAu?$AAg?$AA?$AA@ 0000000180020d90     libucrt:nlsdata.obj
 0002:00001d98       ??_C@_17HCHCOKMG@?$AAS?$AAe?$AAp?$AA?$AA@ 0000000180020d98     libucrt:nlsdata.obj
 0002:00001da0       ??_C@_17FNLKOI@?$AAO?$AAc?$AAt?$AA?$AA@ 0000000180020da0     libucrt:nlsdata.obj
 0002:00001da8       ??_C@_17BBDMLCIG@?$AAN?$AAo?$AAv?$AA?$AA@ 0000000180020da8     libucrt:nlsdata.obj
 0002:00001db0       ??_C@_17EGKACKIF@?$AAD?$AAe?$AAc?$AA?$AA@ 0000000180020db0     libucrt:nlsdata.obj
 0002:00001db8       ??_C@_1BA@EFMEIEBA@?$AAJ?$AAa?$AAn?$AAu?$AAa?$AAr?$AAy?$AA?$AA@ 0000000180020db8     libucrt:nlsdata.obj
 0002:00001dc8       ??_C@_1BC@JGDDFFAM@?$AAF?$AAe?$AAb?$AAr?$AAu?$AAa?$AAr?$AAy?$AA?$AA@ 0000000180020dc8     libucrt:nlsdata.obj
 0002:00001de0       ??_C@_1M@IKEENEDF@?$AAM?$AAa?$AAr?$AAc?$AAh?$AA?$AA@ 0000000180020de0     libucrt:nlsdata.obj
 0002:00001df0       ??_C@_1M@GJNLMHFD@?$AAA?$AAp?$AAr?$AAi?$AAl?$AA?$AA@ 0000000180020df0     libucrt:nlsdata.obj
 0002:00001e00       ??_C@_19EPFLPGAP@?$AAJ?$AAu?$AAn?$AAe?$AA?$AA@ 0000000180020e00     libucrt:nlsdata.obj
 0002:00001e10       ??_C@_19BIFMLPCD@?$AAJ?$AAu?$AAl?$AAy?$AA?$AA@ 0000000180020e10     libucrt:nlsdata.obj
 0002:00001e20       ??_C@_1O@PAHLKOAC@?$AAA?$AAu?$AAg?$AAu?$AAs?$AAt?$AA?$AA@ 0000000180020e20     libucrt:nlsdata.obj
 0002:00001e30       ??_C@_1BE@DKAAMBJL@?$AAS?$AAe?$AAp?$AAt?$AAe?$AAm?$AAb?$AAe?$AAr?$AA?$AA@ 0000000180020e30     libucrt:nlsdata.obj
 0002:00001e48       ??_C@_1BA@EPANDLNG@?$AAO?$AAc?$AAt?$AAo?$AAb?$AAe?$AAr?$AA?$AA@ 0000000180020e48     libucrt:nlsdata.obj
 0002:00001e58       ??_C@_1BC@BGLIFPF@?$AAN?$AAo?$AAv?$AAe?$AAm?$AAb?$AAe?$AAr?$AA?$AA@ 0000000180020e58     libucrt:nlsdata.obj
 0002:00001e70       ??_C@_1BC@FEMKIFH@?$AAD?$AAe?$AAc?$AAe?$AAm?$AAb?$AAe?$AAr?$AA?$AA@ 0000000180020e70     libucrt:nlsdata.obj
 0002:00001e84       ??_C@_15ODEHAHHF@?$AAA?$AAM?$AA?$AA@ 0000000180020e84     libucrt:nlsdata.obj
 0002:00001e8c       ??_C@_15CLMNNGEL@?$AAP?$AAM?$AA?$AA@ 0000000180020e8c     libucrt:nlsdata.obj
 0002:00001e98       ??_C@_1BC@IEBCMHCM@?$AAM?$AAM?$AA?1?$AAd?$AAd?$AA?1?$AAy?$AAy?$AA?$AA@ 0000000180020e98     libucrt:nlsdata.obj
 0002:00001eb0       ??_C@_1CI@KNAKOEBC@?$AAd?$AAd?$AAd?$AAd?$AA?0?$AA?5?$AAM?$AAM?$AAM?$AAM?$AA?5?$AAd?$AAd?$AA?0?$AA?5?$AAy?$AAy?$AAy?$AAy?$AA?$AA@ 0000000180020eb0     libucrt:nlsdata.obj
 0002:00001ed8       ??_C@_1BC@GDGBMEMK@?$AAH?$AAH?$AA?3?$AAm?$AAm?$AA?3?$AAs?$AAs?$AA?$AA@ 0000000180020ed8     libucrt:nlsdata.obj
 0002:00001ef0       ??_C@_1M@BMHNFIME@?$AAe?$AAn?$AA?9?$AAU?$AAS?$AA?$AA@ 0000000180020ef0     libucrt:nlsdata.obj
 0002:00001f20       ??_C@_1M@HPNHIDJI@?$AAj?$AAa?$AA?9?$AAJ?$AAP?$AA?$AA@ 0000000180020f20     libucrt:mbctype.obj
 0002:00001f30       ??_C@_1M@BIBDDEMK@?$AAz?$AAh?$AA?9?$AAC?$AAN?$AA?$AA@ 0000000180020f30     libucrt:mbctype.obj
 0002:00001f40       ??_C@_1M@JLOOOEGK@?$AAk?$AAo?$AA?9?$AAK?$AAR?$AA?$AA@ 0000000180020f40     libucrt:mbctype.obj
 0002:00001f50       ??_C@_1M@CLNBBOPM@?$AAz?$AAh?$AA?9?$AAT?$AAW?$AA?$AA@ 0000000180020f50     libucrt:mbctype.obj
 0002:00002000       ??_C@_1EA@JGEFHKEI@?$AAa?$AAp?$AAi?$AA?9?$AAm?$AAs?$AA?9?$AAw?$AAi?$AAn?$AA?9?$AAc?$AAo?$AAr?$AAe?$AA?9?$AAd?$AAa?$AAt?$AAe?$AAt?$AAi?$AAm?$AAe?$AA?9?$AAl?$AA1?$AA?9?$AA1?$AA?9?$AA1?$AA?$AA@ 0000000180021000     libucrt:winapi_thunks.obj
 0002:00002040       ??_C@_1DM@KHCHBNEB@?$AAa?$AAp?$AAi?$AA?9?$AAm?$AAs?$AA?9?$AAw?$AAi?$AAn?$AA?9?$AAc?$AAo?$AAr?$AAe?$AA?9?$AAf?$AAi?$AAb?$AAe?$AAr?$AAs?$AA?9?$AAl?$AA1?$AA?9?$AA1?$AA?9?$AA1?$AA?$AA@ 0000000180021040     libucrt:winapi_thunks.obj
 0002:00002080       ??_C@_1DI@IJCEHOCB@?$AAa?$AAp?$AAi?$AA?9?$AAm?$AAs?$AA?9?$AAw?$AAi?$AAn?$AA?9?$AAc?$AAo?$AAr?$AAe?$AA?9?$AAf?$AAi?$AAl?$AAe?$AA?9?$AAl?$AA1?$AA?9?$AA2?$AA?9?$AA2?$AA?$AA@ 0000000180021080     libucrt:winapi_thunks.obj
 0002:000020c0       ??_C@_1EI@MPIAOHOC@?$AAa?$AAp?$AAi?$AA?9?$AAm?$AAs?$AA?9?$AAw?$AAi?$AAn?$AA?9?$AAc?$AAo?$AAr?$AAe?$AA?9?$AAl?$AAo?$AAc?$AAa?$AAl?$AAi?$AAz?$AAa?$AAt?$AAi?$AAo?$AAn?$AA?9?$AAl?$AA1?$AA?9@ 00000001800210c0     libucrt:winapi_thunks.obj
 0002:00002110       ??_C@_1FK@FPHCKFIE@?$AAa?$AAp?$AAi?$AA?9?$AAm?$AAs?$AA?9?$AAw?$AAi?$AAn?$AA?9?$AAc?$AAo?$AAr?$AAe?$AA?9?$AAl?$AAo?$AAc?$AAa?$AAl?$AAi?$AAz?$AAa?$AAt?$AAi?$AAo?$AAn?$AA?9?$AAo?$AAb?$AAs@ 0000000180021110     libucrt:winapi_thunks.obj
 0002:00002170       ??_C@_1EM@DILCGIIO@?$AAa?$AAp?$AAi?$AA?9?$AAm?$AAs?$AA?9?$AAw?$AAi?$AAn?$AA?9?$AAc?$AAo?$AAr?$AAe?$AA?9?$AAp?$AAr?$AAo?$AAc?$AAe?$AAs?$AAs?$AAt?$AAh?$AAr?$AAe?$AAa?$AAd?$AAs?$AA?9?$AAl@ 0000000180021170     libucrt:winapi_thunks.obj
 0002:000021c0       ??_C@_1DM@LNCGDDPN@?$AAa?$AAp?$AAi?$AA?9?$AAm?$AAs?$AA?9?$AAw?$AAi?$AAn?$AA?9?$AAc?$AAo?$AAr?$AAe?$AA?9?$AAs?$AAt?$AAr?$AAi?$AAn?$AAg?$AA?9?$AAl?$AA1?$AA?9?$AA1?$AA?9?$AA0?$AA?$AA@ 00000001800211c0     libucrt:winapi_thunks.obj
 0002:00002200       ??_C@_1DK@LPPGFMPP@?$AAa?$AAp?$AAi?$AA?9?$AAm?$AAs?$AA?9?$AAw?$AAi?$AAn?$AA?9?$AAc?$AAo?$AAr?$AAe?$AA?9?$AAs?$AAy?$AAn?$AAc?$AAh?$AA?9?$AAl?$AA1?$AA?9?$AA2?$AA?9?$AA0?$AA?$AA@ 0000000180021200     libucrt:winapi_thunks.obj
 0002:00002240       ??_C@_1DO@FPAPJEMD@?$AAa?$AAp?$AAi?$AA?9?$AAm?$AAs?$AA?9?$AAw?$AAi?$AAn?$AA?9?$AAc?$AAo?$AAr?$AAe?$AA?9?$AAs?$AAy?$AAs?$AAi?$AAn?$AAf?$AAo?$AA?9?$AAl?$AA1?$AA?9?$AA2?$AA?9?$AA1?$AA?$AA@ 0000000180021240     libucrt:winapi_thunks.obj
 0002:00002280       ??_C@_1DK@NDHNAHIO@?$AAa?$AAp?$AAi?$AA?9?$AAm?$AAs?$AA?9?$AAw?$AAi?$AAn?$AA?9?$AAc?$AAo?$AAr?$AAe?$AA?9?$AAw?$AAi?$AAn?$AAr?$AAt?$AA?9?$AAl?$AA1?$AA?9?$AA1?$AA?9?$AA0?$AA?$AA@ 0000000180021280     libucrt:winapi_thunks.obj
 0002:000022c0       ??_C@_1DM@KGHDGBCM@?$AAa?$AAp?$AAi?$AA?9?$AAm?$AAs?$AA?9?$AAw?$AAi?$AAn?$AA?9?$AAc?$AAo?$AAr?$AAe?$AA?9?$AAx?$AAs?$AAt?$AAa?$AAt?$AAe?$AA?9?$AAl?$AA2?$AA?9?$AA1?$AA?9?$AA0?$AA?$AA@ 00000001800212c0     libucrt:winapi_thunks.obj
 0002:00002300       ??_C@_1EO@IJIOEFOH@?$AAa?$AAp?$AAi?$AA?9?$AAm?$AAs?$AA?9?$AAw?$AAi?$AAn?$AA?9?$AAr?$AAt?$AAc?$AAo?$AAr?$AAe?$AA?9?$AAn?$AAt?$AAu?$AAs?$AAe?$AAr?$AA?9?$AAw?$AAi?$AAn?$AAd?$AAo?$AAw?$AA?9@ 0000000180021300     libucrt:winapi_thunks.obj
 0002:00002350       ??_C@_1FG@HHGEKANL@?$AAa?$AAp?$AAi?$AA?9?$AAm?$AAs?$AA?9?$AAw?$AAi?$AAn?$AA?9?$AAs?$AAe?$AAc?$AAu?$AAr?$AAi?$AAt?$AAy?$AA?9?$AAs?$AAy?$AAs?$AAt?$AAe?$AAm?$AAf?$AAu?$AAn?$AAc?$AAt?$AAi@ 0000000180021350     libucrt:winapi_thunks.obj
 0002:000023b0       ??_C@_1EG@DBIOJECG@?$AAe?$AAx?$AAt?$AA?9?$AAm?$AAs?$AA?9?$AAw?$AAi?$AAn?$AA?9?$AAn?$AAt?$AAu?$AAs?$AAe?$AAr?$AA?9?$AAd?$AAi?$AAa?$AAl?$AAo?$AAg?$AAb?$AAo?$AAx?$AA?9?$AAl?$AA1?$AA?9?$AA1@ 00000001800213b0     libucrt:winapi_thunks.obj
 0002:00002400       ??_C@_1EO@FIHMJCLF@?$AAe?$AAx?$AAt?$AA?9?$AAm?$AAs?$AA?9?$AAw?$AAi?$AAn?$AA?9?$AAn?$AAt?$AAu?$AAs?$AAe?$AAr?$AA?9?$AAw?$AAi?$AAn?$AAd?$AAo?$AAw?$AAs?$AAt?$AAa?$AAt?$AAi?$AAo?$AAn?$AA?9@ 0000000180021400     libucrt:winapi_thunks.obj
 0002:00002450       ??_C@_1BC@DNHGCMLG@?$AAa?$AAd?$AAv?$AAa?$AAp?$AAi?$AA3?$AA2?$AA?$AA@ 0000000180021450     libucrt:winapi_thunks.obj
 0002:00002468       ??_C@_1BC@GDMECMAK@?$AAk?$AAe?$AAr?$AAn?$AAe?$AAl?$AA3?$AA2?$AA?$AA@ 0000000180021468     libucrt:winapi_thunks.obj
 0002:00002480       ??_C@_1M@OAIMIKLP@?$AAn?$AAt?$AAd?$AAl?$AAl?$AA?$AA@ 0000000180021480     libucrt:winapi_thunks.obj
 0002:00002490       ??_C@_1EG@DPGNFKGC@?$AAa?$AAp?$AAi?$AA?9?$AAm?$AAs?$AA?9?$AAw?$AAi?$AAn?$AA?9?$AAa?$AAp?$AAp?$AAm?$AAo?$AAd?$AAe?$AAl?$AA?9?$AAr?$AAu?$AAn?$AAt?$AAi?$AAm?$AAe?$AA?9?$AAl?$AA1?$AA?9?$AA1@ 0000000180021490     libucrt:winapi_thunks.obj
 0002:000024d8       ??_C@_1O@BCCLBEOE@?$AAu?$AAs?$AAe?$AAr?$AA3?$AA2?$AA?$AA@ 00000001800214d8     libucrt:winapi_thunks.obj
 0002:000024e8       ??_C@_1BA@PFFKHIOG@?$AAa?$AAp?$AAi?$AA?9?$AAm?$AAs?$AA?9?$AA?$AA@ 00000001800214e8     libucrt:winapi_thunks.obj
 0002:000024f8       ??_C@_1BA@IAIFMGEF@?$AAe?$AAx?$AAt?$AA?9?$AAm?$AAs?$AA?9?$AA?$AA@ 00000001800214f8     libucrt:winapi_thunks.obj
 0002:00002510       ??_C@_08KNHFBNJ@FlsAlloc?$AA@ 0000000180021510     libucrt:winapi_thunks.obj
 0002:00002528       ??_C@_07PEJMOBNF@FlsFree?$AA@ 0000000180021528     libucrt:winapi_thunks.obj
 0002:00002538       ??_C@_0M@GDNOONDI@FlsGetValue?$AA@ 0000000180021538     libucrt:winapi_thunks.obj
 0002:00002550       ??_C@_0M@JCPCPOEF@FlsSetValue?$AA@ 0000000180021550     libucrt:winapi_thunks.obj
 0002:00002568       ??_C@_0BA@HNOPNCHB@GetActiveWindow?$AA@ 0000000180021568     libucrt:winapi_thunks.obj
 0002:00002580       ??_C@_0BD@HHGDFDBJ@GetLastActivePopup?$AA@ 0000000180021580     libucrt:winapi_thunks.obj
 0002:000025a0       ??_C@_0BI@DFKBFLJE@GetProcessWindowStation?$AA@ 00000001800215a0     libucrt:winapi_thunks.obj
 0002:000025c0       ??_C@_0BK@DEKFELLI@GetUserObjectInformationW?$AA@ 00000001800215c0     libucrt:winapi_thunks.obj
 0002:000025e8       ??_C@_0BM@HCFOFFN@InitializeCriticalSectionEx?$AA@ 00000001800215e8     libucrt:winapi_thunks.obj
 0002:00002610       ??_C@_0O@KKBNKAPF@LCMapStringEx?$AA@ 0000000180021610     libucrt:winapi_thunks.obj
 0002:00002628       ??_C@_0BB@HBDEELFH@LocaleNameToLCID?$AA@ 0000000180021628     libucrt:winapi_thunks.obj
 0002:00002648       ??_C@_0M@CHKKJDAI@MessageBoxA?$AA@ 0000000180021648     libucrt:winapi_thunks.obj
 0002:00002660       ??_C@_0M@DLDCCGNP@MessageBoxW?$AA@ 0000000180021660     libucrt:winapi_thunks.obj
 0002:00002670       ??_C@_0CF@OJOFEIGO@AppPolicyGetProcessTerminationMe@ 0000000180021670     libucrt:winapi_thunks.obj
 0002:000026a0       ??_C@_0CE@OICFMIKE@AppPolicyGetShowDeveloperDiagnos@ 00000001800216a0     libucrt:winapi_thunks.obj
 0002:000026c8       ??_C@_0BL@ODDJNEDA@AppPolicyGetWindowingModel?$AA@ 00000001800216c8     libucrt:winapi_thunks.obj
 0002:000026f0       __newctype                 00000001800216f0     libucrt:ctype.obj
 0002:000029f0       __newclmap                 00000001800219f0     libucrt:ctype.obj
 0002:00002b70       __newcumap                 0000000180021b70     libucrt:ctype.obj
 0002:00002cf0       _wctype                    0000000180021cf0     libucrt:ctype.obj
 0002:00002ef4       ??_C@_00CNPNBAHC@?$AA@     0000000180021ef4     libucrt:mbrtowc.obj
 0002:00002f00       ?large_power_data@?1??multiply_by_power_of_ten@__crt_strtox@@YA_NAEAUbig_integer@2@I@Z@4QBIB 0000000180021f00     libucrt:cfout.obj
 0002:00003810       ?large_power_indices@?1??multiply_by_power_of_ten@__crt_strtox@@YA_NAEAUbig_integer@2@I@Z@4QBUunpack_index@?1??12@YA_N0I@Z@B 0000000180022810     libucrt:cfout.obj
 0002:000038a8       ?small_powers_of_ten@?1??multiply_by_power_of_ten@__crt_strtox@@YA_NAEAUbig_integer@2@I@Z@4QBIB 00000001800228a8     libucrt:cfout.obj
 0002:000038cc       ??_C@_01GBGANLPD@0?$AA@    00000001800228cc     libucrt:cfout.obj
 0002:000038d0       ??_C@_05DNEBIAHO@1?$CDINF?$AA@ 00000001800228d0     libucrt:cfout.obj
 0002:000038d8       ??_C@_06IMKFLFPG@1?$CDQNAN?$AA@ 00000001800228d8     libucrt:cfout.obj
 0002:000038e0       ??_C@_06PGGFOGJG@1?$CDSNAN?$AA@ 00000001800228e0     libucrt:cfout.obj
 0002:000038e8       ??_C@_05PHHOCPM@1?$CDIND?$AA@ 00000001800228e8     libucrt:cfout.obj
 0002:000038f0       ??_C@_15PJPFLCCM@?$AAu?$AAk?$AA?$AA@ 00000001800228f0     libucrt:get_qualified_locale.obj
 0002:00004740       ??_C@_15EMKDOKLE@?$AAa?$AAr?$AA?$AA@ 0000000180023740     libucrt:lcidtoname_downlevel.obj
 0002:00004748       ??_C@_15KNPADPLH@?$AAb?$AAg?$AA?$AA@ 0000000180023748     libucrt:lcidtoname_downlevel.obj
 0002:00004750       ??_C@_15EDMHLDMO@?$AAc?$AAa?$AA?$AA@ 0000000180023750     libucrt:lcidtoname_downlevel.obj
 0002:00004758       ??_C@_1O@BPEAJADD@?$AAz?$AAh?$AA?9?$AAC?$AAH?$AAS?$AA?$AA@ 0000000180023758     libucrt:lcidtoname_downlevel.obj
 0002:00004768       ??_C@_15LJNHCMNK@?$AAc?$AAs?$AA?$AA@ 0000000180023768     libucrt:lcidtoname_downlevel.obj
 0002:00004770       ??_C@_15FOMCIDHG@?$AAd?$AAa?$AA?$AA@ 0000000180023770     libucrt:lcidtoname_downlevel.obj
 0002:00004778       ??_C@_15NBKABECB@?$AAd?$AAe?$AA?$AA@ 0000000180023778     libucrt:lcidtoname_downlevel.obj
 0002:00004780       ??_C@_15GHPEIIAO@?$AAe?$AAl?$AA?$AA@ 0000000180023780     libucrt:lcidtoname_downlevel.obj
 0002:00004788       ??_C@_15MNPNEAIF@?$AAe?$AAn?$AA?$AA@ 0000000180023788     libucrt:lcidtoname_downlevel.obj
 0002:00004790       ??_C@_15GPIOMPMH@?$AAe?$AAs?$AA?$AA@ 0000000180023790     libucrt:lcidtoname_downlevel.obj
 0002:00004798       ??_C@_15NGLOAKJC@?$AAf?$AAi?$AA?$AA@ 0000000180023798     libucrt:lcidtoname_downlevel.obj
 0002:000047a0       ??_C@_15FBKGNKAM@?$AAf?$AAr?$AA?$AA@ 00000001800237a0     libucrt:lcidtoname_downlevel.obj
 0002:000047a8       ??_C@_15KGGCNEFK@?$AAh?$AAe?$AA?$AA@ 00000001800237a8     libucrt:lcidtoname_downlevel.obj
 0002:000047b0       ??_C@_15PGHLIDMF@?$AAh?$AAu?$AA?$AA@ 00000001800237b0     libucrt:lcidtoname_downlevel.obj
 0002:000047b8       ??_C@_15BIEMAPLM@?$AAi?$AAs?$AA?$AA@ 00000001800237b8     libucrt:lcidtoname_downlevel.obj
 0002:000047c0       ??_C@_15IFJLDHAF@?$AAi?$AAt?$AA?$AA@ 00000001800237c0     libucrt:lcidtoname_downlevel.obj
 0002:000047c8       ??_C@_15GEMIOCAG@?$AAj?$AAa?$AA?$AA@ 00000001800237c8     libucrt:lcidtoname_downlevel.obj
 0002:000047d0       ??_C@_15EPELEGJA@?$AAk?$AAo?$AA?$AA@ 00000001800237d0     libucrt:lcidtoname_downlevel.obj
 0002:000047d8       ??_C@_15NDDHIMN@?$AAn?$AAl?$AA?$AA@ 00000001800237d8     libucrt:lcidtoname_downlevel.obj
 0002:000047e0       ??_C@_15BPIGNHCD@?$AAn?$AAo?$AA?$AA@ 00000001800237e0     libucrt:lcidtoname_downlevel.obj
 0002:000047e8       ??_C@_15DEOPBLCG@?$AAp?$AAl?$AA?$AA@ 00000001800237e8     libucrt:lcidtoname_downlevel.obj
 0002:000047f0       ??_C@_15KBECGEFG@?$AAp?$AAt?$AA?$AA@ 00000001800237f0     libucrt:lcidtoname_downlevel.obj
 0002:000047f8       ??_C@_15GLJCBFMD@?$AAr?$AAo?$AA?$AA@ 00000001800237f8     libucrt:lcidtoname_downlevel.obj
 0002:00004800       ??_C@_15FEDGKCDI@?$AAr?$AAu?$AA?$AA@ 0000000180023800     libucrt:lcidtoname_downlevel.obj
 0002:00004808       ??_C@_15GLKMLLHM@?$AAh?$AAr?$AA?$AA@ 0000000180023808     libucrt:lcidtoname_downlevel.obj
 0002:00004810       ??_C@_15CPKMFBDB@?$AAs?$AAk?$AA?$AA@ 0000000180023810     libucrt:lcidtoname_downlevel.obj
 0002:00004818       ??_C@_15BAAIOGMK@?$AAs?$AAq?$AA?$AA@ 0000000180023818     libucrt:lcidtoname_downlevel.obj
 0002:00004820       ??_C@_15INNPNOHD@?$AAs?$AAv?$AA?$AA@ 0000000180023820     libucrt:lcidtoname_downlevel.obj
 0002:00004828       ??_C@_15CABMMOGH@?$AAt?$AAh?$AA?$AA@ 0000000180023828     libucrt:lcidtoname_downlevel.obj
 0002:00004830       ??_C@_15BPLIHJJM@?$AAt?$AAr?$AA?$AA@ 0000000180023830     libucrt:lcidtoname_downlevel.obj
 0002:00004838       ??_C@_15NEOEKKDJ@?$AAu?$AAr?$AA?$AA@ 0000000180023838     libucrt:lcidtoname_downlevel.obj
 0002:00004840       ??_C@_15NFICGAJK@?$AAi?$AAd?$AA?$AA@ 0000000180023840     libucrt:lcidtoname_downlevel.obj
 0002:00004848       ??_C@_15HPJPHDM@?$AAb?$AAe?$AA?$AA@ 0000000180023848     libucrt:lcidtoname_downlevel.obj
 0002:00004850       ??_C@_15LCHLGJII@?$AAs?$AAl?$AA?$AA@ 0000000180023850     libucrt:lcidtoname_downlevel.obj
 0002:00004858       ??_C@_15PCFJPHHO@?$AAe?$AAt?$AA?$AA@ 0000000180023858     libucrt:lcidtoname_downlevel.obj
 0002:00004860       ??_C@_15HPFPGODN@?$AAl?$AAv?$AA?$AA@ 0000000180023860     libucrt:lcidtoname_downlevel.obj
 0002:00004868       ??_C@_15NFFGKGLG@?$AAl?$AAt?$AA?$AA@ 0000000180023868     libucrt:lcidtoname_downlevel.obj
 0002:00004870       ??_C@_15BDAKCCHN@?$AAf?$AAa?$AA?$AA@ 0000000180023870     libucrt:lcidtoname_downlevel.obj
 0002:00004878       ??_C@_15NFGIAIAJ@?$AAv?$AAi?$AA?$AA@ 0000000180023878     libucrt:lcidtoname_downlevel.obj
 0002:00004880       ??_C@_15LMKNDMHN@?$AAh?$AAy?$AA?$AA@ 0000000180023880     libucrt:lcidtoname_downlevel.obj
 0002:00004888       ??_C@_15IJBHMCFL@?$AAa?$AAz?$AA?$AA@ 0000000180023888     libucrt:lcidtoname_downlevel.obj
 0002:00004890       ??_C@_15EKOFJABL@?$AAe?$AAu?$AA?$AA@ 0000000180023890     libucrt:lcidtoname_downlevel.obj
 0002:00004898       ??_C@_15BGHADCNK@?$AAm?$AAk?$AA?$AA@ 0000000180023898     libucrt:lcidtoname_downlevel.obj
 0002:000048a0       ??_C@_15JDNICKHM@?$AAa?$AAf?$AA?$AA@ 00000001800238a0     libucrt:lcidtoname_downlevel.obj
 0002:000048a8       ??_C@_15KPJEDBKD@?$AAk?$AAa?$AA?$AA@ 00000001800238a8     libucrt:lcidtoname_downlevel.obj
 0002:000048b0       ??_C@_15PDNFFFEO@?$AAf?$AAo?$AA?$AA@ 00000001800238b0     libucrt:lcidtoname_downlevel.obj
 0002:000048b8       ??_C@_15OMLEGLOC@?$AAh?$AAi?$AA?$AA@ 00000001800238b8     libucrt:lcidtoname_downlevel.obj
 0002:000048c0       ??_C@_15IDNNENKK@?$AAm?$AAs?$AA?$AA@ 00000001800238c0     libucrt:lcidtoname_downlevel.obj
 0002:000048c8       ??_C@_15MACJNBMH@?$AAk?$AAk?$AA?$AA@ 00000001800238c8     libucrt:lcidtoname_downlevel.obj
 0002:000048d0       ??_C@_15DKDJEOND@?$AAk?$AAy?$AA?$AA@ 00000001800238d0     libucrt:lcidtoname_downlevel.obj
 0002:000048d8       ??_C@_15DFGDLJBG@?$AAs?$AAw?$AA?$AA@ 00000001800238d8     libucrt:lcidtoname_downlevel.obj
 0002:000048e0       ??_C@_15BBFAICNG@?$AAu?$AAz?$AA?$AA@ 00000001800238e0     libucrt:lcidtoname_downlevel.obj
 0002:000048e8       ??_C@_15DKNDCGEA@?$AAt?$AAt?$AA?$AA@ 00000001800238e8     libucrt:lcidtoname_downlevel.obj
 0002:000048f0       ??_C@_15MGIFMDPL@?$AAp?$AAa?$AA?$AA@ 00000001800238f0     libucrt:lcidtoname_downlevel.obj
 0002:000048f8       ??_C@_15HCNDBBA@?$AAg?$AAu?$AA?$AA@ 00000001800238f8     libucrt:lcidtoname_downlevel.obj
 0002:00004900       ??_C@_15FNBEIBON@?$AAt?$AAa?$AA?$AA@ 0000000180023900     libucrt:lcidtoname_downlevel.obj
 0002:00004908       ??_C@_15NCHGBGLK@?$AAt?$AAe?$AA?$AA@ 0000000180023908     libucrt:lcidtoname_downlevel.obj
 0002:00004910       ??_C@_15PHPHCBPF@?$AAk?$AAn?$AA?$AA@ 0000000180023910     libucrt:lcidtoname_downlevel.obj
 0002:00004918       ??_C@_15DLGBCKMP@?$AAm?$AAr?$AA?$AA@ 0000000180023918     libucrt:lcidtoname_downlevel.obj
 0002:00004920       ??_C@_15EABBLBFF@?$AAs?$AAa?$AA?$AA@ 0000000180023920     libucrt:lcidtoname_downlevel.obj
 0002:00004928       ??_C@_15CBKOMCOI@?$AAm?$AAn?$AA?$AA@ 0000000180023928     libucrt:lcidtoname_downlevel.obj
 0002:00004930       ??_C@_15CKDMCJAF@?$AAg?$AAl?$AA?$AA@ 0000000180023930     libucrt:lcidtoname_downlevel.obj
 0002:00004938       ??_C@_17CNJFBPG@?$AAk?$AAo?$AAk?$AA?$AA@ 0000000180023938     libucrt:lcidtoname_downlevel.obj
 0002:00004940       ??_C@_17FFBJICPL@?$AAs?$AAy?$AAr?$AA?$AA@ 0000000180023940     libucrt:lcidtoname_downlevel.obj
 0002:00004948       ??_C@_17KPNDCPAF@?$AAd?$AAi?$AAv?$AA?$AA@ 0000000180023948     libucrt:lcidtoname_downlevel.obj
 0002:00004950       ??_C@_11LOCGONAA@?$AA?$AA@ 0000000180023950     libucrt:lcidtoname_downlevel.obj
 0002:00004958       ??_C@_1M@OKAHONE@?$AAa?$AAr?$AA?9?$AAS?$AAA?$AA?$AA@ 0000000180023958     libucrt:lcidtoname_downlevel.obj
 0002:00004968       ??_C@_1M@FFFIGIGK@?$AAb?$AAg?$AA?9?$AAB?$AAG?$AA?$AA@ 0000000180023968     libucrt:lcidtoname_downlevel.obj
 0002:00004978       ??_C@_1M@BJNKEDC@?$AAc?$AAa?$AA?9?$AAE?$AAS?$AA?$AA@ 0000000180023978     libucrt:lcidtoname_downlevel.obj
 0002:00004988       ??_C@_1M@IJJHFJHA@?$AAc?$AAs?$AA?9?$AAC?$AAZ?$AA?$AA@ 0000000180023988     libucrt:lcidtoname_downlevel.obj
 0002:00004998       ??_C@_1M@CLPEOBGI@?$AAd?$AAa?$AA?9?$AAD?$AAK?$AA?$AA@ 0000000180023998     libucrt:lcidtoname_downlevel.obj
 0002:000049a8       ??_C@_1M@MCMADGCB@?$AAd?$AAe?$AA?9?$AAD?$AAE?$AA?$AA@ 00000001800239a8     libucrt:lcidtoname_downlevel.obj
 0002:000049b8       ??_C@_1M@OOCKEMAM@?$AAe?$AAl?$AA?9?$AAG?$AAR?$AA?$AA@ 00000001800239b8     libucrt:lcidtoname_downlevel.obj
 0002:000049c8       ??_C@_1M@DDNJFGID@?$AAf?$AAi?$AA?9?$AAF?$AAI?$AA?$AA@ 00000001800239c8     libucrt:lcidtoname_downlevel.obj
 0002:000049d8       ??_C@_1M@GLIPPMAC@?$AAf?$AAr?$AA?9?$AAF?$AAR?$AA?$AA@ 00000001800239d8     libucrt:lcidtoname_downlevel.obj
 0002:000049e8       ??_C@_1M@GFMCHPE@?$AAh?$AAe?$AA?9?$AAI?$AAL?$AA?$AA@ 00000001800239e8     libucrt:lcidtoname_downlevel.obj
 0002:000049f8       ??_C@_1M@MHLPGNKM@?$AAh?$AAu?$AA?9?$AAH?$AAU?$AA?$AA@ 00000001800239f8     libucrt:lcidtoname_downlevel.obj
 0002:00004a08       ??_C@_1M@LPDDNNPN@?$AAi?$AAs?$AA?9?$AAI?$AAS?$AA?$AA@ 0000000180023a08     libucrt:lcidtoname_downlevel.obj
 0002:00004a18       ??_C@_1M@MADIPODN@?$AAi?$AAt?$AA?9?$AAI?$AAT?$AA?$AA@ 0000000180023a18     libucrt:lcidtoname_downlevel.obj
 0002:00004a28       ??_C@_1M@IHBJJGG@?$AAn?$AAl?$AA?9?$AAN?$AAL?$AA?$AA@ 0000000180023a28     libucrt:lcidtoname_downlevel.obj
 0002:00004a38       ??_C@_1M@EANAGDL@?$AAn?$AAb?$AA?9?$AAN?$AAO?$AA?$AA@ 0000000180023a38     libucrt:lcidtoname_downlevel.obj
 0002:00004a48       ??_C@_1M@NEIEMEGP@?$AAp?$AAl?$AA?9?$AAP?$AAL?$AA?$AA@ 0000000180023a48     libucrt:lcidtoname_downlevel.obj
 0002:00004a58       ??_C@_1M@BOCFIGEP@?$AAp?$AAt?$AA?9?$AAB?$AAR?$AA?$AA@ 0000000180023a58     libucrt:lcidtoname_downlevel.obj
 0002:00004a68       ??_C@_1M@IMPFOPBG@?$AAr?$AAo?$AA?9?$AAR?$AAO?$AA?$AA@ 0000000180023a68     libucrt:lcidtoname_downlevel.obj
 0002:00004a78       ??_C@_1M@IDNNEJMM@?$AAr?$AAu?$AA?9?$AAR?$AAU?$AA?$AA@ 0000000180023a78     libucrt:lcidtoname_downlevel.obj
 0002:00004a88       ??_C@_1M@LILEEOGM@?$AAh?$AAr?$AA?9?$AAH?$AAR?$AA?$AA@ 0000000180023a88     libucrt:lcidtoname_downlevel.obj
 0002:00004a98       ??_C@_1M@FKIFEHPB@?$AAs?$AAk?$AA?9?$AAS?$AAK?$AA?$AA@ 0000000180023a98     libucrt:lcidtoname_downlevel.obj
 0002:00004aa8       ??_C@_1M@LJMAMNPJ@?$AAs?$AAq?$AA?9?$AAA?$AAL?$AA?$AA@ 0000000180023aa8     libucrt:lcidtoname_downlevel.obj
 0002:00004ab8       ??_C@_1M@GIAKDKJK@?$AAs?$AAv?$AA?9?$AAS?$AAE?$AA?$AA@ 0000000180023ab8     libucrt:lcidtoname_downlevel.obj
 0002:00004ac8       ??_C@_1M@MKJKIKCL@?$AAt?$AAh?$AA?9?$AAT?$AAH?$AA?$AA@ 0000000180023ac8     libucrt:lcidtoname_downlevel.obj
 0002:00004ad8       ??_C@_1M@MFLCCMPB@?$AAt?$AAr?$AA?9?$AAT?$AAR?$AA?$AA@ 0000000180023ad8     libucrt:lcidtoname_downlevel.obj
 0002:00004ae8       ??_C@_1M@OIJHDKJN@?$AAu?$AAr?$AA?9?$AAP?$AAK?$AA?$AA@ 0000000180023ae8     libucrt:lcidtoname_downlevel.obj
 0002:00004af8       ??_C@_1M@LHIPCIEK@?$AAi?$AAd?$AA?9?$AAI?$AAD?$AA?$AA@ 0000000180023af8     libucrt:lcidtoname_downlevel.obj
 0002:00004b08       ??_C@_1M@MFMOBGI@?$AAu?$AAk?$AA?9?$AAU?$AAA?$AA?$AA@ 0000000180023b08     libucrt:lcidtoname_downlevel.obj
 0002:00004b18       ??_C@_1M@OBGLJIPL@?$AAb?$AAe?$AA?9?$AAB?$AAY?$AA?$AA@ 0000000180023b18     libucrt:lcidtoname_downlevel.obj
 0002:00004b28       ??_C@_1M@BCFAJEAD@?$AAs?$AAl?$AA?9?$AAS?$AAI?$AA?$AA@ 0000000180023b28     libucrt:lcidtoname_downlevel.obj
 0002:00004b38       ??_C@_1M@FKFFEDDN@?$AAe?$AAt?$AA?9?$AAE?$AAE?$AA?$AA@ 0000000180023b38     libucrt:lcidtoname_downlevel.obj
 0002:00004b48       ??_C@_1M@KGKKAACI@?$AAl?$AAv?$AA?9?$AAL?$AAV?$AA?$AA@ 0000000180023b48     libucrt:lcidtoname_downlevel.obj
 0002:00004b58       ??_C@_1M@IFGBIJO@?$AAl?$AAt?$AA?9?$AAL?$AAT?$AA?$AA@ 0000000180023b58     libucrt:lcidtoname_downlevel.obj
 0002:00004b68       ??_C@_1M@FGEAHEDM@?$AAf?$AAa?$AA?9?$AAI?$AAR?$AA?$AA@ 0000000180023b68     libucrt:lcidtoname_downlevel.obj
 0002:00004b78       ??_C@_1M@KBMAIBFN@?$AAv?$AAi?$AA?9?$AAV?$AAN?$AA?$AA@ 0000000180023b78     libucrt:lcidtoname_downlevel.obj
 0002:00004b88       ??_C@_1M@GPCBKDJK@?$AAh?$AAy?$AA?9?$AAA?$AAM?$AA?$AA@ 0000000180023b88     libucrt:lcidtoname_downlevel.obj
 0002:00004b98       ??_C@_1BG@BECMDDJB@?$AAa?$AAz?$AA?9?$AAA?$AAZ?$AA?9?$AAL?$AAa?$AAt?$AAn?$AA?$AA@ 0000000180023b98     libucrt:lcidtoname_downlevel.obj
 0002:00004bb0       ??_C@_1M@MAOFCAEA@?$AAe?$AAu?$AA?9?$AAE?$AAS?$AA?$AA@ 0000000180023bb0     libucrt:lcidtoname_downlevel.obj
 0002:00004bc0       ??_C@_1M@IGHABKPI@?$AAm?$AAk?$AA?9?$AAM?$AAK?$AA?$AA@ 0000000180023bc0     libucrt:lcidtoname_downlevel.obj
 0002:00004bd0       ??_C@_1M@IAIGNEJG@?$AAt?$AAn?$AA?9?$AAZ?$AAA?$AA?$AA@ 0000000180023bd0     libucrt:lcidtoname_downlevel.obj
 0002:00004be0       ??_C@_1M@IIJCOJFA@?$AAx?$AAh?$AA?9?$AAZ?$AAA?$AA?$AA@ 0000000180023be0     libucrt:lcidtoname_downlevel.obj
 0002:00004bf0       ??_C@_1M@LGPJHNJH@?$AAz?$AAu?$AA?9?$AAZ?$AAA?$AA?$AA@ 0000000180023bf0     libucrt:lcidtoname_downlevel.obj
 0002:00004c00       ??_C@_1M@HOKAOIO@?$AAa?$AAf?$AA?9?$AAZ?$AAA?$AA?$AA@ 0000000180023c00     libucrt:lcidtoname_downlevel.obj
 0002:00004c10       ??_C@_1M@DPCLHLIE@?$AAk?$AAa?$AA?9?$AAG?$AAE?$AA?$AA@ 0000000180023c10     libucrt:lcidtoname_downlevel.obj
 0002:00004c20       ??_C@_1M@BLKMHJBI@?$AAf?$AAo?$AA?9?$AAF?$AAO?$AA?$AA@ 0000000180023c20     libucrt:lcidtoname_downlevel.obj
 0002:00004c30       ??_C@_1M@LGGJAPPB@?$AAh?$AAi?$AA?9?$AAI?$AAN?$AA?$AA@ 0000000180023c30     libucrt:lcidtoname_downlevel.obj
 0002:00004c40       ??_C@_1M@FIKPIHFE@?$AAm?$AAt?$AA?9?$AAM?$AAT?$AA?$AA@ 0000000180023c40     libucrt:lcidtoname_downlevel.obj
 0002:00004c50       ??_C@_1M@HEGGPBFA@?$AAs?$AAe?$AA?9?$AAN?$AAO?$AA?$AA@ 0000000180023c50     libucrt:lcidtoname_downlevel.obj
 0002:00004c60       ??_C@_1M@EIBJEEPA@?$AAm?$AAs?$AA?9?$AAM?$AAY?$AA?$AA@ 0000000180023c60     libucrt:lcidtoname_downlevel.obj
 0002:00004c70       ??_C@_1M@FHLBGMPP@?$AAk?$AAk?$AA?9?$AAK?$AAZ?$AA?$AA@ 0000000180023c70     libucrt:lcidtoname_downlevel.obj
 0002:00004c80       ??_C@_1M@NGJJLCGI@?$AAk?$AAy?$AA?9?$AAK?$AAG?$AA?$AA@ 0000000180023c80     libucrt:lcidtoname_downlevel.obj
 0002:00004c90       ??_C@_1M@GIENNBFC@?$AAs?$AAw?$AA?9?$AAK?$AAE?$AA?$AA@ 0000000180023c90     libucrt:lcidtoname_downlevel.obj
 0002:00004ca0       ??_C@_1BG@NDGMJIMJ@?$AAu?$AAz?$AA?9?$AAU?$AAZ?$AA?9?$AAL?$AAa?$AAt?$AAn?$AA?$AA@ 0000000180023ca0     libucrt:lcidtoname_downlevel.obj
 0002:00004cb8       ??_C@_1M@IDCCIHBC@?$AAt?$AAt?$AA?9?$AAR?$AAU?$AA?$AA@ 0000000180023cb8     libucrt:lcidtoname_downlevel.obj
 0002:00004cc8       ??_C@_1M@LOICPMOJ@?$AAb?$AAn?$AA?9?$AAI?$AAN?$AA?$AA@ 0000000180023cc8     libucrt:lcidtoname_downlevel.obj
 0002:00004cd8       ??_C@_1M@KPKKNEAH@?$AAp?$AAa?$AA?9?$AAI?$AAN?$AA?$AA@ 0000000180023cd8     libucrt:lcidtoname_downlevel.obj
 0002:00004ce8       ??_C@_1M@PJGPPBOG@?$AAg?$AAu?$AA?9?$AAI?$AAN?$AA?$AA@ 0000000180023ce8     libucrt:lcidtoname_downlevel.obj
 0002:00004cf8       ??_C@_1M@KMKMOPHI@?$AAt?$AAa?$AA?9?$AAI?$AAN?$AA?$AA@ 0000000180023cf8     libucrt:lcidtoname_downlevel.obj
 0002:00004d08       ??_C@_1M@KFEHEPAC@?$AAt?$AAe?$AA?9?$AAI?$AAN?$AA?$AA@ 0000000180023d08     libucrt:lcidtoname_downlevel.obj
 0002:00004d18       ??_C@_1M@CDCLMGHI@?$AAk?$AAn?$AA?9?$AAI?$AAN?$AA?$AA@ 0000000180023d18     libucrt:lcidtoname_downlevel.obj
 0002:00004d28       ??_C@_1M@MIODLDKF@?$AAm?$AAl?$AA?9?$AAI?$AAN?$AA?$AA@ 0000000180023d28     libucrt:lcidtoname_downlevel.obj
 0002:00004d38       ??_C@_1M@PBIEACPO@?$AAm?$AAr?$AA?9?$AAI?$AAN?$AA?$AA@ 0000000180023d38     libucrt:lcidtoname_downlevel.obj
 0002:00004d48       ??_C@_1M@NIDEAGPH@?$AAs?$AAa?$AA?9?$AAI?$AAN?$AA?$AA@ 0000000180023d48     libucrt:lcidtoname_downlevel.obj
 0002:00004d58       ??_C@_1M@FHIHCBIO@?$AAm?$AAn?$AA?9?$AAM?$AAN?$AA?$AA@ 0000000180023d58     libucrt:lcidtoname_downlevel.obj
 0002:00004d68       ??_C@_1M@JAIJPENP@?$AAc?$AAy?$AA?9?$AAG?$AAB?$AA?$AA@ 0000000180023d68     libucrt:lcidtoname_downlevel.obj
 0002:00004d78       ??_C@_1M@PHGFBEPN@?$AAg?$AAl?$AA?9?$AAE?$AAS?$AA?$AA@ 0000000180023d78     libucrt:lcidtoname_downlevel.obj
 0002:00004d88       ??_C@_1O@KPIPDNCP@?$AAk?$AAo?$AAk?$AA?9?$AAI?$AAN?$AA?$AA@ 0000000180023d88     libucrt:lcidtoname_downlevel.obj
 0002:00004d98       ??_C@_1O@KNHJLDJA@?$AAs?$AAy?$AAr?$AA?9?$AAS?$AAY?$AA?$AA@ 0000000180023d98     libucrt:lcidtoname_downlevel.obj
 0002:00004da8       ??_C@_1O@MKEKBLAH@?$AAd?$AAi?$AAv?$AA?9?$AAM?$AAV?$AA?$AA@ 0000000180023da8     libucrt:lcidtoname_downlevel.obj
 0002:00004db8       ??_C@_1O@OHDCKDDF@?$AAq?$AAu?$AAz?$AA?9?$AAB?$AAO?$AA?$AA@ 0000000180023db8     libucrt:lcidtoname_downlevel.obj
 0002:00004dc8       ??_C@_1M@LEPJNLFD@?$AAn?$AAs?$AA?9?$AAZ?$AAA?$AA?$AA@ 0000000180023dc8     libucrt:lcidtoname_downlevel.obj
 0002:00004dd8       ??_C@_1M@OMLEIIJB@?$AAm?$AAi?$AA?9?$AAN?$AAZ?$AA?$AA@ 0000000180023dd8     libucrt:lcidtoname_downlevel.obj
 0002:00004de8       ??_C@_1M@PMPEAILG@?$AAa?$AAr?$AA?9?$AAI?$AAQ?$AA?$AA@ 0000000180023de8     libucrt:lcidtoname_downlevel.obj
 0002:00004df8       ??_C@_1M@CNKPNOEE@?$AAd?$AAe?$AA?9?$AAC?$AAH?$AA?$AA@ 0000000180023df8     libucrt:lcidtoname_downlevel.obj
 0002:00004e08       ??_C@_1M@LKMGMLKO@?$AAe?$AAn?$AA?9?$AAG?$AAB?$AA?$AA@ 0000000180023e08     libucrt:lcidtoname_downlevel.obj
 0002:00004e18       ??_C@_1M@PGKJFFGL@?$AAe?$AAs?$AA?9?$AAM?$AAX?$AA?$AA@ 0000000180023e18     libucrt:lcidtoname_downlevel.obj
 0002:00004e28       ??_C@_1M@DNNANBDC@?$AAf?$AAr?$AA?9?$AAB?$AAE?$AA?$AA@ 0000000180023e28     libucrt:lcidtoname_downlevel.obj
 0002:00004e38       ??_C@_1M@HLGMDFHM@?$AAi?$AAt?$AA?9?$AAC?$AAH?$AA?$AA@ 0000000180023e38     libucrt:lcidtoname_downlevel.obj
 0002:00004e48       ??_C@_1M@CLLBGJH@?$AAn?$AAl?$AA?9?$AAB?$AAE?$AA?$AA@ 0000000180023e48     libucrt:lcidtoname_downlevel.obj
 0002:00004e58       ??_C@_1M@BODBOGLF@?$AAn?$AAn?$AA?9?$AAN?$AAO?$AA?$AA@ 0000000180023e58     libucrt:lcidtoname_downlevel.obj
 0002:00004e68       ??_C@_1M@HFFAHKAD@?$AAp?$AAt?$AA?9?$AAP?$AAT?$AA?$AA@ 0000000180023e68     libucrt:lcidtoname_downlevel.obj
 0002:00004e78       ??_C@_1BG@LNOAKHIE@?$AAs?$AAr?$AA?9?$AAS?$AAP?$AA?9?$AAL?$AAa?$AAt?$AAn?$AA?$AA@ 0000000180023e78     libucrt:lcidtoname_downlevel.obj
 0002:00004e90       ??_C@_1M@HBMHBGAK@?$AAs?$AAv?$AA?9?$AAF?$AAI?$AA?$AA@ 0000000180023e90     libucrt:lcidtoname_downlevel.obj
 0002:00004ea0       ??_C@_1BG@DGCJGJBE@?$AAa?$AAz?$AA?9?$AAA?$AAZ?$AA?9?$AAC?$AAy?$AAr?$AAl?$AA?$AA@ 0000000180023ea0     libucrt:lcidtoname_downlevel.obj
 0002:00004eb8       ??_C@_1M@KEJDAAHB@?$AAs?$AAe?$AA?9?$AAS?$AAE?$AA?$AA@ 0000000180023eb8     libucrt:lcidtoname_downlevel.obj
 0002:00004ec8       ??_C@_1M@HEIBJJAD@?$AAm?$AAs?$AA?9?$AAB?$AAN?$AA?$AA@ 0000000180023ec8     libucrt:lcidtoname_downlevel.obj
 0002:00004ed8       ??_C@_1BG@PBGJMCEM@?$AAu?$AAz?$AA?9?$AAU?$AAZ?$AA?9?$AAC?$AAy?$AAr?$AAl?$AA?$AA@ 0000000180023ed8     libucrt:lcidtoname_downlevel.obj
 0002:00004ef0       ??_C@_1O@LAOBCMDF@?$AAq?$AAu?$AAz?$AA?9?$AAE?$AAC?$AA?$AA@ 0000000180023ef0     libucrt:lcidtoname_downlevel.obj
 0002:00004f00       ??_C@_1M@POEEMAIO@?$AAa?$AAr?$AA?9?$AAE?$AAG?$AA?$AA@ 0000000180023f00     libucrt:lcidtoname_downlevel.obj
 0002:00004f10       ??_C@_1M@EFAKDEDL@?$AAz?$AAh?$AA?9?$AAH?$AAK?$AA?$AA@ 0000000180023f10     libucrt:lcidtoname_downlevel.obj
 0002:00004f20       ??_C@_1M@HKKIJHGI@?$AAd?$AAe?$AA?9?$AAA?$AAT?$AA?$AA@ 0000000180023f20     libucrt:lcidtoname_downlevel.obj
 0002:00004f30       ??_C@_1M@KBFBEHJF@?$AAe?$AAn?$AA?9?$AAA?$AAU?$AA?$AA@ 0000000180023f30     libucrt:lcidtoname_downlevel.obj
 0002:00004f40       ??_C@_1M@MNPLFAAH@?$AAe?$AAs?$AA?9?$AAE?$AAS?$AA?$AA@ 0000000180023f40     libucrt:lcidtoname_downlevel.obj
 0002:00004f50       ??_C@_1M@HJOOJFMA@?$AAf?$AAr?$AA?9?$AAC?$AAA?$AA?$AA@ 0000000180023f50     libucrt:lcidtoname_downlevel.obj
 0002:00004f60       ??_C@_1BG@JPOFPNAB@?$AAs?$AAr?$AA?9?$AAS?$AAP?$AA?9?$AAC?$AAy?$AAr?$AAl?$AA?$AA@ 0000000180023f60     libucrt:lcidtoname_downlevel.obj
 0002:00004f78       ??_C@_1M@LNFOCMOB@?$AAs?$AAe?$AA?9?$AAF?$AAI?$AA?$AA@ 0000000180023f78     libucrt:lcidtoname_downlevel.obj
 0002:00004f88       ??_C@_1O@MGJBOAMB@?$AAq?$AAu?$AAz?$AA?9?$AAP?$AAE?$AA?$AA@ 0000000180023f88     libucrt:lcidtoname_downlevel.obj
 0002:00004f98       ??_C@_1M@GJINLBOK@?$AAa?$AAr?$AA?9?$AAL?$AAY?$AA?$AA@ 0000000180023f98     libucrt:lcidtoname_downlevel.obj
 0002:00004fa8       ??_C@_1M@GGMNHJNL@?$AAz?$AAh?$AA?9?$AAS?$AAG?$AA?$AA@ 0000000180023fa8     libucrt:lcidtoname_downlevel.obj
 0002:00004fb8       ??_C@_1M@HOIKODND@?$AAd?$AAe?$AA?9?$AAL?$AAU?$AA?$AA@ 0000000180023fb8     libucrt:lcidtoname_downlevel.obj
 0002:00004fc8       ??_C@_1M@DDOCCGFG@?$AAe?$AAn?$AA?9?$AAC?$AAA?$AA?$AA@ 0000000180023fc8     libucrt:lcidtoname_downlevel.obj
 0002:00004fd8       ??_C@_1M@BNOEMJLF@?$AAe?$AAs?$AA?9?$AAG?$AAT?$AA?$AA@ 0000000180023fd8     libucrt:lcidtoname_downlevel.obj
 0002:00004fe8       ??_C@_1M@EOGNKEK@?$AAf?$AAr?$AA?9?$AAC?$AAH?$AA?$AA@ 0000000180023fe8     libucrt:lcidtoname_downlevel.obj
 0002:00004ff8       ??_C@_1M@FLIDJFHL@?$AAh?$AAr?$AA?9?$AAB?$AAA?$AA?$AA@ 0000000180023ff8     libucrt:lcidtoname_downlevel.obj
 0002:00005008       ??_C@_1O@FMCELNAJ@?$AAs?$AAm?$AAj?$AA?9?$AAN?$AAO?$AA?$AA@ 0000000180024008     libucrt:lcidtoname_downlevel.obj
 0002:00005018       ??_C@_1M@JHGLJMGJ@?$AAa?$AAr?$AA?9?$AAD?$AAZ?$AA?$AA@ 0000000180024018     libucrt:lcidtoname_downlevel.obj
 0002:00005028       ??_C@_1M@JKKFDCNP@?$AAz?$AAh?$AA?9?$AAM?$AAO?$AA?$AA@ 0000000180024028     libucrt:lcidtoname_downlevel.obj
 0002:00005038       ??_C@_1M@GEEFALPE@?$AAd?$AAe?$AA?9?$AAL?$AAI?$AA?$AA@ 0000000180024038     libucrt:lcidtoname_downlevel.obj
 0002:00005048       ??_C@_1M@IGEOFBG@?$AAe?$AAn?$AA?9?$AAN?$AAZ?$AA?$AA@ 0000000180024048     libucrt:lcidtoname_downlevel.obj
 0002:00005058       ??_C@_1M@KDBONEHP@?$AAe?$AAs?$AA?9?$AAC?$AAR?$AA?$AA@ 0000000180024058     libucrt:lcidtoname_downlevel.obj
 0002:00005068       ??_C@_1M@FHMDOHNN@?$AAf?$AAr?$AA?9?$AAL?$AAU?$AA?$AA@ 0000000180024068     libucrt:lcidtoname_downlevel.obj
 0002:00005078       ??_C@_1BG@NFKKMAFG@?$AAb?$AAs?$AA?9?$AAB?$AAA?$AA?9?$AAL?$AAa?$AAt?$AAn?$AA?$AA@ 0000000180024078     libucrt:lcidtoname_downlevel.obj
 0002:00005090       ??_C@_1O@IMNBEMCI@?$AAs?$AAm?$AAj?$AA?9?$AAS?$AAE?$AA?$AA@ 0000000180024090     libucrt:lcidtoname_downlevel.obj
 0002:000050a0       ??_C@_1M@DHHMBNDP@?$AAa?$AAr?$AA?9?$AAM?$AAA?$AA?$AA@ 00000001800240a0     libucrt:lcidtoname_downlevel.obj
 0002:000050b0       ??_C@_1M@BNBLJCGH@?$AAe?$AAn?$AA?9?$AAI?$AAE?$AA?$AA@ 00000001800240b0     libucrt:lcidtoname_downlevel.obj
 0002:000050c0       ??_C@_1M@GEPAFMDL@?$AAe?$AAs?$AA?9?$AAP?$AAA?$AA?$AA@ 00000001800240c0     libucrt:lcidtoname_downlevel.obj
 0002:000050d0       ??_C@_1M@OJONDMDL@?$AAf?$AAr?$AA?9?$AAM?$AAC?$AA?$AA@ 00000001800240d0     libucrt:lcidtoname_downlevel.obj
 0002:000050e0       ??_C@_1BG@OBCNFJB@?$AAs?$AAr?$AA?9?$AAB?$AAA?$AA?9?$AAL?$AAa?$AAt?$AAn?$AA?$AA@ 00000001800240e0     libucrt:lcidtoname_downlevel.obj
 0002:000050f8       ??_C@_1O@KEMEEGPO@?$AAs?$AAm?$AAa?$AA?9?$AAN?$AAO?$AA?$AA@ 00000001800240f8     libucrt:lcidtoname_downlevel.obj
 0002:00005108       ??_C@_1M@ELMGFODK@?$AAa?$AAr?$AA?9?$AAT?$AAN?$AA?$AA@ 0000000180024108     libucrt:lcidtoname_downlevel.obj
 0002:00005118       ??_C@_1M@BHDLHFAF@?$AAe?$AAn?$AA?9?$AAZ?$AAA?$AA?$AA@ 0000000180024118     libucrt:lcidtoname_downlevel.obj
 0002:00005128       ??_C@_1M@BMGIGLIF@?$AAe?$AAs?$AA?9?$AAD?$AAO?$AA?$AA@ 0000000180024128     libucrt:lcidtoname_downlevel.obj
 0002:00005138       ??_C@_1BG@CMBHIPBE@?$AAs?$AAr?$AA?9?$AAB?$AAA?$AA?9?$AAC?$AAy?$AAr?$AAl?$AA?$AA@ 0000000180024138     libucrt:lcidtoname_downlevel.obj
 0002:00005150       ??_C@_1O@HEDBLHNP@?$AAs?$AAm?$AAa?$AA?9?$AAS?$AAE?$AA?$AA@ 0000000180024150     libucrt:lcidtoname_downlevel.obj
 0002:00005160       ??_C@_1M@DAGCADIM@?$AAa?$AAr?$AA?9?$AAO?$AAM?$AA?$AA@ 0000000180024160     libucrt:lcidtoname_downlevel.obj
 0002:00005170       ??_C@_1M@FODLMICG@?$AAe?$AAn?$AA?9?$AAJ?$AAM?$AA?$AA@ 0000000180024170     libucrt:lcidtoname_downlevel.obj
 0002:00005180       ??_C@_1M@DNMLCIHB@?$AAe?$AAs?$AA?9?$AAV?$AAE?$AA?$AA@ 0000000180024180     libucrt:lcidtoname_downlevel.obj
 0002:00005190       ??_C@_1O@EOKHMKJK@?$AAs?$AAm?$AAs?$AA?9?$AAF?$AAI?$AA?$AA@ 0000000180024190     libucrt:lcidtoname_downlevel.obj
 0002:000051a0       ??_C@_1M@CAFJMKOF@?$AAa?$AAr?$AA?9?$AAY?$AAE?$AA?$AA@ 00000001800241a0     libucrt:lcidtoname_downlevel.obj
 0002:000051b0       ??_C@_1M@CBFHIJLI@?$AAe?$AAn?$AA?9?$AAC?$AAB?$AA?$AA@ 00000001800241b0     libucrt:lcidtoname_downlevel.obj
 0002:000051c0       ??_C@_1M@BGNFLDN@?$AAe?$AAs?$AA?9?$AAC?$AAO?$AA?$AA@ 00000001800241c0     libucrt:lcidtoname_downlevel.obj
 0002:000051d0       ??_C@_1O@JMPHMAMC@?$AAs?$AAm?$AAn?$AA?9?$AAF?$AAI?$AA?$AA@ 00000001800241d0     libucrt:lcidtoname_downlevel.obj
 0002:000051e0       ??_C@_1M@JLANABKE@?$AAa?$AAr?$AA?9?$AAS?$AAY?$AA?$AA@ 00000001800241e0     libucrt:lcidtoname_downlevel.obj
 0002:000051f0       ??_C@_1M@HPKGCFGN@?$AAe?$AAn?$AA?9?$AAB?$AAZ?$AA?$AA@ 00000001800241f0     libucrt:lcidtoname_downlevel.obj
 0002:00005200       ??_C@_1M@OLJCMLGM@?$AAe?$AAs?$AA?9?$AAP?$AAE?$AA?$AA@ 0000000180024200     libucrt:lcidtoname_downlevel.obj
 0002:00005210       ??_C@_1M@MKKGFKLE@?$AAa?$AAr?$AA?9?$AAJ?$AAO?$AA?$AA@ 0000000180024210     libucrt:lcidtoname_downlevel.obj
 0002:00005220       ??_C@_1M@EKPGLDNI@?$AAe?$AAn?$AA?9?$AAT?$AAT?$AA?$AA@ 0000000180024220     libucrt:lcidtoname_downlevel.obj
 0002:00005230       ??_C@_1M@OONGHFHE@?$AAe?$AAs?$AA?9?$AAA?$AAR?$AA?$AA@ 0000000180024230     libucrt:lcidtoname_downlevel.obj
 0002:00005240       ??_C@_1M@OOJFGBHE@?$AAa?$AAr?$AA?9?$AAL?$AAB?$AA?$AA@ 0000000180024240     libucrt:lcidtoname_downlevel.obj
 0002:00005250       ??_C@_1M@GCEJHNEG@?$AAe?$AAn?$AA?9?$AAZ?$AAW?$AA?$AA@ 0000000180024250     libucrt:lcidtoname_downlevel.obj
 0002:00005260       ??_C@_1M@JNOCAHJI@?$AAe?$AAs?$AA?9?$AAE?$AAC?$AA?$AA@ 0000000180024260     libucrt:lcidtoname_downlevel.obj
 0002:00005270       ??_C@_1M@JEFHPGGB@?$AAa?$AAr?$AA?9?$AAK?$AAW?$AA?$AA@ 0000000180024270     libucrt:lcidtoname_downlevel.obj
 0002:00005280       ??_C@_1M@MLKIBJOJ@?$AAe?$AAn?$AA?9?$AAP?$AAH?$AA?$AA@ 0000000180024280     libucrt:lcidtoname_downlevel.obj
 0002:00005290       ??_C@_1M@BDNIPEND@?$AAe?$AAs?$AA?9?$AAC?$AAL?$AA?$AA@ 0000000180024290     libucrt:lcidtoname_downlevel.obj
 0002:000052a0       ??_C@_1M@MPNMEKBD@?$AAa?$AAr?$AA?9?$AAA?$AAE?$AA?$AA@ 00000001800242a0     libucrt:lcidtoname_downlevel.obj
 0002:000052b0       ??_C@_1M@KBJALCPI@?$AAe?$AAs?$AA?9?$AAU?$AAY?$AA?$AA@ 00000001800242b0     libucrt:lcidtoname_downlevel.obj
 0002:000052c0       ??_C@_1M@LLCCOAGA@?$AAa?$AAr?$AA?9?$AAB?$AAH?$AA?$AA@ 00000001800242c0     libucrt:lcidtoname_downlevel.obj
 0002:000052d0       ??_C@_1M@PBFNCDEL@?$AAe?$AAs?$AA?9?$AAP?$AAY?$AA?$AA@ 00000001800242d0     libucrt:lcidtoname_downlevel.obj
 0002:000052e0       ??_C@_1M@EDGINPNP@?$AAa?$AAr?$AA?9?$AAQ?$AAA?$AA?$AA@ 00000001800242e0     libucrt:lcidtoname_downlevel.obj
 0002:000052f0       ??_C@_1M@MKDBIIJI@?$AAe?$AAs?$AA?9?$AAB?$AAO?$AA?$AA@ 00000001800242f0     libucrt:lcidtoname_downlevel.obj
 0002:00005300       ??_C@_1M@CPKKEBLD@?$AAe?$AAs?$AA?9?$AAS?$AAV?$AA?$AA@ 0000000180024300     libucrt:lcidtoname_downlevel.obj
 0002:00005310       ??_C@_1M@NDBGMMJL@?$AAe?$AAs?$AA?9?$AAH?$AAN?$AA?$AA@ 0000000180024310     libucrt:lcidtoname_downlevel.obj
 0002:00005320       ??_C@_1M@JIJIBHDP@?$AAe?$AAs?$AA?9?$AAN?$AAI?$AA?$AA@ 0000000180024320     libucrt:lcidtoname_downlevel.obj
 0002:00005330       ??_C@_1M@CGFMKEEK@?$AAe?$AAs?$AA?9?$AAP?$AAR?$AA?$AA@ 0000000180024330     libucrt:lcidtoname_downlevel.obj
 0002:00005340       ??_C@_1O@ICJHKIIK@?$AAz?$AAh?$AA?9?$AAC?$AAH?$AAT?$AA?$AA@ 0000000180024340     libucrt:lcidtoname_downlevel.obj
 0002:00005350       ??_C@_15CLNEJCE@?$AAs?$AAr?$AA?$AA@ 0000000180024350     libucrt:lcidtoname_downlevel.obj
 0002:000061a0       ??_C@_1M@KAHEKEIG@?$AAa?$AAf?$AA?9?$AAz?$AAa?$AA?$AA@ 00000001800251a0     libucrt:lcidtoname_downlevel.obj
 0002:000061b0       ??_C@_1M@GIECOABL@?$AAa?$AAr?$AA?9?$AAa?$AAe?$AA?$AA@ 00000001800251b0     libucrt:lcidtoname_downlevel.obj
 0002:000061c0       ??_C@_1M@BMLMEKGI@?$AAa?$AAr?$AA?9?$AAb?$AAh?$AA?$AA@ 00000001800251c0     libucrt:lcidtoname_downlevel.obj
 0002:000061d0       ??_C@_1M@DAPFDGGB@?$AAa?$AAr?$AA?9?$AAd?$AAz?$AA?$AA@ 00000001800251d0     libucrt:lcidtoname_downlevel.obj
 0002:000061e0       ??_C@_1M@FJNKGKIG@?$AAa?$AAr?$AA?9?$AAe?$AAg?$AA?$AA@ 00000001800251e0     libucrt:lcidtoname_downlevel.obj
 0002:000061f0       ??_C@_1M@FLGKKCLO@?$AAa?$AAr?$AA?9?$AAi?$AAq?$AA?$AA@ 00000001800251f0     libucrt:lcidtoname_downlevel.obj
 0002:00006200       ??_C@_1M@GNDIPALM@?$AAa?$AAr?$AA?9?$AAj?$AAo?$AA?$AA@ 0000000180025200     libucrt:lcidtoname_downlevel.obj
 0002:00006210       ??_C@_1M@DDMJFMGJ@?$AAa?$AAr?$AA?9?$AAk?$AAw?$AA?$AA@ 0000000180025210     libucrt:lcidtoname_downlevel.obj
 0002:00006220       ??_C@_1M@EJALMLHM@?$AAa?$AAr?$AA?9?$AAl?$AAb?$AA?$AA@ 0000000180025220     libucrt:lcidtoname_downlevel.obj
 0002:00006230       ??_C@_1M@MOBDBLOC@?$AAa?$AAr?$AA?9?$AAl?$AAy?$AA?$AA@ 0000000180025230     libucrt:lcidtoname_downlevel.obj
 0002:00006240       ??_C@_1M@JAOCLHDH@?$AAa?$AAr?$AA?9?$AAm?$AAa?$AA?$AA@ 0000000180025240     libucrt:lcidtoname_downlevel.obj
 0002:00006250       ??_C@_1M@JHPMKJIE@?$AAa?$AAr?$AA?9?$AAo?$AAm?$AA?$AA@ 0000000180025250     libucrt:lcidtoname_downlevel.obj
 0002:00006260       ??_C@_1M@OEPGHFNH@?$AAa?$AAr?$AA?9?$AAq?$AAa?$AA?$AA@ 0000000180025260     libucrt:lcidtoname_downlevel.obj
 0002:00006270       ??_C@_1M@KJDONENM@?$AAa?$AAr?$AA?9?$AAs?$AAa?$AA?$AA@ 0000000180025270     libucrt:lcidtoname_downlevel.obj
 0002:00006280       ??_C@_1M@DMJDKLKM@?$AAa?$AAr?$AA?9?$AAs?$AAy?$AA?$AA@ 0000000180025280     libucrt:lcidtoname_downlevel.obj
 0002:00006290       ??_C@_1M@OMFIPEDC@?$AAa?$AAr?$AA?9?$AAt?$AAn?$AA?$AA@ 0000000180025290     libucrt:lcidtoname_downlevel.obj
 0002:000062a0       ??_C@_1M@IHMHGAON@?$AAa?$AAr?$AA?9?$AAy?$AAe?$AA?$AA@ 00000001800252a0     libucrt:lcidtoname_downlevel.obj
 0002:000062b0       ??_C@_1BG@KDCPGJGB@?$AAa?$AAz?$AA?9?$AAa?$AAz?$AA?9?$AAc?$AAy?$AAr?$AAl?$AA?$AA@ 00000001800252b0     libucrt:lcidtoname_downlevel.obj
 0002:000062c8       ??_C@_1BG@IBCKDDOE@?$AAa?$AAz?$AA?9?$AAa?$AAz?$AA?9?$AAl?$AAa?$AAt?$AAn?$AA?$AA@ 00000001800252c8     libucrt:lcidtoname_downlevel.obj
 0002:000062e0       ??_C@_1M@EGPFDCPD@?$AAb?$AAe?$AA?9?$AAb?$AAy?$AA?$AA@ 00000001800252e0     libucrt:lcidtoname_downlevel.obj
 0002:000062f0       ??_C@_1M@PCMGMCGC@?$AAb?$AAg?$AA?9?$AAb?$AAg?$AA?$AA@ 00000001800252f0     libucrt:lcidtoname_downlevel.obj
 0002:00006300       ??_C@_1M@BJBMFGOB@?$AAb?$AAn?$AA?9?$AAi?$AAn?$AA?$AA@ 0000000180025300     libucrt:lcidtoname_downlevel.obj
 0002:00006310       ??_C@_1BG@EAKMMACD@?$AAb?$AAs?$AA?9?$AAb?$AAa?$AA?9?$AAl?$AAa?$AAt?$AAn?$AA?$AA@ 0000000180025310     libucrt:lcidtoname_downlevel.obj
 0002:00006328       ??_C@_1M@KGADAODK@?$AAc?$AAa?$AA?9?$AAe?$AAs?$AA?$AA@ 0000000180025328     libucrt:lcidtoname_downlevel.obj
 0002:00006338       ??_C@_1M@COAJPDHI@?$AAc?$AAs?$AA?9?$AAc?$AAz?$AA?$AA@ 0000000180025338     libucrt:lcidtoname_downlevel.obj
 0002:00006348       ??_C@_1M@DHBHFONH@?$AAc?$AAy?$AA?9?$AAg?$AAb?$AA?$AA@ 0000000180025348     libucrt:lcidtoname_downlevel.obj
 0002:00006358       ??_C@_1M@IMGKELGA@?$AAd?$AAa?$AA?9?$AAd?$AAk?$AA?$AA@ 0000000180025358     libucrt:lcidtoname_downlevel.obj
 0002:00006368       ??_C@_1M@NNDGDNGA@?$AAd?$AAe?$AA?9?$AAa?$AAt?$AA?$AA@ 0000000180025368     libucrt:lcidtoname_downlevel.obj
 0002:00006378       ??_C@_1M@IKDBHEEM@?$AAd?$AAe?$AA?9?$AAc?$AAh?$AA?$AA@ 0000000180025378     libucrt:lcidtoname_downlevel.obj
 0002:00006388       ??_C@_1M@GFFOJMCJ@?$AAd?$AAe?$AA?9?$AAd?$AAe?$AA?$AA@ 0000000180025388     libucrt:lcidtoname_downlevel.obj
 0002:00006398       ??_C@_1M@MDNLKBPM@?$AAd?$AAe?$AA?9?$AAl?$AAi?$AA?$AA@ 0000000180025398     libucrt:lcidtoname_downlevel.obj
 0002:000063a8       ??_C@_1M@NJBEEJNL@?$AAd?$AAe?$AA?9?$AAl?$AAu?$AA?$AA@ 00000001800253a8     libucrt:lcidtoname_downlevel.obj
 0002:000063b8       ??_C@_1O@GNNELBAP@?$AAd?$AAi?$AAv?$AA?9?$AAm?$AAv?$AA?$AA@ 00000001800253b8     libucrt:lcidtoname_downlevel.obj
 0002:000063c8       ??_C@_1M@EJLEOGAE@?$AAe?$AAl?$AA?9?$AAg?$AAr?$AA?$AA@ 00000001800253c8     libucrt:lcidtoname_downlevel.obj
 0002:000063d8       ??_C@_1M@GMPONJN@?$AAe?$AAn?$AA?9?$AAa?$AAu?$AA?$AA@ 00000001800253d8     libucrt:lcidtoname_downlevel.obj
 0002:000063e8       ??_C@_1M@NIDIIPGF@?$AAe?$AAn?$AA?9?$AAb?$AAz?$AA?$AA@ 00000001800253e8     libucrt:lcidtoname_downlevel.obj
 0002:000063f8       ??_C@_1M@JEHMIMFO@?$AAe?$AAn?$AA?9?$AAc?$AAa?$AA?$AA@ 00000001800253f8     libucrt:lcidtoname_downlevel.obj
 0002:00006408       ??_C@_1M@IGMJCDLA@?$AAe?$AAn?$AA?9?$AAc?$AAb?$AA?$AA@ 0000000180025408     libucrt:lcidtoname_downlevel.obj
 0002:00006418       ??_C@_1M@BNFIGBKG@?$AAe?$AAn?$AA?9?$AAg?$AAb?$AA?$AA@ 0000000180025418     libucrt:lcidtoname_downlevel.obj
 0002:00006428       ??_C@_1M@LKIFDIGP@?$AAe?$AAn?$AA?9?$AAi?$AAe?$AA?$AA@ 0000000180025428     libucrt:lcidtoname_downlevel.obj
 0002:00006438       ??_C@_1M@PJKFGCCO@?$AAe?$AAn?$AA?9?$AAj?$AAm?$AA?$AA@ 0000000180025438     libucrt:lcidtoname_downlevel.obj
 0002:00006448       ??_C@_1M@KPPKEPBO@?$AAe?$AAn?$AA?9?$AAn?$AAz?$AA?$AA@ 0000000180025448     libucrt:lcidtoname_downlevel.obj
 0002:00006458       ??_C@_1M@GMDGLDOB@?$AAe?$AAn?$AA?9?$AAp?$AAh?$AA?$AA@ 0000000180025458     libucrt:lcidtoname_downlevel.obj
 0002:00006468       ??_C@_1M@ONGIBJNA@?$AAe?$AAn?$AA?9?$AAt?$AAt?$AA?$AA@ 0000000180025468     libucrt:lcidtoname_downlevel.obj
 0002:00006478       ??_C@_1M@LLODPCMM@?$AAe?$AAn?$AA?9?$AAu?$AAs?$AA?$AA@ 0000000180025478     libucrt:lcidtoname_downlevel.obj
 0002:00006488       ??_C@_1M@LAKFNPAN@?$AAe?$AAn?$AA?9?$AAz?$AAa?$AA?$AA@ 0000000180025488     libucrt:lcidtoname_downlevel.obj
 0002:00006498       ??_C@_1M@MFNHNHEO@?$AAe?$AAn?$AA?9?$AAz?$AAw?$AA?$AA@ 0000000180025498     libucrt:lcidtoname_downlevel.obj
 0002:000064a8       ??_C@_1M@EJEINPHM@?$AAe?$AAs?$AA?9?$AAa?$AAr?$AA?$AA@ 00000001800254a8     libucrt:lcidtoname_downlevel.obj
 0002:000064b8       ??_C@_1M@GNKPCCJA@?$AAe?$AAs?$AA?9?$AAb?$AAo?$AA?$AA@ 00000001800254b8     libucrt:lcidtoname_downlevel.obj
 0002:000064c8       ??_C@_1M@LEEGFONL@?$AAe?$AAs?$AA?9?$AAc?$AAl?$AA?$AA@ 00000001800254c8     libucrt:lcidtoname_downlevel.obj
 0002:000064d8       ??_C@_1M@KGPDPBDF@?$AAe?$AAs?$AA?9?$AAc?$AAo?$AA?$AA@ 00000001800254d8     libucrt:lcidtoname_downlevel.obj
 0002:000064e8       ??_C@_1M@EIAHOHH@?$AAe?$AAs?$AA?9?$AAc?$AAr?$AA?$AA@ 00000001800254e8     libucrt:lcidtoname_downlevel.obj
 0002:000064f8       ??_C@_1M@LLPGMBIN@?$AAe?$AAs?$AA?9?$AAd?$AAo?$AA?$AA@ 00000001800254f8     libucrt:lcidtoname_downlevel.obj
 0002:00006508       ??_C@_1M@DKHMKNJA@?$AAe?$AAs?$AA?9?$AAe?$AAc?$AA?$AA@ 0000000180025508     libucrt:lcidtoname_downlevel.obj
 0002:00006518       ??_C@_1M@GKGFPKAP@?$AAe?$AAs?$AA?9?$AAe?$AAs?$AA?$AA@ 0000000180025518     libucrt:lcidtoname_downlevel.obj
 0002:00006528       ??_C@_1M@LKHKGDLN@?$AAe?$AAs?$AA?9?$AAg?$AAt?$AA?$AA@ 0000000180025528     libucrt:lcidtoname_downlevel.obj
 0002:00006538       ??_C@_1M@HEIIGGJD@?$AAe?$AAs?$AA?9?$AAh?$AAn?$AA?$AA@ 0000000180025538     libucrt:lcidtoname_downlevel.obj
 0002:00006548       ??_C@_1M@FBDHPPGD@?$AAe?$AAs?$AA?9?$AAm?$AAx?$AA?$AA@ 0000000180025548     libucrt:lcidtoname_downlevel.obj
 0002:00006558       ??_C@_1M@DPAGLNDH@?$AAe?$AAs?$AA?9?$AAn?$AAi?$AA?$AA@ 0000000180025558     libucrt:lcidtoname_downlevel.obj
 0002:00006568       ??_C@_1M@MDGOPGDD@?$AAe?$AAs?$AA?9?$AAp?$AAa?$AA?$AA@ 0000000180025568     libucrt:lcidtoname_downlevel.obj
 0002:00006578       ??_C@_1M@EMAMGBGE@?$AAe?$AAs?$AA?9?$AAp?$AAe?$AA?$AA@ 0000000180025578     libucrt:lcidtoname_downlevel.obj
 0002:00006588       ??_C@_1M@IBMCAOEC@?$AAe?$AAs?$AA?9?$AAp?$AAr?$AA?$AA@ 0000000180025588     libucrt:lcidtoname_downlevel.obj
 0002:00006598       ??_C@_1M@FGMDIJED@?$AAe?$AAs?$AA?9?$AAp?$AAy?$AA?$AA@ 0000000180025598     libucrt:lcidtoname_downlevel.obj
 0002:000065a8       ??_C@_1M@IIDEOLLL@?$AAe?$AAs?$AA?9?$AAs?$AAv?$AA?$AA@ 00000001800255a8     libucrt:lcidtoname_downlevel.obj
 0002:000065b8       ??_C@_1M@GAOBIPA@?$AAe?$AAs?$AA?9?$AAu?$AAy?$AA?$AA@ 00000001800255b8     libucrt:lcidtoname_downlevel.obj
 0002:000065c8       ??_C@_1M@JKFFICHJ@?$AAe?$AAs?$AA?9?$AAv?$AAe?$AA?$AA@ 00000001800255c8     libucrt:lcidtoname_downlevel.obj
 0002:000065d8       ??_C@_1M@PNMLOJDF@?$AAe?$AAt?$AA?9?$AAe?$AAe?$AA?$AA@ 00000001800255d8     libucrt:lcidtoname_downlevel.obj
 0002:000065e8       ??_C@_1M@GHHLIKEI@?$AAe?$AAu?$AA?9?$AAe?$AAs?$AA?$AA@ 00000001800255e8     libucrt:lcidtoname_downlevel.obj
 0002:000065f8       ??_C@_1M@PBNONODE@?$AAf?$AAa?$AA?9?$AAi?$AAr?$AA?$AA@ 00000001800255f8     libucrt:lcidtoname_downlevel.obj
 0002:00006608       ??_C@_1M@JEEHPMIL@?$AAf?$AAi?$AA?9?$AAf?$AAi?$AA?$AA@ 0000000180025608     libucrt:lcidtoname_downlevel.obj
 0002:00006618       ??_C@_1M@LMDCNDBA@?$AAf?$AAo?$AA?9?$AAf?$AAo?$AA?$AA@ 0000000180025618     libucrt:lcidtoname_downlevel.obj
 0002:00006628       ??_C@_1M@JKEOHLDK@?$AAf?$AAr?$AA?9?$AAb?$AAe?$AA?$AA@ 0000000180025628     libucrt:lcidtoname_downlevel.obj
 0002:00006638       ??_C@_1M@NOHADPMI@?$AAf?$AAr?$AA?9?$AAc?$AAa?$AA?$AA@ 0000000180025638     libucrt:lcidtoname_downlevel.obj
 0002:00006648       ??_C@_1M@KDHIHAEC@?$AAf?$AAr?$AA?9?$AAc?$AAh?$AA?$AA@ 0000000180025648     libucrt:lcidtoname_downlevel.obj
 0002:00006658       ??_C@_1M@MMBBFGAK@?$AAf?$AAr?$AA?9?$AAf?$AAr?$AA?$AA@ 0000000180025658     libucrt:lcidtoname_downlevel.obj
 0002:00006668       ??_C@_1M@PAFNENNF@?$AAf?$AAr?$AA?9?$AAl?$AAu?$AA?$AA@ 0000000180025668     libucrt:lcidtoname_downlevel.obj
 0002:00006678       ??_C@_1M@EOHDJGDD@?$AAf?$AAr?$AA?9?$AAm?$AAc?$AA?$AA@ 0000000180025678     libucrt:lcidtoname_downlevel.obj
 0002:00006688       ??_C@_1M@FAPLLOPF@?$AAg?$AAl?$AA?9?$AAe?$AAs?$AA?$AA@ 0000000180025688     libucrt:lcidtoname_downlevel.obj
 0002:00006698       ??_C@_1M@FOPBFLOO@?$AAg?$AAu?$AA?9?$AAi?$AAn?$AA?$AA@ 0000000180025698     libucrt:lcidtoname_downlevel.obj
 0002:000066a8       ??_C@_1M@KBMCINPM@?$AAh?$AAe?$AA?9?$AAi?$AAl?$AA?$AA@ 00000001800256a8     libucrt:lcidtoname_downlevel.obj
 0002:000066b8       ??_C@_1M@BBPHKFPJ@?$AAh?$AAi?$AA?9?$AAi?$AAn?$AA?$AA@ 00000001800256b8     libucrt:lcidtoname_downlevel.obj
 0002:000066c8       ??_C@_1M@PMBNDPHD@?$AAh?$AAr?$AA?9?$AAb?$AAa?$AA?$AA@ 00000001800256c8     libucrt:lcidtoname_downlevel.obj
 0002:000066d8       ??_C@_1M@BPCKOEGE@?$AAh?$AAr?$AA?9?$AAh?$AAr?$AA?$AA@ 00000001800256d8     libucrt:lcidtoname_downlevel.obj
 0002:000066e8       ??_C@_1M@GACBMHKE@?$AAh?$AAu?$AA?9?$AAh?$AAu?$AA?$AA@ 00000001800256e8     libucrt:lcidtoname_downlevel.obj
 0002:000066f8       ??_C@_1M@MILPAJJC@?$AAh?$AAy?$AA?9?$AAa?$AAm?$AA?$AA@ 00000001800256f8     libucrt:lcidtoname_downlevel.obj
 0002:00006708       ??_C@_1M@BABBICEC@?$AAi?$AAd?$AA?9?$AAi?$AAd?$AA?$AA@ 0000000180025708     libucrt:lcidtoname_downlevel.obj
 0002:00006718       ??_C@_1M@BIKNHHPF@?$AAi?$AAs?$AA?9?$AAi?$AAs?$AA?$AA@ 0000000180025718     libucrt:lcidtoname_downlevel.obj
 0002:00006728       ??_C@_1M@NMPCJPHE@?$AAi?$AAt?$AA?9?$AAc?$AAh?$AA?$AA@ 0000000180025728     libucrt:lcidtoname_downlevel.obj
 0002:00006738       ??_C@_1M@GHKGFEDF@?$AAi?$AAt?$AA?9?$AAi?$AAt?$AA?$AA@ 0000000180025738     libucrt:lcidtoname_downlevel.obj
 0002:00006748       ??_C@_1M@NIEJCJJA@?$AAj?$AAa?$AA?9?$AAj?$AAp?$AA?$AA@ 0000000180025748     libucrt:lcidtoname_downlevel.obj
 0002:00006758       ??_C@_1M@JILFNBIM@?$AAk?$AAa?$AA?9?$AAg?$AAe?$AA?$AA@ 0000000180025758     libucrt:lcidtoname_downlevel.obj
 0002:00006768       ??_C@_1M@PACPMGPH@?$AAk?$AAk?$AA?9?$AAk?$AAz?$AA?$AA@ 0000000180025768     libucrt:lcidtoname_downlevel.obj
 0002:00006778       ??_C@_1M@IELFGMHA@?$AAk?$AAn?$AA?9?$AAi?$AAn?$AA?$AA@ 0000000180025778     libucrt:lcidtoname_downlevel.obj
 0002:00006788       ??_C@_1O@IBBJHCH@?$AAk?$AAo?$AAk?$AA?9?$AAi?$AAn?$AA?$AA@ 0000000180025788     libucrt:lcidtoname_downlevel.obj
 0002:00006798       ??_C@_1M@DMHAEOGC@?$AAk?$AAo?$AA?9?$AAk?$AAr?$AA?$AA@ 0000000180025798     libucrt:lcidtoname_downlevel.obj
 0002:000067a8       ??_C@_1M@HBAHBIGA@?$AAk?$AAy?$AA?9?$AAk?$AAg?$AA?$AA@ 00000001800257a8     libucrt:lcidtoname_downlevel.obj
 0002:000067b8       ??_C@_1M@KPMILCJG@?$AAl?$AAt?$AA?9?$AAl?$AAt?$AA?$AA@ 00000001800257b8     libucrt:lcidtoname_downlevel.obj
 0002:000067c8       ??_C@_1M@BDEKKCA@?$AAl?$AAv?$AA?9?$AAl?$AAv?$AA?$AA@ 00000001800257c8     libucrt:lcidtoname_downlevel.obj
 0002:000067d8       ??_C@_1M@ELCKCCJJ@?$AAm?$AAi?$AA?9?$AAn?$AAz?$AA?$AA@ 00000001800257d8     libucrt:lcidtoname_downlevel.obj
 0002:000067e8       ??_C@_1M@CBOOLAPA@?$AAm?$AAk?$AA?9?$AAm?$AAk?$AA?$AA@ 00000001800257e8     libucrt:lcidtoname_downlevel.obj
 0002:000067f8       ??_C@_1M@GPHNBJKN@?$AAm?$AAl?$AA?9?$AAi?$AAn?$AA?$AA@ 00000001800257f8     libucrt:lcidtoname_downlevel.obj
 0002:00006808       ??_C@_1M@PABJILIG@?$AAm?$AAn?$AA?9?$AAm?$AAn?$AA?$AA@ 0000000180025808     libucrt:lcidtoname_downlevel.obj
 0002:00006818       ??_C@_1M@FGBKKIPG@?$AAm?$AAr?$AA?9?$AAi?$AAn?$AA?$AA@ 0000000180025818     libucrt:lcidtoname_downlevel.obj
 0002:00006828       ??_C@_1M@NDBPDDAL@?$AAm?$AAs?$AA?9?$AAb?$AAn?$AA?$AA@ 0000000180025828     libucrt:lcidtoname_downlevel.obj
 0002:00006838       ??_C@_1M@OPIHOOPI@?$AAm?$AAs?$AA?9?$AAm?$AAy?$AA?$AA@ 0000000180025838     libucrt:lcidtoname_downlevel.obj
 0002:00006848       ??_C@_1M@PPDBCNFM@?$AAm?$AAt?$AA?9?$AAm?$AAt?$AA?$AA@ 0000000180025848     libucrt:lcidtoname_downlevel.obj
 0002:00006858       ??_C@_1M@KDJDKMDD@?$AAn?$AAb?$AA?9?$AAn?$AAo?$AA?$AA@ 0000000180025858     libucrt:lcidtoname_downlevel.obj
 0002:00006868       ??_C@_1M@KFCFLMJP@?$AAn?$AAl?$AA?9?$AAb?$AAe?$AA?$AA@ 0000000180025868     libucrt:lcidtoname_downlevel.obj
 0002:00006878       ??_C@_1M@KPOPDDGO@?$AAn?$AAl?$AA?9?$AAn?$AAl?$AA?$AA@ 0000000180025878     libucrt:lcidtoname_downlevel.obj
 0002:00006888       ??_C@_1M@LJKPEMLN@?$AAn?$AAn?$AA?9?$AAn?$AAo?$AA?$AA@ 0000000180025888     libucrt:lcidtoname_downlevel.obj
 0002:00006898       ??_C@_1M@BDGHHBFL@?$AAn?$AAs?$AA?9?$AAz?$AAa?$AA?$AA@ 0000000180025898     libucrt:lcidtoname_downlevel.obj
 0002:000068a8       ??_C@_1M@IDEHOAP@?$AAp?$AAa?$AA?9?$AAi?$AAn?$AA?$AA@ 00000001800258a8     libucrt:lcidtoname_downlevel.obj
 0002:000068b8       ??_C@_1M@HDBKGOGH@?$AAp?$AAl?$AA?9?$AAp?$AAl?$AA?$AA@ 00000001800258b8     libucrt:lcidtoname_downlevel.obj
 0002:000068c8       ??_C@_1M@LJLLCMEH@?$AAp?$AAt?$AA?9?$AAb?$AAr?$AA?$AA@ 00000001800258c8     libucrt:lcidtoname_downlevel.obj
 0002:000068d8       ??_C@_1M@NCMONAAL@?$AAp?$AAt?$AA?9?$AAp?$AAt?$AA?$AA@ 00000001800258d8     libucrt:lcidtoname_downlevel.obj
 0002:000068e8       ??_C@_1O@EAKMAJDN@?$AAq?$AAu?$AAz?$AA?9?$AAb?$AAo?$AA?$AA@ 00000001800258e8     libucrt:lcidtoname_downlevel.obj
 0002:000068f8       ??_C@_1O@BHHPIGDN@?$AAq?$AAu?$AAz?$AA?9?$AAe?$AAc?$AA?$AA@ 00000001800258f8     libucrt:lcidtoname_downlevel.obj
 0002:00006908       ??_C@_1O@GBAPEKMJ@?$AAq?$AAu?$AAz?$AA?9?$AAp?$AAe?$AA?$AA@ 0000000180025908     libucrt:lcidtoname_downlevel.obj
 0002:00006918       ??_C@_1M@CLGLEFBO@?$AAr?$AAo?$AA?9?$AAr?$AAo?$AA?$AA@ 0000000180025918     libucrt:lcidtoname_downlevel.obj
 0002:00006928       ??_C@_1M@CEEDODME@?$AAr?$AAu?$AA?9?$AAr?$AAu?$AA?$AA@ 0000000180025928     libucrt:lcidtoname_downlevel.obj
 0002:00006938       ??_C@_1M@HPKKKMPP@?$AAs?$AAa?$AA?9?$AAi?$AAn?$AA?$AA@ 0000000180025938     libucrt:lcidtoname_downlevel.obj
 0002:00006948       ??_C@_1M@BKMAIGOJ@?$AAs?$AAe?$AA?9?$AAf?$AAi?$AA?$AA@ 0000000180025948     libucrt:lcidtoname_downlevel.obj
 0002:00006958       ??_C@_1M@NDPIFLFI@?$AAs?$AAe?$AA?9?$AAn?$AAo?$AA?$AA@ 0000000180025958     libucrt:lcidtoname_downlevel.obj
 0002:00006968       ??_C@_1M@DANKKHJ@?$AAs?$AAe?$AA?9?$AAs?$AAe?$AA?$AA@ 0000000180025968     libucrt:lcidtoname_downlevel.obj
 0002:00006978       ??_C@_1M@PNBLONPJ@?$AAs?$AAk?$AA?9?$AAs?$AAk?$AA?$AA@ 0000000180025978     libucrt:lcidtoname_downlevel.obj
 0002:00006988       ??_C@_1M@LFMODOAL@?$AAs?$AAl?$AA?9?$AAs?$AAi?$AA?$AA@ 0000000180025988     libucrt:lcidtoname_downlevel.obj
 0002:00006998       ??_C@_1O@DFKOMPG@?$AAs?$AAm?$AAa?$AA?9?$AAn?$AAo?$AA?$AA@ 0000000180025998     libucrt:lcidtoname_downlevel.obj
 0002:000069a8       ??_C@_1O@NDKPBNNH@?$AAs?$AAm?$AAa?$AA?9?$AAs?$AAe?$AA?$AA@ 00000001800259a8     libucrt:lcidtoname_downlevel.obj
 0002:000069b8       ??_C@_1O@PLLKBHAB@?$AAs?$AAm?$AAj?$AA?9?$AAn?$AAo?$AA?$AA@ 00000001800259b8     libucrt:lcidtoname_downlevel.obj
 0002:000069c8       ??_C@_1O@CLEPOGCA@?$AAs?$AAm?$AAj?$AA?9?$AAs?$AAe?$AA?$AA@ 00000001800259c8     libucrt:lcidtoname_downlevel.obj
 0002:000069d8       ??_C@_1O@DLGJGKMK@?$AAs?$AAm?$AAn?$AA?9?$AAf?$AAi?$AA?$AA@ 00000001800259d8     libucrt:lcidtoname_downlevel.obj
 0002:000069e8       ??_C@_1O@OJDJGAJC@?$AAs?$AAm?$AAs?$AA?9?$AAf?$AAi?$AA?$AA@ 00000001800259e8     libucrt:lcidtoname_downlevel.obj
 0002:000069f8       ??_C@_1M@BOFOGHPB@?$AAs?$AAq?$AA?9?$AAa?$AAl?$AA?$AA@ 00000001800259f8     libucrt:lcidtoname_downlevel.obj
 0002:00006a08       ??_C@_1BG@LJBBIPGB@?$AAs?$AAr?$AA?9?$AAb?$AAa?$AA?9?$AAc?$AAy?$AAr?$AAl?$AA?$AA@ 0000000180025a08     libucrt:lcidtoname_downlevel.obj
 0002:00006a20       ??_C@_1BG@JLBENFOE@?$AAs?$AAr?$AA?9?$AAb?$AAa?$AA?9?$AAl?$AAa?$AAt?$AAn?$AA?$AA@ 0000000180025a20     libucrt:lcidtoname_downlevel.obj
 0002:00006a38       ??_C@_1BG@KODPNHE@?$AAs?$AAr?$AA?9?$AAs?$AAp?$AA?9?$AAc?$AAy?$AAr?$AAl?$AA?$AA@ 0000000180025a38     libucrt:lcidtoname_downlevel.obj
 0002:00006a50       ??_C@_1BG@CIOGKHPB@?$AAs?$AAr?$AA?9?$AAs?$AAp?$AA?9?$AAl?$AAa?$AAt?$AAn?$AA?$AA@ 0000000180025a50     libucrt:lcidtoname_downlevel.obj
 0002:00006a68       ??_C@_1M@NGFJLMAC@?$AAs?$AAv?$AA?9?$AAf?$AAi?$AA?$AA@ 0000000180025a68     libucrt:lcidtoname_downlevel.obj
 0002:00006a78       ??_C@_1M@MPJEJAJC@?$AAs?$AAv?$AA?9?$AAs?$AAe?$AA?$AA@ 0000000180025a78     libucrt:lcidtoname_downlevel.obj
 0002:00006a88       ??_C@_1M@MPNDHLFK@?$AAs?$AAw?$AA?9?$AAk?$AAe?$AA?$AA@ 0000000180025a88     libucrt:lcidtoname_downlevel.obj
 0002:00006a98       ??_C@_1O@KOHBJJI@?$AAs?$AAy?$AAr?$AA?9?$AAs?$AAy?$AA?$AA@ 0000000180025a98     libucrt:lcidtoname_downlevel.obj
 0002:00006aa8       ??_C@_1M@LDCEFHA@?$AAt?$AAa?$AA?9?$AAi?$AAn?$AA?$AA@ 0000000180025aa8     libucrt:lcidtoname_downlevel.obj
 0002:00006ab8       ??_C@_1M@CNJOFAK@?$AAt?$AAe?$AA?9?$AAi?$AAn?$AA?$AA@ 0000000180025ab8     libucrt:lcidtoname_downlevel.obj
 0002:00006ac8       ??_C@_1M@GNAECACD@?$AAt?$AAh?$AA?9?$AAt?$AAh?$AA?$AA@ 0000000180025ac8     libucrt:lcidtoname_downlevel.obj
 0002:00006ad8       ??_C@_1M@CHBIHOJO@?$AAt?$AAn?$AA?9?$AAz?$AAa?$AA?$AA@ 0000000180025ad8     libucrt:lcidtoname_downlevel.obj
 0002:00006ae8       ??_C@_1M@GCCMIGPJ@?$AAt?$AAr?$AA?9?$AAt?$AAr?$AA?$AA@ 0000000180025ae8     libucrt:lcidtoname_downlevel.obj
 0002:00006af8       ??_C@_1M@CELMCNBK@?$AAt?$AAt?$AA?9?$AAr?$AAu?$AA?$AA@ 0000000180025af8     libucrt:lcidtoname_downlevel.obj
 0002:00006b08       ??_C@_1M@KLMCELGA@?$AAu?$AAk?$AA?9?$AAu?$AAa?$AA?$AA@ 0000000180025b08     libucrt:lcidtoname_downlevel.obj
 0002:00006b18       ??_C@_1M@EPAJJAJF@?$AAu?$AAr?$AA?9?$AAp?$AAk?$AA?$AA@ 0000000180025b18     libucrt:lcidtoname_downlevel.obj
 0002:00006b28       ??_C@_1BG@GEGPMCDJ@?$AAu?$AAz?$AA?9?$AAu?$AAz?$AA?9?$AAc?$AAy?$AAr?$AAl?$AA?$AA@ 0000000180025b28     libucrt:lcidtoname_downlevel.obj
 0002:00006b40       ??_C@_1BG@EGGKJILM@?$AAu?$AAz?$AA?9?$AAu?$AAz?$AA?9?$AAl?$AAa?$AAt?$AAn?$AA?$AA@ 0000000180025b40     libucrt:lcidtoname_downlevel.obj
 0002:00006b58       ??_C@_1M@GFOCLFF@?$AAv?$AAi?$AA?9?$AAv?$AAn?$AA?$AA@ 0000000180025b58     libucrt:lcidtoname_downlevel.obj
 0002:00006b68       ??_C@_1M@CPAMEDFI@?$AAx?$AAh?$AA?9?$AAz?$AAa?$AA?$AA@ 0000000180025b68     libucrt:lcidtoname_downlevel.obj
 0002:00006b78       ??_C@_1O@EBKIFIGN@?$AAz?$AAh?$AA?9?$AAc?$AAh?$AAs?$AA?$AA@ 0000000180025b78     libucrt:lcidtoname_downlevel.obj
 0002:00006b88       ??_C@_1O@NMHPGANE@?$AAz?$AAh?$AA?9?$AAc?$AAh?$AAt?$AA?$AA@ 0000000180025b88     libucrt:lcidtoname_downlevel.obj
 0002:00006b98       ??_C@_1M@LPINJOMC@?$AAz?$AAh?$AA?9?$AAc?$AAn?$AA?$AA@ 0000000180025b98     libucrt:lcidtoname_downlevel.obj
 0002:00006ba8       ??_C@_1M@OCJEJODD@?$AAz?$AAh?$AA?9?$AAh?$AAk?$AA?$AA@ 0000000180025ba8     libucrt:lcidtoname_downlevel.obj
 0002:00006bb8       ??_C@_1M@DNDLJINH@?$AAz?$AAh?$AA?9?$AAm?$AAo?$AA?$AA@ 0000000180025bb8     libucrt:lcidtoname_downlevel.obj
 0002:00006bc8       ??_C@_1M@MBFDNDND@?$AAz?$AAh?$AA?9?$AAs?$AAg?$AA?$AA@ 0000000180025bc8     libucrt:lcidtoname_downlevel.obj
 0002:00006bd8       ??_C@_1M@IMEPLEPE@?$AAz?$AAh?$AA?9?$AAt?$AAw?$AA?$AA@ 0000000180025bd8     libucrt:lcidtoname_downlevel.obj
 0002:00006be8       ??_C@_1M@BBGHNHJP@?$AAz?$AAu?$AA?9?$AAz?$AAa?$AA?$AA@ 0000000180025be8     libucrt:lcidtoname_downlevel.obj
 0002:00006bf8       __real@3ff0000000000000    0000000180025bf8     libucrt:ceil.obj
 0002:00006e78       ??_C@_1BA@BALFACEM@?$AAC?$AAO?$AAN?$AAO?$AAU?$AAT?$AA$?$AA?$AA@ 0000000180025e78     libucrt:initcon.obj
 0002:00006e90       __log10_256_lead           0000000180025e90     libucrt:log10_256_lead_tail_table.obj
 0002:000076a0       __log10_256_tail           00000001800266a0     libucrt:log10_256_lead_tail_table.obj
 0002:00007eb0       __log_F_inv_qword          0000000180026eb0     libucrt:log_f_inv_qword_table.obj
 0002:000086c0       ??_C@_05HGHHAHAP@log10?$AA@ 00000001800276c0     libucrt:log_special.obj
 0002:000086e0       ??_C@_1BK@DBDEIDLH@?$AAK?$AAE?$AAR?$AAN?$AAE?$AAL?$AA3?$AA2?$AA?4?$AAD?$AAL?$AAL@ 00000001800276e0     DelayImp:delayhlp.obj
 0002:00008700       ??_C@_0BI@OMNLIJDB@AcquireSRWLockExclusive@ 0000000180027700     DelayImp:delayhlp.obj
 0002:00008718       ??_C@_0BI@HMIEPCNJ@ReleaseSRWLockExclusive@ 0000000180027718     DelayImp:delayhlp.obj
 0002:00008730       __pfnDliFailureHook2       0000000180027730     DelayImp:delayhk1.obj
 0002:00008740       _load_config_used          0000000180027740     LIBCMT:loadcfg.obj
 0002:00008840       ??_C@_0BA@JFNIOLAK@string?5too?5long@ 0000000180027840     serialport.obj
 0002:00008850       ??_C@_1ME@HIBENJOB@?$AAc?$AA?3?$AA?2?$AAu?$AAs?$AAe?$AAr?$AAs?$AA?2?$AAa?$AAn?$AAb?$AAr?$AAi?$AA?2@ 0000000180027850     serialport.obj
 0002:00008920       ??_C@_1FK@CBGIJHDF@?$AAv?$AAa?$AAl?$AAu?$AAe?$AA?4?$AAs?$AAi?$AAz?$AAe?$AA?$CI?$AA?$CJ?$AA?5?$AA?$DM?$AA?$DN@ 0000000180027920     serialport.obj
 0002:00008980       ??_C@_1JI@LJPBKCMP@?$AAc?$AA?3?$AA?2?$AAu?$AAs?$AAe?$AAr?$AAs?$AA?2?$AAa?$AAn?$AAb?$AAr?$AAi?$AA?2@ 0000000180027980     serialport.obj
 0002:00008a18       ??_C@_1BO@OPFMAOCA@?$AAl?$AAe?$AAn?$AA?5?$AA?$DM?$AA?$DN?$AA?5?$AAI?$AAN?$AAT?$AA_?$AAM?$AAA?$AAX@ 0000000180027a18     serialport.obj
 0002:00008a38       ??_C@_1BE@CKDJNAPC@?$AAs?$AAt?$AAr?$AA_?$AA?5?$AA?$CB?$AA?$DN?$AA?5?$AA0@ 0000000180027a38     serialport.obj
 0002:00008a50       ??_C@_0BC@EBHDFLHM@nan?3Callback?3Call@ 0000000180027a50     serialport.obj
 0002:00008a68       ??_C@_0CA@PHEBDBMF@First?5argument?5must?5be?5a?5string@ 0000000180027a68     serialport.obj
 0002:00008a88       ??_C@_0CC@DOLIGLGO@Second?5argument?5must?5be?5an?5obje@ 0000000180027a88     serialport.obj
 0002:00008ab0       ??_C@_0CC@KNCIJJMF@Third?5argument?5must?5be?5a?5functi@ 0000000180027ab0     serialport.obj
 0002:00008ad8       ??_C@_08NACMADDF@baudRate@ 0000000180027ad8     serialport.obj
 0002:00008ae8       ??_C@_08OMEAOKAC@dataBits@ 0000000180027ae8     serialport.obj
 0002:00008af4       ??_C@_06CFGKCFEA@parity@   0000000180027af4     serialport.obj
 0002:00008b00       ??_C@_08LNOJODPP@stopBits@ 0000000180027b00     serialport.obj
 0002:00008b0c       ??_C@_06EJNMIGBP@rtscts@   0000000180027b0c     serialport.obj
 0002:00008b14       ??_C@_03MIMFGCKE@xon@      0000000180027b14     serialport.obj
 0002:00008b18       ??_C@_04OMMHDPAK@xoff@     0000000180027b18     serialport.obj
 0002:00008b20       ??_C@_04MPFBBHBP@xany@     0000000180027b20     serialport.obj
 0002:00008b28       ??_C@_05HDEOENJK@hupcl@    0000000180027b28     serialport.obj
 0002:00008b30       ??_C@_04MKMCLCOO@lock@     0000000180027b30     serialport.obj
 0002:00008b38       ??_C@_0BO@BHDHAAIC@First?5argument?5must?5be?5an?5int@ 0000000180027b38     serialport.obj
 0002:00008b58       ??_C@_0CJ@DKEFGEGN@?$CCbaudRate?$CC?5must?5be?5set?5on?5optio@ 0000000180027b58     serialport.obj
 0002:00008b88       ??_C@_0CD@FDCLPLBL@Second?5argument?5must?5be?5a?5funct@ 0000000180027b88     serialport.obj
 0002:00008bac       ??_C@_03JOOIBBDJ@brk@      0000000180027bac     serialport.obj
 0002:00008bb0       ??_C@_03EIGHKCEN@rts@      0000000180027bb0     serialport.obj
 0002:00008bb4       ??_C@_03KAMCJCLH@cts@      0000000180027bb4     serialport.obj
 0002:00008bb8       ??_C@_03CEAOJLEP@dtr@      0000000180027bb8     serialport.obj
 0002:00008bbc       ??_C@_03CBEBINMK@dsr@      0000000180027bbc     serialport.obj
 0002:00008bc0       ??_C@_03CBPPJLGN@dcd@      0000000180027bc0     serialport.obj
 0002:00008bc4       ??_C@_04CGFJFPFD@none@     0000000180027bc4     serialport.obj
 0002:00008bcc       ??_C@_04JDDJEAHN@even@     0000000180027bcc     serialport.obj
 0002:00008bd4       ??_C@_04KJJCFCK@mark@      0000000180027bd4     serialport.obj
 0002:00008bdc       ??_C@_03PDLBAKOJ@odd@      0000000180027bdc     serialport.obj
 0002:00008be0       ??_C@_05OLNILLAB@space@    0000000180027be0     serialport.obj
 0002:00008be8       ??_C@_03KCHOJKKI@set@      0000000180027be8     serialport.obj
 0002:00008bec       ??_C@_03HNAFFKGA@get@      0000000180027bec     serialport.obj
 0002:00008bf0       ??_C@_04PMOCAHAA@open@     0000000180027bf0     serialport.obj
 0002:00008bf8       ??_C@_06HDLLMMEJ@update@   0000000180027bf8     serialport.obj
 0002:00008c00       ??_C@_05LBOHBHFK@close@    0000000180027c00     serialport.obj
 0002:00008c08       ??_C@_05GLCAEPFP@flush@    0000000180027c08     serialport.obj
 0002:00008c10       ??_C@_05GBKIIGFP@drain@    0000000180027c10     serialport.obj
 0002:00008c18       ??_C@_05NGFEDHGN@write@    0000000180027c18     serialport.obj
 0002:00008c20       ??_C@_04POLDLDMI@read@     0000000180027c20     serialport.obj
 0002:00008c28       ??_C@_04DONFEANM@list@     0000000180027c28     serialport.obj
 0002:00008c30       ??_C@_0HF@FEJANJFN@c?3?2users?2anbri?2documents?2github@ 0000000180027c30     serialport.obj
 0002:00008ca8       ??_C@_0L@BMBGKDA@serialport@ 0000000180027ca8     serialport.obj
 0002:00008cb3       ??_C@_00CNPNBAHC@@         0000000180027cb3     serialport_win.obj
 0002:00008cb8       ??_C@_0BD@BLPNGLIH@?$CFs?3?5File?5not?5found@ 0000000180027cb8     serialport_win.obj
 0002:00008cd0       ??_C@_0BD@GPOKPNCK@?$CFs?3?5Invalid?5handle@ 0000000180027cd0     serialport_win.obj
 0002:00008ce8       ??_C@_0BC@KPJPBKFJ@?$CFs?3?5Access?5denied@ 0000000180027ce8     serialport_win.obj
 0002:00008d00       ??_C@_0BG@IKDEGMJ@?$CFs?3?5Operation?5aborted@ 0000000180027d00     serialport_win.obj
 0002:00008d18       ??_C@_0BP@PMCGHKLE@?$CFs?3?5The?5parameter?5is?5incorrect@ 0000000180027d18     serialport_win.obj
 0002:00008d38       ??_C@_0BK@JFNDFHEK@?$CFs?3?5Unknown?5error?5code?5?$CFd@ 0000000180027d38     serialport_win.obj
 0002:00008d54       ??_C@_04GBDIODIA@?2?2?4?2@ 0000000180027d54     serialport_win.obj
 0002:00008d60       ??_C@_0L@GJHAJNIB@Opening?5?$CFs@ 0000000180027d60     serialport_win.obj
 0002:00008d70       ??_C@_0BE@PBLLKEKO@Open?5?$CIGetCommState?$CJ@ 0000000180027d70     serialport_win.obj
 0002:00008d88       ??_C@_0BE@IOKFBHNJ@Open?5?$CISetCommState?$CJ@ 0000000180027d88     serialport_win.obj
 0002:00008da0       ??_C@_0BH@KCOGJOCP@Open?5?$CISetCommTimeouts?$CJ@ 0000000180027da0     serialport_win.obj
 0002:00008db8       ??_C@_0BG@MOOPOEIC@Update?5?$CIGetCommState?$CJ@ 0000000180027db8     serialport_win.obj
 0002:00008dd0       ??_C@_0BG@LBPBFHPF@Update?5?$CISetCommState?$CJ@ 0000000180027dd0     serialport_win.obj
 0002:00008de8       ??_C@_0CK@NCBLKDEH@Setting?5options?5on?5COM?5port?5?$CISe@ 0000000180027de8     serialport_win.obj
 0002:00008e18       ??_C@_0DK@ENLNMKEH@Getting?5control?5settings?5on?5COM@ 0000000180027e18     serialport_win.obj
 0002:00008e58       ??_C@_0CB@CADFKPNI@Second?5argument?5must?5be?5a?5buffe@ 0000000180027e58     serialport_win.obj
 0002:00008e80       ??_C@_0CK@BGPOGOML@Writing?5to?5COM?5port?5?$CIGetOverlap@ 0000000180027e80     serialport_win.obj
 0002:00008eb0       ??_C@_0CC@LGPLFMHP@Writing?5to?5COM?5port?5?$CIWriteFileE@ 0000000180027eb0     serialport_win.obj
 0002:00008ed8       ??_C@_0BM@MLNOLJIP@First?5argument?5must?5be?5a?5fd@ 0000000180027ed8     serialport_win.obj
 0002:00008ef8       ??_C@_0BO@KMONFNJC@Third?5argument?5must?5be?5an?5int@ 0000000180027ef8     serialport_win.obj
 0002:00008f18       ??_C@_0BP@MKPMNBEE@Fourth?5argument?5must?5be?5an?5int@ 0000000180027f18     serialport_win.obj
 0002:00008f40       ??_C@_0ED@DHOIOBMO@?8bytesToRead?8?5?$CL?5?8offset?8?5cannot@ 0000000180027f40     serialport_win.obj
 0002:00008f88       ??_C@_0CC@EDEMHEPP@Fifth?5argument?5must?5be?5a?5functi@ 0000000180027f88     serialport_win.obj
 0002:00008fb0       ??_C@_0CJ@BCGGPGKC@Reading?5from?5COM?5port?5?$CIReadIOCo@ 0000000180027fb0     serialport_win.obj
 0002:00008fe0       ??_C@_0CM@KIDAHMDM@Reading?5from?5COM?5port?5?$CIGetOverl@ 0000000180027fe0     serialport_win.obj
 0002:00009010       ??_C@_0CG@MIFJGGPJ@Setting?5COM?5timeout?5?$CISetCommTim@ 0000000180028010     serialport_win.obj
 0002:00009038       ??_C@_0CB@IFPFGDDE@Reading?5from?5COM?5port?5?$CIReadFile@ 0000000180028038     serialport_win.obj
 0002:00009060       ??_C@_0CD@MFKIFI@Reading?5from?5COM?5port?5?$CIReadFile@ 0000000180028060     serialport_win.obj
 0002:00009088       ??_C@_0N@MDJJJHMB@kernel32?4dll@ 0000000180028088     serialport_win.obj
 0002:00009098       ??_C@_0L@COJLGOAG@CancelIoEx@ 0000000180028098     serialport_win.obj
 0002:000090a8       ??_C@_0CB@HOPFDBNI@Closing?5connection?5?$CICloseHandle@ 00000001800280a8     serialport_win.obj
 0002:000090d0       ??_C@_0CC@LODBDECI@First?5argument?5must?5be?5a?5functi@ 00000001800280d0     serialport_win.obj
 0002:000090f4       ??_C@_04CCCCEBLJ@VID_@     00000001800280f4     serialport_win.obj
 0002:000090fc       ??_C@_04KNGCLEBJ@PID_@     00000001800280fc     serialport_win.obj
 0002:00009108       ??_C@_08LFPHCHDK@PortName@ 0000000180028108     serialport_win.obj
 0002:00009114       ??_C@_03GJALCMIF@COM@      0000000180028114     serialport_win.obj
 0002:00009118       ??_C@_07DBPBBGJJ@comName@  0000000180028118     serialport_win.obj
 0002:00009120       ??_C@_0N@KCKFIEGL@manufacturer@ 0000000180028120     serialport_win.obj
 0002:00009130       ??_C@_0N@OMOHFKCJ@serialNumber@ 0000000180028130     serialport_win.obj
 0002:00009140       ??_C@_05HGPICCMB@pnpId@    0000000180028140     serialport_win.obj
 0002:00009148       ??_C@_0L@BOGINKLP@locationId@ 0000000180028148     serialport_win.obj
 0002:00009158       ??_C@_08OOCGBFEC@vendorId@ 0000000180028158     serialport_win.obj
 0002:00009168       ??_C@_09FNKBJNGL@productId@ 0000000180028168     serialport_win.obj
 0002:00009178       ??_C@_0CA@HDFPFIDE@Flushing?5connection?5?$CIPurgeComm?$CJ@ 0000000180028178     serialport_win.obj
 0002:00009198       ??_C@_0CH@KHNGIEJJ@Draining?5connection?5?$CIFlushFileB@ 0000000180028198     serialport_win.obj
 0002:000091c0       ??_C@_0BB@MOGOBHAF@list?$DMT?$DO?5too?5long@ 00000001800281c0     serialport_win.obj
 0002:000091d8       ??_C@_08HCOMDCCD@iojs?4exe@ 00000001800281d8     win_delay_load_hook.obj
 0002:000091e8       ??_C@_08JDDNMFDB@node?4exe@ 00000001800281e8     win_delay_load_hook.obj
 0002:000091f8       __pfnDliNotifyHook2        00000001800281f8     win_delay_load_hook.obj
 0002:000096d8       __real@3ff6666666666666    00000001800286d8     serialport.obj
 0002:000096e0       __real@3ff999999999999a    00000001800286e0     serialport.obj
 0002:000096e8       __real@4000000000000000    00000001800286e8     serialport.obj
 0002:000096f0       __real@bff0000000000000    00000001800286f0     serialport.obj
 0002:000099f0       ??_R4exception@std@@6B@    00000001800289f0     libcpmt:xthrow.obj
 0002:00009a18       ??_R3exception@std@@8      0000000180028a18     libcpmt:xthrow.obj
 0002:00009a30       ??_R2exception@std@@8      0000000180028a30     libcpmt:xthrow.obj
 0002:00009a40       ??_R1A@?0A@EA@exception@std@@8 0000000180028a40     libcpmt:xthrow.obj
 0002:00009a68       ??_R4bad_alloc@std@@6B@    0000000180028a68     libcpmt:xthrow.obj
 0002:00009a90       ??_R3bad_alloc@std@@8      0000000180028a90     libcpmt:xthrow.obj
 0002:00009aa8       ??_R2bad_alloc@std@@8      0000000180028aa8     libcpmt:xthrow.obj
 0002:00009ac0       ??_R1A@?0A@EA@bad_alloc@std@@8 0000000180028ac0     libcpmt:xthrow.obj
 0002:00009ae8       ??_R4logic_error@std@@6B@  0000000180028ae8     libcpmt:xthrow.obj
 0002:00009b10       ??_R3logic_error@std@@8    0000000180028b10     libcpmt:xthrow.obj
 0002:00009b28       ??_R2logic_error@std@@8    0000000180028b28     libcpmt:xthrow.obj
 0002:00009b40       ??_R1A@?0A@EA@logic_error@std@@8 0000000180028b40     libcpmt:xthrow.obj
 0002:00009b68       ??_R4length_error@std@@6B@ 0000000180028b68     libcpmt:xthrow.obj
 0002:00009b90       ??_R3length_error@std@@8   0000000180028b90     libcpmt:xthrow.obj
 0002:00009ba8       ??_R2length_error@std@@8   0000000180028ba8     libcpmt:xthrow.obj
 0002:00009bc8       ??_R1A@?0A@EA@length_error@std@@8 0000000180028bc8     libcpmt:xthrow.obj
 0002:00009bf0       ??_R4type_info@@6B@        0000000180028bf0     LIBCMT:std_type_info_static.obj
 0002:00009c18       ??_R3type_info@@8          0000000180028c18     LIBCMT:std_type_info_static.obj
 0002:00009c30       ??_R2type_info@@8          0000000180028c30     LIBCMT:std_type_info_static.obj
 0002:00009c40       ??_R1A@?0A@EA@type_info@@8 0000000180028c40     LIBCMT:std_type_info_static.obj
 0002:00009c68       ??_R4bad_array_new_length@std@@6B@ 0000000180028c68     LIBCMT:throw_bad_alloc.obj
 0002:00009c90       ??_R3bad_array_new_length@std@@8 0000000180028c90     LIBCMT:throw_bad_alloc.obj
 0002:00009ca8       ??_R2bad_array_new_length@std@@8 0000000180028ca8     LIBCMT:throw_bad_alloc.obj
 0002:00009cc8       ??_R1A@?0A@EA@bad_array_new_length@std@@8 0000000180028cc8     LIBCMT:throw_bad_alloc.obj
 0002:00009cf0       ??_R4bad_exception@std@@6B@ 0000000180028cf0     libvcruntime:frame.obj
 0002:00009d18       ??_R3bad_exception@std@@8  0000000180028d18     libvcruntime:frame.obj
 0002:00009d30       ??_R2bad_exception@std@@8  0000000180028d30     libvcruntime:frame.obj
 0002:00009d48       ??_R1A@?0A@EA@bad_exception@std@@8 0000000180028d48     libvcruntime:frame.obj
 0002:0000a180       __rtc_iaa                  0000000180029180     LIBCMT:_initsect_.obj
 0002:0000a188       __rtc_izz                  0000000180029188     LIBCMT:_initsect_.obj
 0002:0000a190       __rtc_taa                  0000000180029190     LIBCMT:_initsect_.obj
 0002:0000a198       __rtc_tzz                  0000000180029198     LIBCMT:_initsect_.obj
 0002:0000c818       _TI2?AVbad_alloc@std@@     000000018002b818     libcpmt:xthrow.obj
 0002:0000c838       _CTA2?AVbad_alloc@std@@    000000018002b838     libcpmt:xthrow.obj
 0002:0000c850       _CT??_R0?AVbad_alloc@std@@@8??0bad_alloc@std@@QEAA@AEBV01@@Z24 000000018002b850     libcpmt:xthrow.obj
 0002:0000c878       _CT??_R0?AVexception@std@@@8??0exception@std@@QEAA@AEBV01@@Z24 000000018002b878     libcpmt:xthrow.obj
 0002:0000c8a0       _CT??_R0?AVlogic_error@std@@@8??0logic_error@std@@QEAA@AEBV01@@Z24 000000018002b8a0     libcpmt:xthrow.obj
 0002:0000c8c8       _TI3?AVlength_error@std@@  000000018002b8c8     libcpmt:xthrow.obj
 0002:0000c8e8       _CTA3?AVlength_error@std@@ 000000018002b8e8     libcpmt:xthrow.obj
 0002:0000c908       _CT??_R0?AVlength_error@std@@@8??0length_error@std@@QEAA@AEBV01@@Z24 000000018002b908     libcpmt:xthrow.obj
 0002:0000c930       _TI3?AVbad_array_new_length@std@@ 000000018002b930     LIBCMT:throw_bad_alloc.obj
 0002:0000c950       _CTA3?AVbad_array_new_length@std@@ 000000018002b950     LIBCMT:throw_bad_alloc.obj
 0002:0000c970       _CT??_R0?AVbad_array_new_length@std@@@8??0bad_array_new_length@std@@QEAA@AEBV01@@Z24 000000018002b970     LIBCMT:throw_bad_alloc.obj
 0002:0000c998       _TI2?AVbad_exception@std@@ 000000018002b998     libvcruntime:frame.obj
 0002:0000c9b8       _CTA2?AVbad_exception@std@@ 000000018002b9b8     libvcruntime:frame.obj
 0002:0000c9d0       _CT??_R0?AVbad_exception@std@@@8??0bad_exception@std@@QEAA@AEBV01@@Z24 000000018002b9d0     libvcruntime:frame.obj
 0002:0000c9f4       __DELAY_IMPORT_DESCRIPTOR_node_exe 000000018002b9f4     node:node.exe
 0002:0000ca14       __NULL_DELAY_IMPORT_DESCRIPTOR 000000018002ba14     node:node.exe
 0002:0000cc40       \177node_NULL_THUNK_DATA_DLN 000000018002bc40     node:node.exe
 0002:0000dc98       \177node_NULL_THUNK_DATA_DLB 000000018002cc98     node:node.exe
 0002:0000def8       __IMPORT_DESCRIPTOR_KERNEL32 000000018002cef8     kernel32:KERNEL32.dll
 0002:0000df0c       __IMPORT_DESCRIPTOR_ADVAPI32 000000018002cf0c     advapi32:ADVAPI32.dll
 0002:0000df20       __IMPORT_DESCRIPTOR_SETUPAPI 000000018002cf20     setupapi:SETUPAPI.dll
 0002:0000df34       __NULL_IMPORT_DESCRIPTOR   000000018002cf34     kernel32:KERNEL32.dll
 0003:00000000       __scrt_native_dllmain_reason 000000018002e000     LIBCMT:utility.obj
 0003:00000008       __security_cookie_complement 000000018002e008     LIBCMT:gs_cookie.obj
 0003:00000010       __security_cookie          000000018002e010     LIBCMT:gs_cookie.obj
 0003:00000018       __isa_available            000000018002e018     LIBCMT:_cpu_disp_.obj
 0003:0000001c       __isa_enabled              000000018002e01c     LIBCMT:_cpu_disp_.obj
 0003:00000020       __memcpy_nt_iters          000000018002e020     LIBCMT:_cpu_disp_.obj
 0003:00000040       __abort_behavior           000000018002e040     libucrt:abort.obj
 0003:00000060       _iob                       000000018002e060     libucrt:_file.obj
 0003:00000170       __acrt_initial_locale_data 000000018002e170     libucrt:nlsdata.obj
 0003:000002c8       __acrt_initial_locale_pointers 000000018002e2c8     libucrt:nlsdata.obj
 0003:000002d8       __acrt_wide_c_locale_string 000000018002e2d8     libucrt:nlsdata.obj
 0003:000002e0       __badioinfo                000000018002e2e0     libucrt:ioinit.obj
 0003:00000420       __acrt_initial_multibyte_data 000000018002e420     libucrt:mbctype.obj
 0003:00000860       _pwctype                   000000018002e860     libucrt:ctype.obj
 0003:00000868       __globallocalestatus       000000018002e868     libucrt:glstatus.obj
 0003:00000870       __acrt_lconv_c             000000018002e870     libucrt:localeconv.obj
 0003:00000908       __acrt_lconv_static_decimal 000000018002e908     libucrt:localeconv.obj
 0003:0000090c       __acrt_lconv_static_W_decimal 000000018002e90c     libucrt:localeconv.obj
 0003:00000930       _fltused                   000000018002e930     LIBCMT:fltused.obj
 0003:00000980       ??_R0?AVbad_alloc@std@@@8  000000018002e980     libcpmt:xthrow.obj
 0003:000009a8       ??_R0?AVexception@std@@@8  000000018002e9a8     libcpmt:xthrow.obj
 0003:000009d0       ??_R0?AVlogic_error@std@@@8 000000018002e9d0     libcpmt:xthrow.obj
 0003:000009f8       ??_R0?AVlength_error@std@@@8 000000018002e9f8     libcpmt:xthrow.obj
 0003:00000a20       ??_R0?AVtype_info@@@8      000000018002ea20     LIBCMT:std_type_info_static.obj
 0003:00000a40       ??_R0?AVbad_array_new_length@std@@@8 000000018002ea40     LIBCMT:throw_bad_alloc.obj
 0003:00000a70       ??_R0?AVbad_exception@std@@@8 000000018002ea70     libvcruntime:frame.obj
 0003:00000a98       __imp_uv_queue_work        000000018002ea98     node:node.exe
 0003:00000aa0       __imp_uv_async_send        000000018002eaa0     node:node.exe
 0003:00000aa8       __imp_?Global@Context@v8@@QEAA?AV?$Local@VObject@v8@@@2@XZ 000000018002eaa8     node:node.exe
 0003:00000ab0       __imp_?Value@External@v8@@QEBAPEAXXZ 000000018002eab0     node:node.exe
 0003:00000ab8       __imp_?New@External@v8@@SA?AV?$Local@VExternal@v8@@@2@PEAVIsolate@2@PEAX@Z 000000018002eab8     node:node.exe
 0003:00000ac0       __imp_?New@Integer@v8@@SA?AV?$Local@VInteger@v8@@@2@PEAVIsolate@2@H@Z 000000018002eac0     node:node.exe
 0003:00000ac8       __imp_?ThrowException@Isolate@v8@@QEAA?AV?$Local@VValue@v8@@@2@V32@@Z 000000018002eac8     node:node.exe
 0003:00000ad0       __imp_?GetCurrentContext@Isolate@v8@@QEAA?AV?$Local@VContext@v8@@@2@XZ 000000018002ead0     node:node.exe
 0003:00000ad8       __imp_?GetCurrent@Isolate@v8@@SAPEAV12@XZ 000000018002ead8     node:node.exe
 0003:00000ae0       __imp_?CreateHandle@HandleScope@v8@@KAPEAPEAVObject@internal@2@PEAVIsolate@42@PEAV342@@Z 000000018002eae0     node:node.exe
 0003:00000ae8       __imp_?CreateHandle@HandleScope@v8@@CAPEAPEAVObject@internal@2@PEAVHeapObject@42@PEAV342@@Z 000000018002eae8     node:node.exe
 0003:00000af0       __imp_??1HandleScope@v8@@QEAA@XZ 000000018002eaf0     node:node.exe
 0003:00000af8       __imp_??0HandleScope@v8@@QEAA@PEAVIsolate@1@@Z 000000018002eaf8     node:node.exe
 0003:00000b00       __imp_?Error@Exception@v8@@SA?AV?$Local@VValue@v8@@@2@V?$Local@VString@v8@@@2@@Z 000000018002eb00     node:node.exe
 0003:00000b08       __imp_?TypeError@Exception@v8@@SA?AV?$Local@VValue@v8@@@2@V?$Local@VString@v8@@@2@@Z 000000018002eb08     node:node.exe
 0003:00000b10       __imp_?SetClassName@FunctionTemplate@v8@@QEAAXV?$Local@VString@v8@@@2@@Z 000000018002eb10     node:node.exe
 0003:00000b18       __imp_?GetFunction@FunctionTemplate@v8@@QEAA?AV?$MaybeLocal@VFunction@v8@@@2@V?$Local@VContext@v8@@@2@@Z 000000018002eb18     node:node.exe
 0003:00000b20       __imp_?New@FunctionTemplate@v8@@SA?AV?$Local@VFunctionTemplate@v8@@@2@PEAVIsolate@2@P6AXAEBV?$FunctionCallbackInfo@VValue@v8@@@2@@ZV?$Local@VValue@v8@@@2@V?$Local@VSignature@v8@@@2@HW4ConstructorBehavior@2@W4SideEffectType@2@@Z 000000018002eb20     node:node.exe
 0003:00000b28       __imp_?Value@Boolean@v8@@QEBA_NXZ 000000018002eb28     node:node.exe
 0003:00000b30       __imp_?ToLocalEmpty@V8@v8@@CAXXZ 000000018002eb30     node:node.exe
 0003:00000b38       __imp_?FromJustIsNothing@V8@v8@@CAXXZ 000000018002eb38     node:node.exe
 0003:00000b40       __imp_?DisposeGlobal@V8@v8@@CAXPEAPEAVObject@internal@2@@Z 000000018002eb40     node:node.exe
 0003:00000b48       __imp_?GlobalizeReference@V8@v8@@CAPEAPEAVObject@internal@2@PEAVIsolate@42@PEAPEAV342@@Z 000000018002eb48     node:node.exe
 0003:00000b50       __imp_?Int32Value@Value@v8@@QEBA?AV?$Maybe@H@2@V?$Local@VContext@v8@@@2@@Z 000000018002eb50     node:node.exe
 0003:00000b58       __imp_?NumberValue@Value@v8@@QEBA?AV?$Maybe@N@2@V?$Local@VContext@v8@@@2@@Z 000000018002eb58     node:node.exe
 0003:00000b60       __imp_?ToInt32@Value@v8@@QEBA?AV?$MaybeLocal@VInt32@v8@@@2@V?$Local@VContext@v8@@@2@@Z 000000018002eb60     node:node.exe
 0003:00000b68       __imp_?ToString@Value@v8@@QEBA?AV?$MaybeLocal@VString@v8@@@2@V?$Local@VContext@v8@@@2@@Z 000000018002eb68     node:node.exe
 0003:00000b70       __imp_?ToBoolean@Value@v8@@QEBA?AV?$MaybeLocal@VBoolean@v8@@@2@V?$Local@VContext@v8@@@2@@Z 000000018002eb70     node:node.exe
 0003:00000b78       __imp_?IsInt32@Value@v8@@QEBA_NXZ 000000018002eb78     node:node.exe
 0003:00000b80       __imp_?IsObject@Value@v8@@QEBA_NXZ 000000018002eb80     node:node.exe
 0003:00000b88       __imp_?IsFunction@Value@v8@@QEBA_NXZ 000000018002eb88     node:node.exe
 0003:00000b90       __imp_?Escape@EscapableHandleScope@v8@@AEAAPEAPEAVObject@internal@2@PEAPEAV342@@Z 000000018002eb90     node:node.exe
 0003:00000b98       __imp_??0EscapableHandleScope@v8@@QEAA@PEAVIsolate@1@@Z 000000018002eb98     node:node.exe
 0003:00000ba0       __imp_??1Utf8Value@String@v8@@QEAA@XZ 000000018002eba0     node:node.exe
 0003:00000ba8       __imp_??0Utf8Value@String@v8@@QEAA@V?$Local@VValue@v8@@@2@@Z 000000018002eba8     node:node.exe
 0003:00000bb0       __imp_?NewFromUtf8@String@v8@@SA?AV?$MaybeLocal@VString@v8@@@2@PEAVIsolate@2@PEBDW4NewStringType@2@H@Z 000000018002ebb0     node:node.exe
 0003:00000bb8       __imp_?WriteUtf8@String@v8@@QEBAHPEADHPEAHH@Z 000000018002ebb8     node:node.exe
 0003:00000bc0       __imp_?Length@String@v8@@QEBAHXZ 000000018002ebc0     node:node.exe
 0003:00000bc8       __imp_?Value@Int32@v8@@QEBAHXZ 000000018002ebc8     node:node.exe
 0003:00000bd0       __imp_?SlowGetInternalField@Object@v8@@AEAA?AV?$Local@VValue@v8@@@2@H@Z 000000018002ebd0     node:node.exe
 0003:00000bd8       __imp_?New@Object@v8@@SA?AV?$Local@VObject@v8@@@2@PEAVIsolate@2@@Z 000000018002ebd8     node:node.exe
 0003:00000be0       __imp_?SetInternalField@Object@v8@@QEAAXHV?$Local@VValue@v8@@@2@@Z 000000018002ebe0     node:node.exe
 0003:00000be8       __imp_?Has@Object@v8@@QEAA?AV?$Maybe@_N@2@V?$Local@VContext@v8@@@2@V?$Local@VValue@v8@@@2@@Z 000000018002ebe8     node:node.exe
 0003:00000bf0       __imp_?Get@Object@v8@@QEAA?AV?$MaybeLocal@VValue@v8@@@2@V?$Local@VContext@v8@@@2@V?$Local@VValue@v8@@@2@@Z 000000018002ebf0     node:node.exe
 0003:00000bf8       __imp_?Set@Object@v8@@QEAA_NV?$Local@VValue@v8@@@2@0@Z 000000018002ebf8     node:node.exe
 0003:00000c00       __imp_?SetInternalFieldCount@ObjectTemplate@v8@@QEAAXH@Z 000000018002ec00     node:node.exe
 0003:00000c08       __imp_?NewInstance@ObjectTemplate@v8@@QEAA?AV?$MaybeLocal@VObject@v8@@@2@V?$Local@VContext@v8@@@2@@Z 000000018002ec08     node:node.exe
 0003:00000c10       __imp_?New@ObjectTemplate@v8@@SA?AV?$Local@VObjectTemplate@v8@@@2@PEAVIsolate@2@V?$Local@VFunctionTemplate@v8@@@2@@Z 000000018002ec10     node:node.exe
 0003:00000c18       __imp_?EmitAsyncDestroy@node@@YAXPEAVIsolate@v8@@Uasync_context@1@@Z 000000018002ec18     node:node.exe
 0003:00000c20       __imp_node_module_register 000000018002ec20     node:node.exe
 0003:00000c28       __imp_?MakeCallback@node@@YA?AV?$MaybeLocal@VValue@v8@@@v8@@PEAVIsolate@3@V?$Local@VObject@v8@@@3@V?$Local@VFunction@v8@@@3@HPEAV?$Local@VValue@v8@@@3@Uasync_context@1@@Z 000000018002ec28     node:node.exe
 0003:00000c30       __imp_?EmitAsyncInit@node@@YA?AUasync_context@1@PEAVIsolate@v8@@V?$Local@VObject@v8@@@4@V?$Local@VString@v8@@@4@N@Z 000000018002ec30     node:node.exe
 0003:00000c38       __imp_uv_default_loop      000000018002ec38     node:node.exe
 0003:00000c40       __imp_?ToObject@Value@v8@@QEBA?AV?$Local@VObject@v8@@@2@XZ 000000018002ec40     node:node.exe
 0003:00000c48       __imp_?ToString@Value@v8@@QEBA?AV?$Local@VString@v8@@@2@XZ 000000018002ec48     node:node.exe
 0003:00000c50       __imp_??1EscapableHandleScope@v8@@QEAA@XZ 000000018002ec50     node:node.exe
 0003:00000c58       __imp_?New@Array@v8@@SA?AV?$Local@VArray@v8@@@2@PEAVIsolate@2@H@Z 000000018002ec58     node:node.exe
 0003:00000c60       __imp_?ToInteger@Value@v8@@QEBA?AV?$MaybeLocal@VInteger@v8@@@2@V?$Local@VContext@v8@@@2@@Z 000000018002ec60     node:node.exe
 0003:00000c68       __imp_?Set@Object@v8@@QEAA?AV?$Maybe@_N@2@V?$Local@VContext@v8@@@2@V?$Local@VValue@v8@@@2@1@Z 000000018002ec68     node:node.exe
 0003:00000c70       __imp_?Set@Object@v8@@QEAA?AV?$Maybe@_N@2@V?$Local@VContext@v8@@@2@IV?$Local@VValue@v8@@@2@@Z 000000018002ec70     node:node.exe
 0003:00000c78       __imp_uv_close             000000018002ec78     node:node.exe
 0003:00000c80       __imp_?HasInstance@Buffer@node@@YA_NV?$Local@VValue@v8@@@v8@@@Z 000000018002ec80     node:node.exe
 0003:00000c88       __imp_?Data@Buffer@node@@YAPEADV?$Local@VObject@v8@@@v8@@@Z 000000018002ec88     node:node.exe
 0003:00000c90       __imp_?Length@Buffer@node@@YA_KV?$Local@VObject@v8@@@v8@@@Z 000000018002ec90     node:node.exe
 0003:00000c98       __imp_uv_async_init        000000018002ec98     node:node.exe
 0003:00000ca0       \177node_NULL_THUNK_DATA_DLA 000000018002eca0     node:node.exe
 0003:00000cb0       __hmod__node_exe           000000018002ecb0     node:node.exe
 0003:00001230       __scrt_current_native_startup_state 000000018002f230     LIBCMT:utility.obj
 0003:00001238       __scrt_native_startup_lock 000000018002f238     LIBCMT:utility.obj
 0003:0000127c       __favor                    000000018002f27c     LIBCMT:_cpu_disp_.obj
 0003:00001280       __scrt_debugger_hook_flag  000000018002f280     LIBCMT:utility_desktop.obj
 0003:00001290       ?__type_info_root_node@@3U__type_info_node@@A 000000018002f290     LIBCMT:tncleanup.obj
 0003:000012a0       ?_OptionsStorage@?1??__local_stdio_scanf_options@@9@4_KA 000000018002f2a0     LIBCMT:default_local_stdio_options.obj
 0003:000013b0       __pPurecall                000000018002f3b0     libvcruntime:purevirt_data.obj
 0003:000013b8       ?__WinRTOutOfMemoryExceptionCallback@@3P6APEAXXZEA 000000018002f3b8     libvcruntime:ehhelpers.obj
 0003:000013c0       ?pArgList@UnDecorator@@0PEAVReplicator@@EA 000000018002f3c0     libvcruntime:undname.obj
 0003:000013c8       ?pZNameList@UnDecorator@@0PEAVReplicator@@EA 000000018002f3c8     libvcruntime:undname.obj
 0003:000013d0       ?pTemplateArgList@UnDecorator@@0PEAVReplicator@@EA 000000018002f3d0     libvcruntime:undname.obj
 0003:000013d8       ?gName@UnDecorator@@0PEBDEB 000000018002f3d8     libvcruntime:undname.obj
 0003:000013e0       ?name@UnDecorator@@0PEBDEB 000000018002f3e0     libvcruntime:undname.obj
 0003:000013e8       ?disableFlags@UnDecorator@@0KA 000000018002f3e8     libvcruntime:undname.obj
 0003:000013ec       ?fExplicitTemplateParams@UnDecorator@@0_NA 000000018002f3ec     libvcruntime:undname.obj
 0003:000013ed       ?fGetTemplateArgumentList@UnDecorator@@0_NA 000000018002f3ed     libvcruntime:undname.obj
 0003:000013f0       ?m_pGetParameter@UnDecorator@@0P6APEADJ@ZEA 000000018002f3f0     libvcruntime:undname.obj
 0003:000013f8       ?m_CHPENameOffset@UnDecorator@@0KA 000000018002f3f8     libvcruntime:undname.obj
 0003:000013fc       ?m_recursionLevel@UnDecorator@@0KA 000000018002f3fc     libvcruntime:undname.obj
 0003:00001448       ?c_exit_complete@?1???R<lambda_6e4b09c48022b2350581041d5f6b0c4c>@@QEBA@XZ@4_NA 000000018002f448     libucrt:exit.obj
 0003:00001558       _environ_table             000000018002f558     libucrt:environment_initialization.obj
 0003:00001560       _wenviron_table            000000018002f560     libucrt:environment_initialization.obj
 0003:00001568       __dcrt_initial_wide_environment 000000018002f568     libucrt:environment_initialization.obj
 0003:00001570       __dcrt_initial_narrow_environment 000000018002f570     libucrt:environment_initialization.obj
 0003:00001578       __acrt_atexit_table        000000018002f578     libucrt:onexit.obj
 0003:00001590       __acrt_at_quick_exit_table 000000018002f590     libucrt:onexit.obj
 0003:000015b0       _nstream                   000000018002f5b0     libucrt:_file.obj
 0003:000015b8       __piob                     000000018002f5b8     libucrt:_file.obj
 0003:000015c0       _cflush                    000000018002f5c0     libucrt:_file.obj
 0003:000015f8       __acrt_stdout_buffer       000000018002f5f8     libucrt:_sftbuf.obj
 0003:00001600       __acrt_stderr_buffer       000000018002f600     libucrt:_sftbuf.obj
 0003:00001608       __acrt_locale_changed_data 000000018002f608     libucrt:wsetlocale.obj
 0003:00001610       __acrt_current_locale_data 000000018002f610     libucrt:nlsdata.obj
 0003:00001620       __pioinfo                  000000018002f620     libucrt:ioinit.obj
 0003:00001a20       _nhandle                   000000018002fa20     libucrt:ioinit.obj
 0003:00001c70       __acrt_current_multibyte_data 000000018002fc70     libucrt:mbctype.obj
 0003:00001c78       _mbctype                   000000018002fc78     libucrt:mbctype.obj
 0003:00001c80       _mbcasemap                 000000018002fc80     libucrt:mbctype.obj
 0003:00001c90       __argc                     000000018002fc90     libucrt:argv_data.obj
 0003:00001c98       __argv                     000000018002fc98     libucrt:argv_data.obj
 0003:00001ca0       __wargv                    000000018002fca0     libucrt:argv_data.obj
 0003:00001ca8       _acmdln                    000000018002fca8     libucrt:argv_data.obj
 0003:00001cb0       _wcmdln                    000000018002fcb0     libucrt:argv_data.obj
 0003:00001cb8       _pgmptr                    000000018002fcb8     libucrt:argv_data.obj
 0003:00001e70       __acrt_heap                000000018002fe70     libucrt:heap_handle.obj
 0003:00001e84       __acrt_lconv_static_null   000000018002fe84     libucrt:localeconv.obj
 0003:00001e88       __acrt_lconv_static_W_null 000000018002fe88     libucrt:localeconv.obj
 0003:00001e98       __fma3_is_available        000000018002fe98     libucrt:fma3_available.obj
 0003:00001e9c       __use_fma3_lib             000000018002fe9c     libucrt:fma3_available.obj
 0003:00001ea8       ?DloadKernel32@@3PEAUHINSTANCE__@@EA 000000018002fea8     DelayImp:delayhlp.obj
 0003:00001eb0       ?DloadAcquireSRWLockExclusive@@3P6AXPEA_K@ZEA 000000018002feb0     DelayImp:delayhlp.obj
 0003:00001eb8       ?DloadReleaseSRWLockExclusive@@3P6AXPEA_K@ZEA 000000018002feb8     DelayImp:delayhlp.obj
 0003:00001ec0       ?DloadSrwLock@@3_KA        000000018002fec0     DelayImp:delayhlp.obj
 0003:00001ec8       ?DloadSectionLockCount@@3KA 000000018002fec8     DelayImp:delayhlp.obj
 0003:00001ecc       ?DloadSectionOldProtection@@3KA 000000018002fecc     DelayImp:delayhlp.obj
 0003:00001ed0       ?DloadSectionCommitPermanent@@3KA 000000018002fed0     DelayImp:delayhlp.obj
 0003:00001ed8       ?_OptionsStorage@?1??__local_stdio_printf_options@@9@4_KA 000000018002fed8     serialport_win.obj
 0003:00001ee0       ?g_closingHandles@@3V?$list@HV?$allocator@H@std@@@std@@A 000000018002fee0     serialport_win.obj
 0003:00001ef0       __dyn_tls_init_callback    000000018002fef0     <common>
 0003:00001ef8       __scrt_ucrt_dll_is_in_use  000000018002fef8     <common>

 entry point at        0001:00006628

 Static symbols

 0000:fffcc000       .debug$S                   0000000180000000     kernel32:KERNEL32.dll
 0000:fffcc000       .debug$S                   0000000180000000     kernel32:KERNEL32.dll
 0000:fffcc000       .debug$S                   0000000180000000     kernel32:KERNEL32.dll
 0000:fffcc000       .debug$S                   0000000180000000     kernel32:KERNEL32.dll
 0000:fffcc000       .debug$S                   0000000180000000     kernel32:KERNEL32.dll
 0000:fffcc000       .debug$S                   0000000180000000     kernel32:KERNEL32.dll
 0000:fffcc000       .debug$S                   0000000180000000     serialport.exp
 0000:fffcc000       .debug$S                   0000000180000000     kernel32:KERNEL32.dll
 0000:fffcc000       .debug$S                   0000000180000000     kernel32:KERNEL32.dll
 0000:fffcc000       .debug$S                   0000000180000000     kernel32:KERNEL32.dll
 0000:fffcc000       .debug$S                   0000000180000000     kernel32:KERNEL32.dll
 0000:fffcc000       .debug$S                   0000000180000000     kernel32:KERNEL32.dll
 0000:fffcc000       .debug$S                   0000000180000000     kernel32:KERNEL32.dll
 0000:fffcc000       .debug$S                   0000000180000000     kernel32:KERNEL32.dll
 0000:fffcc000       .debug$S                   0000000180000000     kernel32:KERNEL32.dll
 0000:fffcc000       .debug$S                   0000000180000000     kernel32:KERNEL32.dll
 0000:fffcc000       .debug$S                   0000000180000000     kernel32:KERNEL32.dll
 0000:fffcc000       .debug$S                   0000000180000000     node:node.exe
 0000:fffcc000       .debug$S                   0000000180000000     kernel32:KERNEL32.dll
 0000:fffcc000       .debug$S                   0000000180000000     node:node.exe
 0000:fffcc000       .debug$S                   0000000180000000     kernel32:KERNEL32.dll
 0000:fffcc000       .debug$S                   0000000180000000     setupapi:SETUPAPI.dll
 0000:fffcc000       .debug$S                   0000000180000000     setupapi:SETUPAPI.dll
 0000:fffcc000       .debug$S                   0000000180000000     kernel32:KERNEL32.dll
 0000:fffcc000       .debug$S                   0000000180000000     node:node.exe
 0000:fffcc000       .debug$S                   0000000180000000     setupapi:SETUPAPI.dll
 0000:fffcc000       .debug$S                   0000000180000000     setupapi:SETUPAPI.dll
 0000:fffcc000       .debug$S                   0000000180000000     node:node.exe
 0000:fffcc000       .debug$S                   0000000180000000     setupapi:SETUPAPI.dll
 0000:fffcc000       .debug$S                   0000000180000000     setupapi:SETUPAPI.dll
 0000:fffcc000       .debug$S                   0000000180000000     kernel32:KERNEL32.dll
 0000:fffcc000       .debug$S                   0000000180000000     node:node.exe
 0000:fffcc000       .debug$S                   0000000180000000     node:node.exe
 0000:fffcc000       .debug$S                   0000000180000000     node:node.exe
 0000:fffcc000       .debug$S                   0000000180000000     node:node.exe
 0000:fffcc000       .debug$S                   0000000180000000     kernel32:KERNEL32.dll
 0000:fffcc000       .debug$S                   0000000180000000     kernel32:KERNEL32.dll
 0000:fffcc000       .debug$S                   0000000180000000     node:node.exe
 0000:fffcc000       .debug$S                   0000000180000000     node:node.exe
 0000:fffcc000       .debug$S                   0000000180000000     node:node.exe
 0000:fffcc000       .debug$S                   0000000180000000     node:node.exe
 0000:fffcc000       .debug$S                   0000000180000000     node:node.exe
 0000:fffcc000       .debug$S                   0000000180000000     kernel32:KERNEL32.dll
 0000:fffcc000       .debug$S                   0000000180000000     node:node.exe
 0000:fffcc000       .debug$S                   0000000180000000     node:node.exe
 0000:fffcc000       .debug$S                   0000000180000000     kernel32:KERNEL32.dll
 0000:fffcc000       .debug$S                   0000000180000000     node:node.exe
 0000:fffcc000       .debug$S                   0000000180000000     kernel32:KERNEL32.dll
 0000:fffcc000       .debug$S                   0000000180000000     node:node.exe
 0000:fffcc000       .debug$S                   0000000180000000     kernel32:KERNEL32.dll
 0000:fffcc000       .debug$S                   0000000180000000     kernel32:KERNEL32.dll
 0000:fffcc000       .debug$S                   0000000180000000     node:node.exe
 0000:fffcc000       .debug$S                   0000000180000000     node:node.exe
 0000:fffcc000       .debug$S                   0000000180000000     node:node.exe
 0000:fffcc000       .debug$S                   0000000180000000     kernel32:KERNEL32.dll
 0000:fffcc000       .debug$S                   0000000180000000     node:node.exe
 0000:fffcc000       .debug$S                   0000000180000000     node:node.exe
 0000:fffcc000       .debug$S                   0000000180000000     node:node.exe
 0000:fffcc000       .debug$S                   0000000180000000     kernel32:KERNEL32.dll
 0000:fffcc000       .debug$S                   0000000180000000     kernel32:KERNEL32.dll
 0000:fffcc000       .debug$S                   0000000180000000     kernel32:KERNEL32.dll
 0000:fffcc000       .debug$S                   0000000180000000     kernel32:KERNEL32.dll
 0000:fffcc000       .debug$S                   0000000180000000     kernel32:KERNEL32.dll
 0000:fffcc000       .debug$S                   0000000180000000     kernel32:KERNEL32.dll
 0000:fffcc000       .debug$S                   0000000180000000     kernel32:KERNEL32.dll
 0000:fffcc000       .debug$S                   0000000180000000     kernel32:KERNEL32.dll
 0000:fffcc000       .debug$S                   0000000180000000     node:node.exe
 0000:fffcc000       .debug$S                   0000000180000000     node:node.exe
 0000:fffcc000       .debug$S                   0000000180000000     kernel32:KERNEL32.dll
 0000:fffcc000       .debug$S                   0000000180000000     node:node.exe
 0000:fffcc000       .debug$S                   0000000180000000     kernel32:KERNEL32.dll
 0000:fffcc000       .debug$S                   0000000180000000     node:node.exe
 0000:fffcc000       .debug$S                   0000000180000000     kernel32:KERNEL32.dll
 0000:fffcc000       .debug$S                   0000000180000000     kernel32:KERNEL32.dll
 0000:fffcc000       .debug$S                   0000000180000000     kernel32:KERNEL32.dll
 0000:fffcc000       .debug$S                   0000000180000000     kernel32:KERNEL32.dll
 0000:fffcc000       .debug$S                   0000000180000000     kernel32:KERNEL32.dll
 0000:fffcc000       .debug$S                   0000000180000000     kernel32:KERNEL32.dll
 0000:fffcc000       .debug$S                   0000000180000000     node:node.exe
 0000:fffcc000       .debug$S                   0000000180000000     kernel32:KERNEL32.dll
 0000:fffcc000       .debug$S                   0000000180000000     node:node.exe
 0000:fffcc000       .debug$S                   0000000180000000     kernel32:KERNEL32.dll
 0000:fffcc000       .debug$S                   0000000180000000     kernel32:KERNEL32.dll
 0000:fffcc000       .debug$S                   0000000180000000     node:node.exe
 0000:fffcc000       .debug$S                   0000000180000000     kernel32:KERNEL32.dll
 0000:fffcc000       .debug$S                   0000000180000000     node:node.exe
 0000:fffcc000       .debug$S                   0000000180000000     node:node.exe
 0000:fffcc000       .debug$S                   0000000180000000     kernel32:KERNEL32.dll
 0000:fffcc000       .debug$S                   0000000180000000     node:node.exe
 0000:fffcc000       .debug$S                   0000000180000000     kernel32:KERNEL32.dll
 0000:fffcc000       .debug$S                   0000000180000000     kernel32:KERNEL32.dll
 0000:fffcc000       .debug$S                   0000000180000000     kernel32:KERNEL32.dll
 0000:fffcc000       .debug$S                   0000000180000000     kernel32:KERNEL32.dll
 0000:fffcc000       .debug$S                   0000000180000000     kernel32:KERNEL32.dll
 0000:fffcc000       .debug$S                   0000000180000000     kernel32:KERNEL32.dll
 0000:fffcc000       .debug$S                   0000000180000000     node:node.exe
 0000:fffcc000       .debug$S                   0000000180000000     kernel32:KERNEL32.dll
 0000:fffcc000       .debug$S                   0000000180000000     kernel32:KERNEL32.dll
 0000:fffcc000       .debug$S                   0000000180000000     kernel32:KERNEL32.dll
 0000:fffcc000       .debug$S                   0000000180000000     kernel32:KERNEL32.dll
 0000:fffcc000       .debug$S                   0000000180000000     node:node.exe
 0000:fffcc000       .debug$S                   0000000180000000     kernel32:KERNEL32.dll
 0000:fffcc000       .debug$S                   0000000180000000     kernel32:KERNEL32.dll
 0000:fffcc000       .debug$S                   0000000180000000     kernel32:KERNEL32.dll
 0000:fffcc000       .debug$S                   0000000180000000     node:node.exe
 0000:fffcc000       .debug$S                   0000000180000000     kernel32:KERNEL32.dll
 0000:fffcc000       .debug$S                   0000000180000000     node:node.exe
 0000:fffcc000       .debug$S                   0000000180000000     kernel32:KERNEL32.dll
 0000:fffcc000       .debug$S                   0000000180000000     node:node.exe
 0000:fffcc000       .debug$S                   0000000180000000     kernel32:KERNEL32.dll
 0000:fffcc000       .debug$S                   0000000180000000     node:node.exe
 0000:fffcc000       .debug$S                   0000000180000000     node:node.exe
 0000:fffcc000       .debug$S                   0000000180000000     kernel32:KERNEL32.dll
 0000:fffcc000       .debug$S                   0000000180000000     node:node.exe
 0000:fffcc000       .debug$S                   0000000180000000     node:node.exe
 0000:fffcc000       .debug$S                   0000000180000000     kernel32:KERNEL32.dll
 0000:fffcc000       .debug$S                   0000000180000000     kernel32:KERNEL32.dll
 0000:fffcc000       .debug$S                   0000000180000000     kernel32:KERNEL32.dll
 0000:fffcc000       .debug$S                   0000000180000000     node:node.exe
 0000:fffcc000       .debug$S                   0000000180000000     node:node.exe
 0000:fffcc000       .debug$S                   0000000180000000     kernel32:KERNEL32.dll
 0000:fffcc000       .debug$S                   0000000180000000     kernel32:KERNEL32.dll
 0000:fffcc000       .debug$S                   0000000180000000     kernel32:KERNEL32.dll
 0000:fffcc000       .debug$S                   0000000180000000     kernel32:KERNEL32.dll
 0000:fffcc000       .debug$S                   0000000180000000     kernel32:KERNEL32.dll
 0000:fffcc000       .debug$S                   0000000180000000     kernel32:KERNEL32.dll
 0000:fffcc000       .debug$S                   0000000180000000     kernel32:KERNEL32.dll
 0000:fffcc000       .debug$S                   0000000180000000     node:node.exe
 0000:fffcc000       .debug$S                   0000000180000000     node:node.exe
 0000:fffcc000       .debug$S                   0000000180000000     node:node.exe
 0000:fffcc000       .debug$S                   0000000180000000     kernel32:KERNEL32.dll
 0000:fffcc000       .debug$S                   0000000180000000     node:node.exe
 0000:fffcc000       .debug$S                   0000000180000000     kernel32:KERNEL32.dll
 0000:fffcc000       .debug$S                   0000000180000000     kernel32:KERNEL32.dll
 0000:fffcc000       .debug$S                   0000000180000000     kernel32:KERNEL32.dll
 0000:fffcc000       .debug$S                   0000000180000000     node:node.exe
 0000:fffcc000       .debug$S                   0000000180000000     kernel32:KERNEL32.dll
 0000:fffcc000       .debug$S                   0000000180000000     node:node.exe
 0000:fffcc000       .debug$S                   0000000180000000     kernel32:KERNEL32.dll
 0000:fffcc000       .debug$S                   0000000180000000     kernel32:KERNEL32.dll
 0000:fffcc000       .debug$S                   0000000180000000     kernel32:KERNEL32.dll
 0000:fffcc000       .debug$S                   0000000180000000     node:node.exe
 0000:fffcc000       .debug$S                   0000000180000000     kernel32:KERNEL32.dll
 0000:fffcc000       .debug$S                   0000000180000000     kernel32:KERNEL32.dll
 0000:fffcc000       .debug$S                   0000000180000000     node:node.exe
 0000:fffcc000       .debug$S                   0000000180000000     kernel32:KERNEL32.dll
 0000:fffcc000       .debug$S                   0000000180000000     kernel32:KERNEL32.dll
 0000:fffcc000       .debug$S                   0000000180000000     kernel32:KERNEL32.dll
 0000:fffcc000       .debug$S                   0000000180000000     node:node.exe
 0000:fffcc000       .debug$S                   0000000180000000     node:node.exe
 0000:fffcc000       .debug$S                   0000000180000000     node:node.exe
 0000:fffcc000       .debug$S                   0000000180000000     node:node.exe
 0000:fffcc000       .debug$S                   0000000180000000     node:node.exe
 0000:fffcc000       .debug$S                   0000000180000000     node:node.exe
 0000:fffcc000       .debug$S                   0000000180000000     node:node.exe
 0000:fffcc000       .debug$S                   0000000180000000     node:node.exe
 0000:fffcc000       .debug$S                   0000000180000000     node:node.exe
 0000:fffcc000       .debug$S                   0000000180000000     kernel32:KERNEL32.dll
 0000:fffcc000       .debug$S                   0000000180000000     kernel32:KERNEL32.dll
 0000:fffcc000       .debug$S                   0000000180000000     node:node.exe
 0000:fffcc000       .debug$S                   0000000180000000     node:node.exe
 0000:fffcc000       .debug$S                   0000000180000000     node:node.exe
 0000:fffcc000       .debug$S                   0000000180000000     node:node.exe
 0000:fffcc000       .debug$S                   0000000180000000     kernel32:KERNEL32.dll
 0000:fffcc000       .debug$S                   0000000180000000     node:node.exe
 0000:fffcc000       .debug$S                   0000000180000000     kernel32:KERNEL32.dll
 0000:fffcc000       .debug$S                   0000000180000000     node:node.exe
 0000:fffcc000       .debug$S                   0000000180000000     kernel32:KERNEL32.dll
 0000:fffcc000       .debug$S                   0000000180000000     node:node.exe
 0000:fffcc000       .debug$S                   0000000180000000     kernel32:KERNEL32.dll
 0000:fffcc000       .debug$S                   0000000180000000     kernel32:KERNEL32.dll
 0000:fffcc000       .debug$S                   0000000180000000     node:node.exe
 0000:fffcc000       .debug$S                   0000000180000000     kernel32:KERNEL32.dll
 0000:fffcc000       .debug$S                   0000000180000000     node:node.exe
 0000:fffcc000       .debug$S                   0000000180000000     kernel32:KERNEL32.dll
 0000:fffcc000       .debug$S                   0000000180000000     node:node.exe
 0000:fffcc000       .debug$S                   0000000180000000     kernel32:KERNEL32.dll
 0000:fffcc000       .debug$S                   0000000180000000     kernel32:KERNEL32.dll
 0000:fffcc000       .debug$S                   0000000180000000     node:node.exe
 0000:fffcc000       .debug$S                   0000000180000000     kernel32:KERNEL32.dll
 0000:fffcc000       .debug$S                   0000000180000000     node:node.exe
 0000:fffcc000       .debug$S                   0000000180000000     advapi32:ADVAPI32.dll
 0000:fffcc000       .debug$S                   0000000180000000     advapi32:ADVAPI32.dll
 0000:fffcc000       .debug$S                   0000000180000000     kernel32:KERNEL32.dll
 0000:fffcc000       .debug$S                   0000000180000000     kernel32:KERNEL32.dll
 0000:fffcc000       .debug$S                   0000000180000000     kernel32:KERNEL32.dll
 0000:fffcc000       .debug$S                   0000000180000000     kernel32:KERNEL32.dll
 0001:00000000       ??__Eg_closingHandles@@YAXXZ 0000000180001000 f   serialport_win.obj
 0001:00000040       ?FunctionCallbackWrapper@imp@Nan@@YAXAEBV?$FunctionCallbackInfo@VValue@v8@@@v8@@@Z 0000000180001040 f   serialport.obj
 0001:00002820       _register_serialport       0000000180003820 f   serialport.obj
 0001:00005630       ?load_exe_hook@@YAP6A_JXZIPEAUDelayLoadInfo@@@Z 0000000180006630 f   win_delay_load_hook.obj
 0001:00005c00       $$000000                   0000000180006c00     LIBCMT:_amdsecgs_.obj
 0001:00005e30       capture_current_context    0000000180006e30 f   LIBCMT:gs_report.obj
 0001:00005ea0       capture_previous_context   0000000180006ea0 f   LIBCMT:gs_report.obj
 0001:000062f8       ?dllmain_crt_dispatch@@YAHQEAUHINSTANCE__@@KQEAX@Z 00000001800072f8 f   LIBCMT:dll_dllmain.obj
 0001:00006348       ?dllmain_crt_process_attach@@YAHQEAUHINSTANCE__@@QEAX@Z 0000000180007348 f   LIBCMT:dll_dllmain.obj
 0001:00006464       ?dllmain_crt_process_detach@@YAH_N@Z 0000000180007464 f   LIBCMT:dll_dllmain.obj
 0001:000064f4       ?dllmain_dispatch@@YAHQEAUHINSTANCE__@@KQEAX@Z 00000001800074f4 f   LIBCMT:dll_dllmain.obj
 0001:000077d0       $$000000                   00000001800087d0     libvcruntime:memset.obj
 0001:000078cc       MsetTab                    00000001800088cc     libvcruntime:memset.obj
 0001:00007cc0       ??$BuildCatchObjectHelperInternal@$$CBU_s_HandlerType@@@@YAHPEAUEHExceptionRecord@@PEAXPEBU_s_HandlerType@@PEBU_s_CatchableType@@@Z 0000000180008cc0 f   libvcruntime:frame.obj
 0001:00007ec0       ??$BuildCatchObjectInternal@$$CBU_s_HandlerType@@@@YAXPEAUEHExceptionRecord@@PEAXPEBU_s_HandlerType@@PEBU_s_CatchableType@@@Z 0000000180008ec0 f   libvcruntime:frame.obj
 0001:00007f80       ??$CatchIt@V__FrameHandler3@@@@YAXPEAUEHExceptionRecord@@PEA_KPEAU_CONTEXT@@PEAU_xDISPATCHER_CONTEXT@@PEBU_s_FuncInfo@@PEBU_s_HandlerType@@PEBU_s_CatchableType@@PEBU_s_TryBlockMapEntry@@H1EE@Z 0000000180008f80 f   libvcruntime:frame.obj
 0001:00008050       ??$FindHandler@V__FrameHandler3@@@@YAXPEAUEHExceptionRecord@@PEA_KPEAU_CONTEXT@@PEAU_xDISPATCHER_CONTEXT@@PEBU_s_FuncInfo@@EH1@Z 0000000180009050 f   libvcruntime:frame.obj
 0001:000084b4       ??$FindHandlerForForeignException@V__FrameHandler3@@@@YAXPEAUEHExceptionRecord@@PEA_KPEAU_CONTEXT@@PEAU_xDISPATCHER_CONTEXT@@PEBU_s_FuncInfo@@HH1@Z 00000001800094b4 f   libvcruntime:frame.obj
 0001:00008cbc       ?ExFilterRethrow@@YAHPEAU_EXCEPTION_POINTERS@@PEAUEHExceptionRecord@@PEAH@Z 0000000180009cbc f   libvcruntime:frame.obj
 0001:00008f70       ?IsInExceptionSpec@@YAEPEAUEHExceptionRecord@@PEBU_s_ESTypeList@@@Z 0000000180009f70 f   libvcruntime:frame.obj
 0001:00009048       ?Is_bad_exception_allowed@@YAEPEBU_s_ESTypeList@@@Z 000000018000a048 f   libvcruntime:frame.obj
 0001:00009178       ?try_get_function@@YAPEAXW4function_id@?A0xcc2f1bd3@@QEBDQEBW4module_id@2@2@Z 000000018000a178 f   libvcruntime:winapi_downlevel.obj
 0001:00009560       $$000000                   000000018000a560     libvcruntime:_notify_.obj
 0001:00009700       $$000000                   000000018000a700     libvcruntime:handlers.obj
 0001:000097b0       $$000000                   000000018000a7b0     libvcruntime:memcpy.obj
 0001:00009867       MoveSmall                  000000018000a867     libvcruntime:memcpy.obj
 0001:00009c2c       ??$common_assert_to_message_box@_W@@YAXQEB_W0IQEAX@Z 000000018000ac2c f   libucrt:assert.obj
 0001:00009cf0       ??$common_assert_to_message_box_build_string@_W@@YAXQEA_W_KQEB_W2IQEAX@Z 000000018000acf0 f   libucrt:assert.obj
 0001:0000a4b4       ??$common_assert_to_stderr@_W@@YAXQEB_W0I@Z 000000018000b4b4 f   libucrt:assert.obj
 0001:0000a624       ?get_assert_format@@YAPEB_W_W@Z 000000018000b624 f   libucrt:assert.obj
 0001:0000aae4       ??$?RV<lambda_0d412022a4b28cc8a401ea49574e8ae6>@@AEAV<lambda_a775ed57af18ba8e4d5dc780aa9068fe>@@V<lambda_975a71a6baa488a08f4e15f6b0339b9e>@@@?$__crt_seh_guarded_call@H@@QEAAH$$QEAV<lambda_0d412022a4b28cc8a401ea49574e8ae6>@@AEAV<lambda_a775ed57af18ba8e4d5dc780aa9068fe>@@$$QEAV<lambda_975a71a6baa488a08f4e15f6b0339b9e>@@@Z 000000018000bae4 f   libucrt:output.obj
 0001:0000ab24       ??$common_vsprintf@Vformat_validation_base@__crt_stdio_output@@D@@YAH_KQEAD0QEBDQEAU__crt_locale_pointers@@1@Z 000000018000bb24 f   libucrt:output.obj
 0001:0000acf0       ??$common_vsprintf@Vstandard_base@__crt_stdio_output@@_W@@YAH_KQEA_W0QEB_WQEAU__crt_locale_pointers@@QEAD@Z 000000018000bcf0 f   libucrt:output.obj
 0001:0000b4f8       ??R<lambda_a775ed57af18ba8e4d5dc780aa9068fe>@@QEBAHXZ 000000018000c4f8 f   libucrt:output.obj
 0001:0000dfa0       $$000000                   000000018000efa0     libucrt:strncpy.obj
 0001:0000e448       ??$?RV<lambda_d80eeec6fff315bfe5c115232f3240e3>@@AEAV<lambda_6e4b09c48022b2350581041d5f6b0c4c>@@V<lambda_2358e3775559c9db80273638284d5e45>@@@?$__crt_seh_guarded_call@X@@QEAAX$$QEAV<lambda_d80eeec6fff315bfe5c115232f3240e3>@@AEAV<lambda_6e4b09c48022b2350581041d5f6b0c4c>@@$$QEAV<lambda_2358e3775559c9db80273638284d5e45>@@@Z 000000018000f448 f   libucrt:exit.obj
 0001:0000e480       ??R<lambda_6e4b09c48022b2350581041d5f6b0c4c>@@QEBA@XZ 000000018000f480 f   libucrt:exit.obj
 0001:0000e558       ?atexit_exception_filter@@YAHK@Z 000000018000f558 f   libucrt:exit.obj
 0001:0000e564       ?common_exit@@YAXHW4_crt_exit_cleanup_mode@@W4_crt_exit_return_mode@@@Z 000000018000f564 f   libucrt:exit.obj
 0001:0000e620       ?exit_or_terminate_process@@YAXI@Z 000000018000f620 f   libucrt:exit.obj
 0001:0000e66c       ?try_cor_exit_process@@YAXI@Z 000000018000f66c f   libucrt:exit.obj
 0001:0000e6f4       ??$parse_command_line@D@@YAXPEADPEAPEAD0PEA_K2@Z 000000018000f6f4 f   libucrt:argv_parsing.obj
 0001:0000eaa0       ??$common_initialize_environment_nolock@D@@YAHXZ 000000018000faa0 f   libucrt:environment_initialization.obj
 0001:0000eb0c       ??$create_environment@D@@YAQEAPEADQEAD@Z 000000018000fb0c f   libucrt:environment_initialization.obj
 0001:0000ec14       ??$free_environment@_W@@YAXQEAPEA_W@Z 000000018000fc14 f   libucrt:environment_initialization.obj
 0001:0000ec14       ??$free_environment@D@@YAXQEAPEAD@Z 000000018000fc14 f   libucrt:environment_initialization.obj
 0001:0000ec58       ??$uninitialize_environment_internal@D@@YAXAEAPEAPEAD@Z 000000018000fc58 f   libucrt:environment_initialization.obj
 0001:0000ec74       ??$uninitialize_environment_internal@_W@@YAXAEAPEAPEA_W@Z 000000018000fc74 f   libucrt:environment_initialization.obj
 0001:0000ecd0       ??$?RV<lambda_7777bce6b2f8c936911f934f8298dc43>@@AEAV<lambda_f03950bc5685219e0bcd2087efbe011e>@@V<lambda_3883c3dff614d5e0c5f61bb1ac94921c>@@@?$__crt_seh_guarded_call@H@@QEAAH$$QEAV<lambda_7777bce6b2f8c936911f934f8298dc43>@@AEAV<lambda_f03950bc5685219e0bcd2087efbe011e>@@$$QEAV<lambda_3883c3dff614d5e0c5f61bb1ac94921c>@@@Z 000000018000fcd0 f   libucrt:onexit.obj
 0001:0000ed0c       ??$?RV<lambda_8369fcb7c4df1e85de37618bd2b85f07>@@AEAV<lambda_a10e4b102d4a2c3aac6f4f48bbdf488f>@@V<lambda_5b7707bd6d7a0c4713179f36c7fd995d>@@@?$__crt_seh_guarded_call@H@@QEAAH$$QEAV<lambda_8369fcb7c4df1e85de37618bd2b85f07>@@AEAV<lambda_a10e4b102d4a2c3aac6f4f48bbdf488f>@@$$QEAV<lambda_5b7707bd6d7a0c4713179f36c7fd995d>@@@Z 000000018000fd0c f   libucrt:onexit.obj
 0001:0000ed48       ??R<lambda_a10e4b102d4a2c3aac6f4f48bbdf488f>@@QEBAHXZ 000000018000fd48 f   libucrt:onexit.obj
 0001:0000ef0c       ??R<lambda_f03950bc5685219e0bcd2087efbe011e>@@QEBAHXZ 000000018000ff0c f   libucrt:onexit.obj
 0001:0000f12c       initialize_global_variables 000000018001012c f   libucrt:initialization.obj
 0001:0000f140       initialize_c               0000000180010140 f   libucrt:initialization.obj
 0001:0000f164       uninitialize_global_state_isolation 0000000180010164 f   libucrt:initialization.obj
 0001:0000f164       uninitialize_c             0000000180010164 f   libucrt:initialization.obj
 0001:0000f164       initialize_environment     0000000180010164 f   libucrt:initialization.obj
 0001:0000f164       initialize_global_state_isolation 0000000180010164 f   libucrt:initialization.obj
 0001:0000f164       report_memory_leaks        0000000180010164 f   libucrt:initialization.obj
 0001:0000f168       uninitialize_environment   0000000180010168 f   libucrt:initialization.obj
 0001:0000f178       initialize_pointers        0000000180010178 f   libucrt:initialization.obj
 0001:0000f1cc       uninitialize_vcruntime     00000001800101cc f   libucrt:initialization.obj
 0001:0000f1d4       uninitialize_allocated_memory 00000001800101d4 f   libucrt:initialization.obj
 0001:0000f214       uninitialize_allocated_io_buffers 0000000180010214 f   libucrt:initialization.obj
 0001:000100a0       $$000000                   00000001800110a0     libucrt:strncmp.obj
 0001:00010250       ??$common_xtox@K_W@@YAHKQEA_W_KI_N@Z 0000000180011250 f   libucrt:xtoa.obj
 0001:00010314       ??$common_xtox_s@K_W@@YAHKQEA_W_KI_N@Z 0000000180011314 f   libucrt:xtoa.obj
 0001:000108c0       ??$?RV<lambda_842d9ff0dc9ef11c61343bbaebe7f885>@@AEAV<lambda_c5860995281e5c4ce005b3de8f5874ee>@@V<lambda_d90129c13df834fdcbf8d2b88dafcf2d>@@@?$__crt_seh_guarded_call@X@@QEAAX$$QEAV<lambda_842d9ff0dc9ef11c61343bbaebe7f885>@@AEAV<lambda_c5860995281e5c4ce005b3de8f5874ee>@@$$QEAV<lambda_d90129c13df834fdcbf8d2b88dafcf2d>@@@Z 00000001800118c0 f   libucrt:fflush.obj
 0001:0001095c       ??$?RV<lambda_886d6c58226a84441f68b9f2b8217b83>@@AEAV<lambda_ab61a845afdef5b7c387490eaf3616ee>@@V<lambda_f7f22ab5edc0698d5f6905b0d3f44752>@@@?$__crt_seh_guarded_call@X@@QEAAX$$QEAV<lambda_886d6c58226a84441f68b9f2b8217b83>@@AEAV<lambda_ab61a845afdef5b7c387490eaf3616ee>@@$$QEAV<lambda_f7f22ab5edc0698d5f6905b0d3f44752>@@@Z 000000018001195c f   libucrt:fflush.obj
 0001:00010a3c       ??$?RV<lambda_c376a267cfb53b6959b3b692ec76b120>@@AEAV<lambda_9a32fed5bf61b6b509b2d3f6003082a1>@@V<lambda_572fbb9fa0ab338edf41edfd4b5fcc8d>@@@?$__crt_seh_guarded_call@H@@QEAAH$$QEAV<lambda_c376a267cfb53b6959b3b692ec76b120>@@AEAV<lambda_9a32fed5bf61b6b509b2d3f6003082a1>@@$$QEAV<lambda_572fbb9fa0ab338edf41edfd4b5fcc8d>@@@Z 0000000180011a3c f   libucrt:fflush.obj
 0001:00010a7c       ?common_flush_all@@YAH_N@Z 0000000180011a7c f   libucrt:fflush.obj
 0001:00010c14       ??$?RV<lambda_84ec643ea9557e2f7dc01bb0e9624395>@@AEAV<lambda_ca71763b3c0644891230e4f79ea54fa6>@@V<lambda_439a761618c59b0600e24586724d733b>@@@?$__crt_seh_guarded_call@H@@QEAAH$$QEAV<lambda_84ec643ea9557e2f7dc01bb0e9624395>@@AEAV<lambda_ca71763b3c0644891230e4f79ea54fa6>@@$$QEAV<lambda_439a761618c59b0600e24586724d733b>@@@Z 0000000180011c14 f   libucrt:setvbuf.obj
 0001:00010c54       ??R<lambda_ca71763b3c0644891230e4f79ea54fa6>@@QEBAHXZ 0000000180011c54 f   libucrt:setvbuf.obj
 0001:00010de0       ??$?RV<lambda_450d765d439847d4c735a33c368b5fc0>@@AEAV<lambda_44731a7d0e6d81c3e6aa82d741081786>@@V<lambda_601a2a7da3b7a96e9554ac7215c4b07c>@@@?$__crt_seh_guarded_call@P6AXH@Z@@QEAAP6AXH@Z$$QEAV<lambda_450d765d439847d4c735a33c368b5fc0>@@AEAV<lambda_44731a7d0e6d81c3e6aa82d741081786>@@$$QEAV<lambda_601a2a7da3b7a96e9554ac7215c4b07c>@@@Z 0000000180011de0 f   libucrt:signal.obj
 0001:000110f8       ??$?RV<lambda_0ae27a3a962d80f24befdcbee591983d>@@AEAV<lambda_8d0ee55de4b1038c4002e0adecdf1839>@@V<lambda_dc504788e8f1664fe9b84e20bfb512f2>@@@?$__crt_seh_guarded_call@X@@QEAAX$$QEAV<lambda_0ae27a3a962d80f24befdcbee591983d>@@AEAV<lambda_8d0ee55de4b1038c4002e0adecdf1839>@@$$QEAV<lambda_dc504788e8f1664fe9b84e20bfb512f2>@@@Z 00000001800120f8 f   libucrt:per_thread_data.obj
 0001:00011138       ??$?RV<lambda_2d41944a1d46af3157314b8a01080d33>@@AEAV<lambda_8f455de75cd7d7f24b4096f044d8b9e6>@@V<lambda_aa500f224e6afead328df44964fe2772>@@@?$__crt_seh_guarded_call@X@@QEAAX$$QEAV<lambda_2d41944a1d46af3157314b8a01080d33>@@AEAV<lambda_8f455de75cd7d7f24b4096f044d8b9e6>@@$$QEAV<lambda_aa500f224e6afead328df44964fe2772>@@@Z 0000000180012138 f   libucrt:per_thread_data.obj
 0001:00011178       ??$?RV<lambda_aa87e3671a710a21b5dc78c0bdf72e11>@@AEAV<lambda_92619d2358a28f41a33ba319515a20b9>@@V<lambda_6992ecaafeb10aed2b74cb1fae11a551>@@@?$__crt_seh_guarded_call@X@@QEAAX$$QEAV<lambda_aa87e3671a710a21b5dc78c0bdf72e11>@@AEAV<lambda_92619d2358a28f41a33ba319515a20b9>@@$$QEAV<lambda_6992ecaafeb10aed2b74cb1fae11a551>@@@Z 0000000180012178 f   libucrt:per_thread_data.obj
 0001:000111c0       ??$?RV<lambda_f2e299630e499de9f9a165e60fcd3db5>@@AEAV<lambda_2ae9d31cdba2644fcbeaf08da7c24588>@@V<lambda_40d01ff24d0e7b3814fdbdcee8eab3c7>@@@?$__crt_seh_guarded_call@X@@QEAAX$$QEAV<lambda_f2e299630e499de9f9a165e60fcd3db5>@@AEAV<lambda_2ae9d31cdba2644fcbeaf08da7c24588>@@$$QEAV<lambda_40d01ff24d0e7b3814fdbdcee8eab3c7>@@@Z 00000001800121c0 f   libucrt:per_thread_data.obj
 0001:00011220       ?construct_ptd_array@@YAXQEAU__acrt_ptd@@@Z 0000000180012220 f   libucrt:per_thread_data.obj
 0001:000112f0       ?destroy_fls@@YAXPEAX@Z    00000001800122f0 f   libucrt:per_thread_data.obj
 0001:00011310       ?destroy_ptd_array@@YAXQEAU__acrt_ptd@@@Z 0000000180012310 f   libucrt:per_thread_data.obj
 0001:00011408       ?replace_current_thread_locale_nolock@@YAXQEAU__acrt_ptd@@QEAU__crt_locale_data@@@Z 0000000180012408 f   libucrt:per_thread_data.obj
 0001:00011810       ?internal_isupper_l@@YA_NHQEAU__crt_locale_pointers@@@Z 0000000180012810 f   libucrt:tolower_toupper.obj
 0001:000120d0       ?fp_format_a@@YAHQEBNPEAD_KQEAD2H_NIQEAU__crt_locale_pointers@@@Z 00000001800130d0 f   libucrt:cvt.obj
 0001:00012438       ?fp_format_e@@YAHQEBNQEAD_K12H_NIQEAU__crt_locale_pointers@@@Z 0000000180013438 f   libucrt:cvt.obj
 0001:00012514       ?fp_format_e_internal@@YAHQEAD_KH_NIQEAU_strflt@@2QEAU__crt_locale_pointers@@@Z 0000000180013514 f   libucrt:cvt.obj
 0001:000126e8       ?fp_format_f_internal@@YAHQEAD_KHQEAU_strflt@@_NQEAU__crt_locale_pointers@@@Z 00000001800136e8 f   libucrt:cvt.obj
 0001:0001282c       ?fp_format_g@@YAHQEBNQEAD_K12H_NIQEAU__crt_locale_pointers@@@Z 000000018001382c f   libucrt:cvt.obj
 0001:00012960       ?fp_format_nan_or_infinity@@YAHW4__acrt_fp_class@@_NPEAD_K1@Z 0000000180013960 f   libucrt:cvt.obj
 0001:00013004       ??$?RV<lambda_410d79af7f07d98d83a3f525b3859a53>@@AEAV<lambda_3e16ef9562a7dcce91392c22ab16ea36>@@V<lambda_38119f0e861e05405d8a144b9b982f0a>@@@?$__crt_seh_guarded_call@X@@QEAAX$$QEAV<lambda_410d79af7f07d98d83a3f525b3859a53>@@AEAV<lambda_3e16ef9562a7dcce91392c22ab16ea36>@@$$QEAV<lambda_38119f0e861e05405d8a144b9b982f0a>@@@Z 0000000180014004 f   libucrt:wsetlocale.obj
 0001:000130b0       ?initialize_inherited_file_handles_nolock@@YAXXZ 00000001800140b0 f   libucrt:ioinit.obj
 0001:0001319c       ?initialize_stdio_handles_nolock@@YAXXZ 000000018001419c f   libucrt:ioinit.obj
 0001:00013540       ?<lambda_invoker_cdecl>@<lambda_c2303d2482d7c3675ea2e24c4cfb6115>@@CAHPEBX0@Z 0000000180014540 f   libucrt:argv_wildcards.obj
 0001:00013554       ??$common_expand_argv_wildcards@D@@YAHQEAPEADQEAPEAPEAD@Z 0000000180014554 f   libucrt:argv_wildcards.obj
 0001:00013760       ??$copy_and_add_argument_to_buffer@D@@YAHQEBD0_KAEAV?$argument_list@D@?A0x5f5c8891@@@Z 0000000180014760 f   libucrt:argv_wildcards.obj
 0001:000138fc       ??$expand_argument_wildcards@D@@YAHQEAD0AEAV?$argument_list@D@?A0x5f5c8891@@@Z 00000001800148fc f   libucrt:argv_wildcards.obj
 0001:00013ab0       ??$?RV<lambda_efdfa57d1f175319df784efa44bb7b81>@@AEAV<lambda_5f0a4c1567f8adc6734073e5d1e1b35c>@@V<lambda_2e8a7d3640ea6ccb4c2413664c2db6fd>@@@?$__crt_seh_guarded_call@X@@QEAAX$$QEAV<lambda_efdfa57d1f175319df784efa44bb7b81>@@AEAV<lambda_5f0a4c1567f8adc6734073e5d1e1b35c>@@$$QEAV<lambda_2e8a7d3640ea6ccb4c2413664c2db6fd>@@@Z 0000000180014ab0 f   libucrt:mbctype.obj
 0001:00013c6c       ?getSystemCP@@YAHH@Z       0000000180014c6c f   libucrt:mbctype.obj
 0001:00013cec       ?setSBCS@@YAXPEAU__crt_multibyte_data@@@Z 0000000180014cec f   libucrt:mbctype.obj
 0001:00013d7c       ?setSBUpLow@@YAXPEAU__crt_multibyte_data@@@Z 0000000180014d7c f   libucrt:mbctype.obj
 0001:00013f60       ?setmbcp_internal@@YAHH_NQEAU__acrt_ptd@@QEAPEAU__crt_multibyte_data@@@Z 0000000180014f60 f   libucrt:mbctype.obj
 0001:00014124       ?update_thread_multibyte_data_internal@@YAPEAU__crt_multibyte_data@@QEAU__acrt_ptd@@QEAPEAU1@@Z 0000000180015124 f   libucrt:mbctype.obj
 0001:00014510       ?x_ismbbtype_l@@YAHPEAU__crt_locale_pointers@@IHH@Z 0000000180015510 f   libucrt:ismbbyte.obj
 0001:0001485c       ?try_get_function@@YAPEAXW4function_id@?A0x391cf84c@@QEBDQEBW4module_id@2@2@Z 000000018001585c f   libucrt:winapi_thunks.obj
 0001:00015384       ?_mbstowcs_l_helper@@YA_KPEA_WPEBD_KPEAU__crt_locale_pointers@@@Z 0000000180016384 f   libucrt:mbstowcs.obj
 0001:000156a0       ??$?RV<lambda_a37b2b86f63e897a80ea819b0eb08c01>@@AEAV<lambda_38ce7e780aa69e748d6df282ebc68efe>@@V<lambda_99fb1378e971ab6e7edea83e3a7a83a2>@@@?$__crt_seh_guarded_call@H@@QEAAH$$QEAV<lambda_a37b2b86f63e897a80ea819b0eb08c01>@@AEAV<lambda_38ce7e780aa69e748d6df282ebc68efe>@@$$QEAV<lambda_99fb1378e971ab6e7edea83e3a7a83a2>@@@Z 00000001800166a0 f   libucrt:commit.obj
 0001:000157c0       ?write_double_translated_ansi_nolock@@YA?AUwrite_result@?A0x17268360@@HQEBDI@Z 00000001800167c0 f   libucrt:write.obj
 0001:000159d8       ?write_text_ansi_nolock@@YA?AUwrite_result@?A0x17268360@@HQEBDI@Z 00000001800169d8 f   libucrt:write.obj
 0001:00015adc       ?write_text_utf16le_nolock@@YA?AUwrite_result@?A0x17268360@@HQEBDI@Z 0000000180016adc f   libucrt:write.obj
 0001:00015bf8       ?write_text_utf8_nolock@@YA?AUwrite_result@?A0x17268360@@HQEBDI@Z 0000000180016bf8 f   libucrt:write.obj
 0001:00016588       ?__acrt_LCMapStringA_stat@@YAHPEAU__crt_locale_pointers@@PEB_WKPEBDHPEADHHH@Z 0000000180017588 f   libucrt:lcmapstringa.obj
 0001:00018338       memcpy_s                   0000000180019338 f   libucrt:cfout.obj
 0001:000183c0       ??$write_buffer_nolock@D@@YA_NDV__crt_stdio_stream@@@Z 00000001800193c0 f   libucrt:_flsbuf.obj
 0001:000184a0       ??$write_buffer_nolock@_W@@YA_N_WV__crt_stdio_stream@@@Z 00000001800194a0 f   libucrt:_flsbuf.obj
 0001:00018930       ?free_crt_array_internal@@YAXQEAPEBX_K@Z 0000000180019930 f   libucrt:inittime.obj
 0001:000192e0       fallbackMethod             000000018001a2e0 f   libucrt:strpbrk.obj
 0001:000196a4       $LN78                      000000018001a6a4     libucrt:strpbrk.obj
 0001:000196e0       $LN77                      000000018001a6e0     libucrt:strpbrk.obj
 0001:00019720       $LN76                      000000018001a720     libucrt:strpbrk.obj
 0001:00019ba8       ?initialize_multibyte@@YAHXZ 000000018001aba8 f   libucrt:multibyte_initializer.obj
 0001:00019c80       ?GetTableIndexFromLocaleName@@YAHPEB_W@Z 000000018001ac80 f   libucrt:lcidtoname_downlevel.obj
 0001:00019e8c       ??$common_lseek@_J@@YA_JH_JH@Z 000000018001ae8c f   libucrt:lseek.obj
 0001:00019f7c       ??$common_lseek_nolock@_J@@YA_JH_JH@Z 000000018001af7c f   libucrt:lseek.obj
 0001:0001a3e0       $$000000                   000000018001b3e0     libucrt:log10.obj
 0001:0001a9f4       ?_wcstombs_l_helper@@YA_KPEADPEB_W_KPEAU__crt_locale_pointers@@@Z 000000018001b9f4 f   libucrt:wcstombs.obj
 0001:0001ad64       ??$?RV<lambda_751a882b2c74d4b022dec766aa51a29a>@@AEAV<lambda_628dfdc04ba53c8bfc02c9951375f3f5>@@V<lambda_f6c7be5f7998530c34de24c7437d6b54>@@@?$__crt_seh_guarded_call@H@@QEAAH$$QEAV<lambda_751a882b2c74d4b022dec766aa51a29a>@@AEAV<lambda_628dfdc04ba53c8bfc02c9951375f3f5>@@$$QEAV<lambda_f6c7be5f7998530c34de24c7437d6b54>@@@Z 000000018001bd64 f   libucrt:close.obj
 0001:0001b418       _call_matherr              000000018001c418 f   libucrt:libm_error.obj
 0001:0001b480       _exception_enabled         000000018001c480 f   libucrt:libm_error.obj
 0001:0001b710       _log_special_common        000000018001c710 f   libucrt:log_special.obj
 0001:0001b8d0       $$000000                   000000018001c8d0     libucrt:fpsr.obj
 0001:0001c680       $$000000                   000000018001d680     LIBCMT:_chkstk_.obj
 0001:0001c8b0       $$000000                   000000018001d8b0     libvcruntime:memcmp.obj
 0001:0001c990       $$000000                   000000018001d990     LIBCMT:_guard_dispatch_.obj
 0001:0001c9b0       ?dtor$0@?0???1EscapableHandleScope@Nan@@QEAA@XZ@4HA 000000018001d9b0 f   serialport.obj
 0001:0001c9be       ?dtor$1@?0???1EscapableHandleScope@Nan@@QEAA@XZ@4HA 000000018001d9be f   serialport.obj
 0001:0001c9d0       ?dtor$0@?0???1HandleScope@Nan@@QEAA@XZ@4HA 000000018001d9d0 f   serialport.obj
 0001:0001c9e0       ?dtor$1@?0??ThrowTypeError@Nan@@YAXPEBD@Z@4HA 000000018001d9e0 f   serialport.obj
 0001:0001c9ee       ?dtor$0@?0??ThrowTypeError@Nan@@YAXPEBD@Z@4HA 000000018001d9ee f   serialport.obj
 0001:0001c9fa       ?dtor$2@?0??ThrowTypeError@Nan@@YAXPEBD@Z@4HA 000000018001d9fa f   serialport.obj
 0001:0001ca10       ?dtor$0@?0???1Callback@Nan@@QEAA@XZ@4HA 000000018001da10 f   serialport.obj
 0001:0001ca1c       ?dtor$1@?0???1Callback@Nan@@QEAA@XZ@4HA 000000018001da1c f   serialport.obj
 0001:0001ca30       ?dtor$0@?0??Call@Callback@Nan@@QEBA?AV?$Local@VValue@v8@@@v8@@HQEAV34@@Z@4HA 000000018001da30 f   serialport.obj
 0001:0001ca3e       ?dtor$1@?0??Call@Callback@Nan@@QEBA?AV?$Local@VValue@v8@@@v8@@HQEAV34@@Z@4HA 000000018001da3e f   serialport.obj
 0001:0001ca4a       ?dtor$3@?0??Call@Callback@Nan@@QEBA?AV?$Local@VValue@v8@@@v8@@HQEAV34@@Z@4HA 000000018001da4a f   serialport.obj
 0001:0001ca58       ?dtor$2@?0??Call@Callback@Nan@@QEBA?AV?$Local@VValue@v8@@@v8@@HQEAV34@@Z@4HA 000000018001da58 f   serialport.obj
 0001:0001ca64       ?dtor$4@?0??Call@Callback@Nan@@QEBA?AV?$Local@VValue@v8@@@v8@@HQEAV34@@Z@4HA 000000018001da64 f   serialport.obj
 0001:0001ca72       ?dtor$5@?0??Call@Callback@Nan@@QEBA?AV?$Local@VValue@v8@@@v8@@HQEAV34@@Z@4HA 000000018001da72 f   serialport.obj
 0001:0001ca80       ?dtor$6@?0??Call@Callback@Nan@@QEBA?AV?$Local@VValue@v8@@@v8@@HQEAV34@@Z@4HA 000000018001da80 f   serialport.obj
 0001:0001ca8e       ?dtor$7@?0??Call@Callback@Nan@@QEBA?AV?$Local@VValue@v8@@@v8@@HQEAV34@@Z@4HA 000000018001da8e f   serialport.obj
 0001:0001ca9c       ?dtor$8@?0??Call@Callback@Nan@@QEBA?AV?$Local@VValue@v8@@@v8@@HQEAV34@@Z@4HA 000000018001da9c f   serialport.obj
 0001:0001cab0       ?dtor$0@?0???1?$Persistent@VFunction@v8@@V?$NonCopyablePersistentTraits@VFunction@v8@@@2@@Nan@@QEAA@XZ@4HA 000000018001dab0 f   serialport.obj
 0001:0001cab0       ?dtor$0@?0???1?$Persistent@VObject@v8@@V?$NonCopyablePersistentTraits@VObject@v8@@@2@@Nan@@QEAA@XZ@4HA 000000018001dab0 f   serialport_win.obj
 0001:0001cac0       ?dtor$0@?0??getValueFromObject@@YA?AV?$Local@VValue@v8@@@v8@@V?$Local@VObject@v8@@@2@V?$basic_string@DU?$char_traits@D@std@@V?$allocator@D@2@@std@@@Z@4HA 000000018001dac0 f   serialport.obj
 0001:0001cacc       ?dtor$1@?0??getValueFromObject@@YA?AV?$Local@VValue@v8@@@v8@@V?$Local@VObject@v8@@@2@V?$basic_string@DU?$char_traits@D@std@@V?$allocator@D@2@@std@@@Z@4HA 000000018001dacc f   serialport.obj
 0001:0001cad8       ?dtor$2@?0??getValueFromObject@@YA?AV?$Local@VValue@v8@@@v8@@V?$Local@VObject@v8@@@2@V?$basic_string@DU?$char_traits@D@std@@V?$allocator@D@2@@std@@@Z@4HA 000000018001dad8 f   serialport.obj
 0001:0001cae6       ?dtor$3@?0??getValueFromObject@@YA?AV?$Local@VValue@v8@@@v8@@V?$Local@VObject@v8@@@2@V?$basic_string@DU?$char_traits@D@std@@V?$allocator@D@2@@std@@@Z@4HA 000000018001dae6 f   serialport.obj
 0001:0001cb00       ?dtor$0@?0??getIntFromObject@@YAHV?$Local@VObject@v8@@@v8@@V?$basic_string@DU?$char_traits@D@std@@V?$allocator@D@2@@std@@@Z@4HA 000000018001db00 f   serialport.obj
 0001:0001cb00       ?dtor$0@?0??getBoolFromObject@@YA_NV?$Local@VObject@v8@@@v8@@V?$basic_string@DU?$char_traits@D@std@@V?$allocator@D@2@@std@@@Z@4HA 000000018001db00 f   serialport.obj
 0001:0001cb0c       ?dtor$1@?0??getBoolFromObject@@YA_NV?$Local@VObject@v8@@@v8@@V?$basic_string@DU?$char_traits@D@std@@V?$allocator@D@2@@std@@@Z@4HA 000000018001db0c f   serialport.obj
 0001:0001cb0c       ?dtor$1@?0??getIntFromObject@@YAHV?$Local@VObject@v8@@@v8@@V?$basic_string@DU?$char_traits@D@std@@V?$allocator@D@2@@std@@@Z@4HA 000000018001db0c f   serialport.obj
 0001:0001cb18       ?dtor$2@?0??getIntFromObject@@YAHV?$Local@VObject@v8@@@v8@@V?$basic_string@DU?$char_traits@D@std@@V?$allocator@D@2@@std@@@Z@4HA 000000018001db18 f   serialport.obj
 0001:0001cb18       ?dtor$2@?0??getBoolFromObject@@YA_NV?$Local@VObject@v8@@@v8@@V?$basic_string@DU?$char_traits@D@std@@V?$allocator@D@2@@std@@@Z@4HA 000000018001db18 f   serialport.obj
 0001:0001cb26       ?dtor$3@?0??getIntFromObject@@YAHV?$Local@VObject@v8@@@v8@@V?$basic_string@DU?$char_traits@D@std@@V?$allocator@D@2@@std@@@Z@4HA 000000018001db26 f   serialport.obj
 0001:0001cb26       ?dtor$3@?0??getBoolFromObject@@YA_NV?$Local@VObject@v8@@@v8@@V?$basic_string@DU?$char_traits@D@std@@V?$allocator@D@2@@std@@@Z@4HA 000000018001db26 f   serialport.obj
 0001:0001cb40       ?dtor$0@?0??Open@@YAXAEBV?$FunctionCallbackInfo@VValue@v8@@@Nan@@@Z@4HA 000000018001db40 f   serialport.obj
 0001:0001cb4e       ?dtor$1@?0??Open@@YAXAEBV?$FunctionCallbackInfo@VValue@v8@@@Nan@@@Z@4HA 000000018001db4e f   serialport.obj
 0001:0001cb6e       ?dtor$14@?0??Open@@YAXAEBV?$FunctionCallbackInfo@VValue@v8@@@Nan@@@Z@4HA 000000018001db6e f   serialport.obj
 0001:0001cb7a       ?dtor$13@?0??Open@@YAXAEBV?$FunctionCallbackInfo@VValue@v8@@@Nan@@@Z@4HA 000000018001db7a f   serialport.obj
 0001:0001cb86       ?dtor$12@?0??Open@@YAXAEBV?$FunctionCallbackInfo@VValue@v8@@@Nan@@@Z@4HA 000000018001db86 f   serialport.obj
 0001:0001cb99       ?dtor$2@?0??Open@@YAXAEBV?$FunctionCallbackInfo@VValue@v8@@@Nan@@@Z@4HA 000000018001db99 f   serialport.obj
 0001:0001cba5       ?dtor$3@?0??Open@@YAXAEBV?$FunctionCallbackInfo@VValue@v8@@@Nan@@@Z@4HA 000000018001dba5 f   serialport.obj
 0001:0001cbb1       ?dtor$4@?0??Open@@YAXAEBV?$FunctionCallbackInfo@VValue@v8@@@Nan@@@Z@4HA 000000018001dbb1 f   serialport.obj
 0001:0001cbbd       ?dtor$15@?0??Open@@YAXAEBV?$FunctionCallbackInfo@VValue@v8@@@Nan@@@Z@4HA 000000018001dbbd f   serialport.obj
 0001:0001cbc9       ?dtor$16@?0??Open@@YAXAEBV?$FunctionCallbackInfo@VValue@v8@@@Nan@@@Z@4HA 000000018001dbc9 f   serialport.obj
 0001:0001cbd5       ?dtor$17@?0??Open@@YAXAEBV?$FunctionCallbackInfo@VValue@v8@@@Nan@@@Z@4HA 000000018001dbd5 f   serialport.obj
 0001:0001cbe3       ?dtor$18@?0??Open@@YAXAEBV?$FunctionCallbackInfo@VValue@v8@@@Nan@@@Z@4HA 000000018001dbe3 f   serialport.obj
 0001:0001cbf1       ?dtor$5@?0??Open@@YAXAEBV?$FunctionCallbackInfo@VValue@v8@@@Nan@@@Z@4HA 000000018001dbf1 f   serialport.obj
 0001:0001cbfd       ?dtor$19@?0??Open@@YAXAEBV?$FunctionCallbackInfo@VValue@v8@@@Nan@@@Z@4HA 000000018001dbfd f   serialport.obj
 0001:0001cc09       ?dtor$20@?0??Open@@YAXAEBV?$FunctionCallbackInfo@VValue@v8@@@Nan@@@Z@4HA 000000018001dc09 f   serialport.obj
 0001:0001cc15       ?dtor$21@?0??Open@@YAXAEBV?$FunctionCallbackInfo@VValue@v8@@@Nan@@@Z@4HA 000000018001dc15 f   serialport.obj
 0001:0001cc23       ?dtor$6@?0??Open@@YAXAEBV?$FunctionCallbackInfo@VValue@v8@@@Nan@@@Z@4HA 000000018001dc23 f   serialport.obj
 0001:0001cc2f       ?dtor$7@?0??Open@@YAXAEBV?$FunctionCallbackInfo@VValue@v8@@@Nan@@@Z@4HA 000000018001dc2f f   serialport.obj
 0001:0001cc3b       ?dtor$8@?0??Open@@YAXAEBV?$FunctionCallbackInfo@VValue@v8@@@Nan@@@Z@4HA 000000018001dc3b f   serialport.obj
 0001:0001cc47       ?dtor$9@?0??Open@@YAXAEBV?$FunctionCallbackInfo@VValue@v8@@@Nan@@@Z@4HA 000000018001dc47 f   serialport.obj
 0001:0001cc53       ?dtor$10@?0??Open@@YAXAEBV?$FunctionCallbackInfo@VValue@v8@@@Nan@@@Z@4HA 000000018001dc53 f   serialport.obj
 0001:0001cc5f       ?dtor$11@?0??Open@@YAXAEBV?$FunctionCallbackInfo@VValue@v8@@@Nan@@@Z@4HA 000000018001dc5f f   serialport.obj
 0001:0001cc70       ?dtor$1@?0??EIO_AfterOpen@@YAXPEAUuv_work_s@@@Z@4HA 000000018001dc70 f   serialport.obj
 0001:0001cc7e       ?dtor$0@?0??EIO_AfterOpen@@YAXPEAUuv_work_s@@@Z@4HA 000000018001dc7e f   serialport.obj
 0001:0001cc8a       ?dtor$2@?0??EIO_AfterOpen@@YAXPEAUuv_work_s@@@Z@4HA 000000018001dc8a f   serialport.obj
 0001:0001cc98       ?dtor$3@?0??EIO_AfterOpen@@YAXPEAUuv_work_s@@@Z@4HA 000000018001dc98 f   serialport.obj
 0001:0001cca6       ?dtor$4@?0??EIO_AfterOpen@@YAXPEAUuv_work_s@@@Z@4HA 000000018001dca6 f   serialport.obj
 0001:0001ccb9       ?dtor$5@?0??EIO_AfterOpen@@YAXPEAUuv_work_s@@@Z@4HA 000000018001dcb9 f   serialport.obj
 0001:0001ccc5       ?dtor$6@?0??EIO_AfterOpen@@YAXPEAUuv_work_s@@@Z@4HA 000000018001dcc5 f   serialport.obj
 0001:0001ccd1       ?dtor$7@?0??EIO_AfterOpen@@YAXPEAUuv_work_s@@@Z@4HA 000000018001dcd1 f   serialport.obj
 0001:0001cce0       ?dtor$2@?0??Update@@YAXAEBV?$FunctionCallbackInfo@VValue@v8@@@Nan@@@Z@4HA 000000018001dce0 f   serialport.obj
 0001:0001ccee       ?dtor$3@?0??Update@@YAXAEBV?$FunctionCallbackInfo@VValue@v8@@@Nan@@@Z@4HA 000000018001dcee f   serialport.obj
 0001:0001ccfc       ?dtor$0@?0??Update@@YAXAEBV?$FunctionCallbackInfo@VValue@v8@@@Nan@@@Z@4HA 000000018001dcfc f   serialport.obj
 0001:0001cd1c       ?dtor$6@?0??Update@@YAXAEBV?$FunctionCallbackInfo@VValue@v8@@@Nan@@@Z@4HA 000000018001dd1c f   serialport.obj
 0001:0001cd28       ?dtor$5@?0??Update@@YAXAEBV?$FunctionCallbackInfo@VValue@v8@@@Nan@@@Z@4HA 000000018001dd28 f   serialport.obj
 0001:0001cd34       ?dtor$4@?0??Update@@YAXAEBV?$FunctionCallbackInfo@VValue@v8@@@Nan@@@Z@4HA 000000018001dd34 f   serialport.obj
 0001:0001cd47       ?dtor$1@?0??Update@@YAXAEBV?$FunctionCallbackInfo@VValue@v8@@@Nan@@@Z@4HA 000000018001dd47 f   serialport.obj
 0001:0001cd60       ?dtor$1@?0??EIO_AfterUpdate@@YAXPEAUuv_work_s@@@Z@4HA 000000018001dd60 f   serialport.obj
 0001:0001cd6e       ?dtor$0@?0??EIO_AfterUpdate@@YAXPEAUuv_work_s@@@Z@4HA 000000018001dd6e f   serialport.obj
 0001:0001cd7a       ?dtor$2@?0??EIO_AfterUpdate@@YAXPEAUuv_work_s@@@Z@4HA 000000018001dd7a f   serialport.obj
 0001:0001cd8d       ?dtor$3@?0??EIO_AfterUpdate@@YAXPEAUuv_work_s@@@Z@4HA 000000018001dd8d f   serialport.obj
 0001:0001cd99       ?dtor$4@?0??EIO_AfterUpdate@@YAXPEAUuv_work_s@@@Z@4HA 000000018001dd99 f   serialport.obj
 0001:0001cda5       ?dtor$5@?0??EIO_AfterUpdate@@YAXPEAUuv_work_s@@@Z@4HA 000000018001dda5 f   serialport.obj
 0001:0001cdc0       ?dtor$0@?0??Close@@YAXAEBV?$FunctionCallbackInfo@VValue@v8@@@Nan@@@Z@4HA 000000018001ddc0 f   serialport.obj
 0001:0001cde0       ?dtor$3@?0??Close@@YAXAEBV?$FunctionCallbackInfo@VValue@v8@@@Nan@@@Z@4HA 000000018001dde0 f   serialport.obj
 0001:0001cdec       ?dtor$2@?0??Close@@YAXAEBV?$FunctionCallbackInfo@VValue@v8@@@Nan@@@Z@4HA 000000018001ddec f   serialport.obj
 0001:0001cdf8       ?dtor$1@?0??Close@@YAXAEBV?$FunctionCallbackInfo@VValue@v8@@@Nan@@@Z@4HA 000000018001ddf8 f   serialport.obj
 0001:0001ce08       ?dtor$4@?0??Close@@YAXAEBV?$FunctionCallbackInfo@VValue@v8@@@Nan@@@Z@4HA 000000018001de08 f   serialport.obj
 0001:0001ce16       ?dtor$5@?0??Close@@YAXAEBV?$FunctionCallbackInfo@VValue@v8@@@Nan@@@Z@4HA 000000018001de16 f   serialport.obj
 0001:0001ce30       ?dtor$1@?0??EIO_AfterFlush@@YAXPEAUuv_work_s@@@Z@4HA 000000018001de30 f   serialport.obj
 0001:0001ce30       ?dtor$1@?0??EIO_AfterClose@@YAXPEAUuv_work_s@@@Z@4HA 000000018001de30 f   serialport.obj
 0001:0001ce30       ?dtor$1@?0??EIO_AfterDrain@@YAXPEAUuv_work_s@@@Z@4HA 000000018001de30 f   serialport.obj
 0001:0001ce30       ?dtor$1@?0??EIO_AfterSet@@YAXPEAUuv_work_s@@@Z@4HA 000000018001de30 f   serialport.obj
 0001:0001ce3e       ?dtor$0@?0??EIO_AfterDrain@@YAXPEAUuv_work_s@@@Z@4HA 000000018001de3e f   serialport.obj
 0001:0001ce3e       ?dtor$0@?0??EIO_AfterSet@@YAXPEAUuv_work_s@@@Z@4HA 000000018001de3e f   serialport.obj
 0001:0001ce3e       ?dtor$0@?0??EIO_AfterClose@@YAXPEAUuv_work_s@@@Z@4HA 000000018001de3e f   serialport.obj
 0001:0001ce3e       ?dtor$0@?0??EIO_AfterFlush@@YAXPEAUuv_work_s@@@Z@4HA 000000018001de3e f   serialport.obj
 0001:0001ce4a       ?dtor$2@?0??EIO_AfterSet@@YAXPEAUuv_work_s@@@Z@4HA 000000018001de4a f   serialport.obj
 0001:0001ce4a       ?dtor$2@?0??EIO_AfterFlush@@YAXPEAUuv_work_s@@@Z@4HA 000000018001de4a f   serialport.obj
 0001:0001ce4a       ?dtor$2@?0??EIO_AfterClose@@YAXPEAUuv_work_s@@@Z@4HA 000000018001de4a f   serialport.obj
 0001:0001ce4a       ?dtor$2@?0??EIO_AfterDrain@@YAXPEAUuv_work_s@@@Z@4HA 000000018001de4a f   serialport.obj
 0001:0001ce5a       ?dtor$3@?0??EIO_AfterFlush@@YAXPEAUuv_work_s@@@Z@4HA 000000018001de5a f   serialport.obj
 0001:0001ce5a       ?dtor$3@?0??EIO_AfterClose@@YAXPEAUuv_work_s@@@Z@4HA 000000018001de5a f   serialport.obj
 0001:0001ce5a       ?dtor$3@?0??EIO_AfterDrain@@YAXPEAUuv_work_s@@@Z@4HA 000000018001de5a f   serialport.obj
 0001:0001ce5a       ?dtor$3@?0??EIO_AfterSet@@YAXPEAUuv_work_s@@@Z@4HA 000000018001de5a f   serialport.obj
 0001:0001ce66       ?dtor$4@?0??EIO_AfterFlush@@YAXPEAUuv_work_s@@@Z@4HA 000000018001de66 f   serialport.obj
 0001:0001ce66       ?dtor$4@?0??EIO_AfterDrain@@YAXPEAUuv_work_s@@@Z@4HA 000000018001de66 f   serialport.obj
 0001:0001ce66       ?dtor$4@?0??EIO_AfterClose@@YAXPEAUuv_work_s@@@Z@4HA 000000018001de66 f   serialport.obj
 0001:0001ce66       ?dtor$4@?0??EIO_AfterSet@@YAXPEAUuv_work_s@@@Z@4HA 000000018001de66 f   serialport.obj
 0001:0001ce72       ?dtor$5@?0??EIO_AfterFlush@@YAXPEAUuv_work_s@@@Z@4HA 000000018001de72 f   serialport.obj
 0001:0001ce72       ?dtor$5@?0??EIO_AfterSet@@YAXPEAUuv_work_s@@@Z@4HA 000000018001de72 f   serialport.obj
 0001:0001ce72       ?dtor$5@?0??EIO_AfterDrain@@YAXPEAUuv_work_s@@@Z@4HA 000000018001de72 f   serialport.obj
 0001:0001ce72       ?dtor$5@?0??EIO_AfterClose@@YAXPEAUuv_work_s@@@Z@4HA 000000018001de72 f   serialport.obj
 0001:0001ce80       ?dtor$1@?0??Drain@@YAXAEBV?$FunctionCallbackInfo@VValue@v8@@@Nan@@@Z@4HA 000000018001de80 f   serialport.obj
 0001:0001ce80       ?dtor$1@?0??Flush@@YAXAEBV?$FunctionCallbackInfo@VValue@v8@@@Nan@@@Z@4HA 000000018001de80 f   serialport.obj
 0001:0001ce8e       ?dtor$0@?0??Drain@@YAXAEBV?$FunctionCallbackInfo@VValue@v8@@@Nan@@@Z@4HA 000000018001de8e f   serialport.obj
 0001:0001ce8e       ?dtor$0@?0??Flush@@YAXAEBV?$FunctionCallbackInfo@VValue@v8@@@Nan@@@Z@4HA 000000018001de8e f   serialport.obj
 0001:0001ceab       ?dtor$4@?0??Drain@@YAXAEBV?$FunctionCallbackInfo@VValue@v8@@@Nan@@@Z@4HA 000000018001deab f   serialport.obj
 0001:0001ceab       ?dtor$4@?0??Flush@@YAXAEBV?$FunctionCallbackInfo@VValue@v8@@@Nan@@@Z@4HA 000000018001deab f   serialport.obj
 0001:0001ceb7       ?dtor$3@?0??Flush@@YAXAEBV?$FunctionCallbackInfo@VValue@v8@@@Nan@@@Z@4HA 000000018001deb7 f   serialport.obj
 0001:0001ceb7       ?dtor$3@?0??Drain@@YAXAEBV?$FunctionCallbackInfo@VValue@v8@@@Nan@@@Z@4HA 000000018001deb7 f   serialport.obj
 0001:0001cec3       ?dtor$2@?0??Flush@@YAXAEBV?$FunctionCallbackInfo@VValue@v8@@@Nan@@@Z@4HA 000000018001dec3 f   serialport.obj
 0001:0001cec3       ?dtor$2@?0??Drain@@YAXAEBV?$FunctionCallbackInfo@VValue@v8@@@Nan@@@Z@4HA 000000018001dec3 f   serialport.obj
 0001:0001cee0       ?dtor$6@?0??Set@@YAXAEBV?$FunctionCallbackInfo@VValue@v8@@@Nan@@@Z@4HA 000000018001dee0 f   serialport.obj
 0001:0001ceee       ?dtor$0@?0??Set@@YAXAEBV?$FunctionCallbackInfo@VValue@v8@@@Nan@@@Z@4HA 000000018001deee f   serialport.obj
 0001:0001cf0e       ?dtor$9@?0??Set@@YAXAEBV?$FunctionCallbackInfo@VValue@v8@@@Nan@@@Z@4HA 000000018001df0e f   serialport.obj
 0001:0001cf1a       ?dtor$8@?0??Set@@YAXAEBV?$FunctionCallbackInfo@VValue@v8@@@Nan@@@Z@4HA 000000018001df1a f   serialport.obj
 0001:0001cf26       ?dtor$7@?0??Set@@YAXAEBV?$FunctionCallbackInfo@VValue@v8@@@Nan@@@Z@4HA 000000018001df26 f   serialport.obj
 0001:0001cf36       ?dtor$1@?0??Set@@YAXAEBV?$FunctionCallbackInfo@VValue@v8@@@Nan@@@Z@4HA 000000018001df36 f   serialport.obj
 0001:0001cf42       ?dtor$2@?0??Set@@YAXAEBV?$FunctionCallbackInfo@VValue@v8@@@Nan@@@Z@4HA 000000018001df42 f   serialport.obj
 0001:0001cf4e       ?dtor$3@?0??Set@@YAXAEBV?$FunctionCallbackInfo@VValue@v8@@@Nan@@@Z@4HA 000000018001df4e f   serialport.obj
 0001:0001cf5a       ?dtor$4@?0??Set@@YAXAEBV?$FunctionCallbackInfo@VValue@v8@@@Nan@@@Z@4HA 000000018001df5a f   serialport.obj
 0001:0001cf66       ?dtor$5@?0??Set@@YAXAEBV?$FunctionCallbackInfo@VValue@v8@@@Nan@@@Z@4HA 000000018001df66 f   serialport.obj
 0001:0001cf80       ?dtor$1@?0??Get@@YAXAEBV?$FunctionCallbackInfo@VValue@v8@@@Nan@@@Z@4HA 000000018001df80 f   serialport.obj
 0001:0001cf8e       ?dtor$0@?0??Get@@YAXAEBV?$FunctionCallbackInfo@VValue@v8@@@Nan@@@Z@4HA 000000018001df8e f   serialport.obj
 0001:0001cfab       ?dtor$4@?0??Get@@YAXAEBV?$FunctionCallbackInfo@VValue@v8@@@Nan@@@Z@4HA 000000018001dfab f   serialport.obj
 0001:0001cfb7       ?dtor$3@?0??Get@@YAXAEBV?$FunctionCallbackInfo@VValue@v8@@@Nan@@@Z@4HA 000000018001dfb7 f   serialport.obj
 0001:0001cfc3       ?dtor$2@?0??Get@@YAXAEBV?$FunctionCallbackInfo@VValue@v8@@@Nan@@@Z@4HA 000000018001dfc3 f   serialport.obj
 0001:0001cfe0       ?dtor$1@?0??EIO_AfterGet@@YAXPEAUuv_work_s@@@Z@4HA 000000018001dfe0 f   serialport.obj
 0001:0001cfee       ?dtor$0@?0??EIO_AfterGet@@YAXPEAUuv_work_s@@@Z@4HA 000000018001dfee f   serialport.obj
 0001:0001cffa       ?dtor$2@?0??EIO_AfterGet@@YAXPEAUuv_work_s@@@Z@4HA 000000018001dffa f   serialport.obj
 0001:0001d00a       ?dtor$3@?0??EIO_AfterGet@@YAXPEAUuv_work_s@@@Z@4HA 000000018001e00a f   serialport.obj
 0001:0001d016       ?dtor$4@?0??EIO_AfterGet@@YAXPEAUuv_work_s@@@Z@4HA 000000018001e016 f   serialport.obj
 0001:0001d022       ?dtor$5@?0??EIO_AfterGet@@YAXPEAUuv_work_s@@@Z@4HA 000000018001e022 f   serialport.obj
 0001:0001d030       ?dtor$2@?0??ToParityEnum@@YA?AW4SerialPortParity@@AEBV?$Local@VString@v8@@@v8@@@Z@4HA 000000018001e030 f   serialport.obj
 0001:0001d03e       ?dtor$0@?0??ToParityEnum@@YA?AW4SerialPortParity@@AEBV?$Local@VString@v8@@@v8@@@Z@4HA 000000018001e03e f   serialport.obj
 0001:0001d04a       ?dtor$4@?0??ToParityEnum@@YA?AW4SerialPortParity@@AEBV?$Local@VString@v8@@@v8@@@Z@4HA 000000018001e04a f   serialport.obj
 0001:0001d058       ?dtor$3@?0??ToParityEnum@@YA?AW4SerialPortParity@@AEBV?$Local@VString@v8@@@v8@@@Z@4HA 000000018001e058 f   serialport.obj
 0001:0001d064       ?dtor$5@?0??ToParityEnum@@YA?AW4SerialPortParity@@AEBV?$Local@VString@v8@@@v8@@@Z@4HA 000000018001e064 f   serialport.obj
 0001:0001d072       ?dtor$1@?0??ToParityEnum@@YA?AW4SerialPortParity@@AEBV?$Local@VString@v8@@@v8@@@Z@4HA 000000018001e072 f   serialport.obj
 0001:0001d07e       ?dtor$6@?0??ToParityEnum@@YA?AW4SerialPortParity@@AEBV?$Local@VString@v8@@@v8@@@Z@4HA 000000018001e07e f   serialport.obj
 0001:0001d090       init$dtor$1                000000018001e090 f   serialport.obj
 0001:0001d09e       init$dtor$0                000000018001e09e f   serialport.obj
 0001:0001d0aa       init$dtor$2                000000018001e0aa f   serialport.obj
 0001:0001d0c0       ?dtor$0@?0???$New@VString@v8@@V?$basic_string@DU?$char_traits@D@std@@V?$allocator@D@2@@std@@@Nan@@YA?AV?$MaybeLocal@VString@v8@@@v8@@V?$basic_string@DU?$char_traits@D@std@@V?$allocator@D@2@@std@@@Z@4HA 000000018001e0c0 f   serialport.obj
 0001:0001d0d0       ?dtor$0@?0???$New@VFunctionTemplate@v8@@@Nan@@YA?AV?$Local@VFunctionTemplate@v8@@@v8@@P6AXAEBV?$FunctionCallbackInfo@VValue@v8@@@0@@ZV?$Local@VValue@v8@@@2@@Z@4HA 000000018001e0d0 f   serialport.obj
 0001:0001d0de       ?dtor$1@?0???$New@VFunctionTemplate@v8@@@Nan@@YA?AV?$Local@VFunctionTemplate@v8@@@v8@@P6AXAEBV?$FunctionCallbackInfo@VValue@v8@@@0@@ZV?$Local@VValue@v8@@@2@@Z@4HA 000000018001e0de f   serialport.obj
 0001:0001d0ec       ?dtor$2@?0???$New@VFunctionTemplate@v8@@@Nan@@YA?AV?$Local@VFunctionTemplate@v8@@@v8@@P6AXAEBV?$FunctionCallbackInfo@VValue@v8@@@0@@ZV?$Local@VValue@v8@@@2@@Z@4HA 000000018001e0ec f   serialport.obj
 0001:0001d0fa       ?dtor$3@?0???$New@VFunctionTemplate@v8@@@Nan@@YA?AV?$Local@VFunctionTemplate@v8@@@v8@@P6AXAEBV?$FunctionCallbackInfo@VValue@v8@@@0@@ZV?$Local@VValue@v8@@@2@@Z@4HA 000000018001e0fa f   serialport.obj
 0001:0001d110       ?dtor$1@?0???$SetMethod@VObject@v8@@VLocal@2@@Nan@@YAXV?$Local@VObject@v8@@@v8@@PEBDP6AXAEBV?$FunctionCallbackInfo@VValue@v8@@@0@@Z@Z@4HA 000000018001e110 f   serialport.obj
 0001:0001d11e       ?dtor$0@?0???$SetMethod@VObject@v8@@VLocal@2@@Nan@@YAXV?$Local@VObject@v8@@@v8@@PEBDP6AXAEBV?$FunctionCallbackInfo@VValue@v8@@@0@@Z@Z@4HA 000000018001e11e f   serialport.obj
 0001:0001d12a       ?dtor$2@?0???$SetMethod@VObject@v8@@VLocal@2@@Nan@@YAXV?$Local@VObject@v8@@@v8@@PEBDP6AXAEBV?$FunctionCallbackInfo@VValue@v8@@@0@@Z@Z@4HA 000000018001e12a f   serialport.obj
 0001:0001d140       ?dtor$0@?0???$SetMethodAux@V?$Local@VObject@v8@@@v8@@@imp@Nan@@YAXV?$Local@VObject@v8@@@v8@@V?$Local@VString@v8@@@3@V?$Local@VFunctionTemplate@v8@@@3@ZZ@4HA 000000018001e140 f   serialport.obj
 0001:0001d14e       ?dtor$1@?0???$SetMethodAux@V?$Local@VObject@v8@@@v8@@@imp@Nan@@YAXV?$Local@VObject@v8@@@v8@@V?$Local@VString@v8@@@3@V?$Local@VFunctionTemplate@v8@@@3@ZZ@4HA 000000018001e14e f   serialport.obj
 0001:0001d160       ?dtor$1@?0???__Eg_closingHandles@@YAXXZ@4HA 000000018001e160 f   serialport_win.obj
 0001:0001d16c       ?dtor$0@?0???__Eg_closingHandles@@YAXXZ@4HA 000000018001e16c f   serialport_win.obj
 0001:0001d180       ?dtor$0@?0???__Fg_closingHandles@@YAXXZ@4HA 000000018001e180 f   serialport_win.obj
 0001:0001d18c       ?dtor$1@?0???__Fg_closingHandles@@YAXXZ@4HA 000000018001e18c f   serialport_win.obj
 0001:0001d1a0       ?dtor$1@?0??Write@@YAXAEBV?$FunctionCallbackInfo@VValue@v8@@@Nan@@@Z@4HA 000000018001e1a0 f   serialport_win.obj
 0001:0001d1ae       ?dtor$0@?0??Write@@YAXAEBV?$FunctionCallbackInfo@VValue@v8@@@Nan@@@Z@4HA 000000018001e1ae f   serialport_win.obj
 0001:0001d1ce       ?dtor$4@?0??Write@@YAXAEBV?$FunctionCallbackInfo@VValue@v8@@@Nan@@@Z@4HA 000000018001e1ce f   serialport_win.obj
 0001:0001d1da       ?dtor$2@?0??Write@@YAXAEBV?$FunctionCallbackInfo@VValue@v8@@@Nan@@@Z@4HA 000000018001e1da f   serialport_win.obj
 0001:0001d1ea       ?dtor$6@?0??Write@@YAXAEBV?$FunctionCallbackInfo@VValue@v8@@@Nan@@@Z@4HA 000000018001e1ea f   serialport_win.obj
 0001:0001d1f6       ?dtor$5@?0??Write@@YAXAEBV?$FunctionCallbackInfo@VValue@v8@@@Nan@@@Z@4HA 000000018001e1f6 f   serialport_win.obj
 0001:0001d202       ?dtor$3@?0??Write@@YAXAEBV?$FunctionCallbackInfo@VValue@v8@@@Nan@@@Z@4HA 000000018001e202 f   serialport_win.obj
 0001:0001d220       ?dtor$1@?0??EIO_AfterWrite@@YAXPEAUuv_async_s@@@Z@4HA 000000018001e220 f   serialport_win.obj
 0001:0001d22e       ?dtor$0@?0??EIO_AfterWrite@@YAXPEAUuv_async_s@@@Z@4HA 000000018001e22e f   serialport_win.obj
 0001:0001d23a       ?dtor$2@?0??EIO_AfterWrite@@YAXPEAUuv_async_s@@@Z@4HA 000000018001e23a f   serialport_win.obj
 0001:0001d24a       ?dtor$3@?0??EIO_AfterWrite@@YAXPEAUuv_async_s@@@Z@4HA 000000018001e24a f   serialport_win.obj
 0001:0001d25a       ?dtor$4@?0??EIO_AfterWrite@@YAXPEAUuv_async_s@@@Z@4HA 000000018001e25a f   serialport_win.obj
 0001:0001d266       ?dtor$5@?0??EIO_AfterWrite@@YAXPEAUuv_async_s@@@Z@4HA 000000018001e266 f   serialport_win.obj
 0001:0001d272       ?dtor$6@?0??EIO_AfterWrite@@YAXPEAUuv_async_s@@@Z@4HA 000000018001e272 f   serialport_win.obj
 0001:0001d27e       ?dtor$7@?0??EIO_AfterWrite@@YAXPEAUuv_async_s@@@Z@4HA 000000018001e27e f   serialport_win.obj
 0001:0001d290       ?dtor$1@?0??Read@@YAXAEBV?$FunctionCallbackInfo@VValue@v8@@@Nan@@@Z@4HA 000000018001e290 f   serialport_win.obj
 0001:0001d29e       ?dtor$2@?0??Read@@YAXAEBV?$FunctionCallbackInfo@VValue@v8@@@Nan@@@Z@4HA 000000018001e29e f   serialport_win.obj
 0001:0001d2ac       ?dtor$3@?0??Read@@YAXAEBV?$FunctionCallbackInfo@VValue@v8@@@Nan@@@Z@4HA 000000018001e2ac f   serialport_win.obj
 0001:0001d2ba       ?dtor$4@?0??Read@@YAXAEBV?$FunctionCallbackInfo@VValue@v8@@@Nan@@@Z@4HA 000000018001e2ba f   serialport_win.obj
 0001:0001d2c8       ?dtor$5@?0??Read@@YAXAEBV?$FunctionCallbackInfo@VValue@v8@@@Nan@@@Z@4HA 000000018001e2c8 f   serialport_win.obj
 0001:0001d2d6       ?dtor$0@?0??Read@@YAXAEBV?$FunctionCallbackInfo@VValue@v8@@@Nan@@@Z@4HA 000000018001e2d6 f   serialport_win.obj
 0001:0001d2f6       ?dtor$8@?0??Read@@YAXAEBV?$FunctionCallbackInfo@VValue@v8@@@Nan@@@Z@4HA 000000018001e2f6 f   serialport_win.obj
 0001:0001d302       ?dtor$7@?0??Read@@YAXAEBV?$FunctionCallbackInfo@VValue@v8@@@Nan@@@Z@4HA 000000018001e302 f   serialport_win.obj
 0001:0001d30e       ?dtor$6@?0??Read@@YAXAEBV?$FunctionCallbackInfo@VValue@v8@@@Nan@@@Z@4HA 000000018001e30e f   serialport_win.obj
 0001:0001d330       ?dtor$1@?0??EIO_AfterRead@@YAXPEAUuv_async_s@@@Z@4HA 000000018001e330 f   serialport_win.obj
 0001:0001d33e       ?dtor$0@?0??EIO_AfterRead@@YAXPEAUuv_async_s@@@Z@4HA 000000018001e33e f   serialport_win.obj
 0001:0001d34a       ?dtor$3@?0??EIO_AfterRead@@YAXPEAUuv_async_s@@@Z@4HA 000000018001e34a f   serialport_win.obj
 0001:0001d358       ?dtor$2@?0??EIO_AfterRead@@YAXPEAUuv_async_s@@@Z@4HA 000000018001e358 f   serialport_win.obj
 0001:0001d364       ?dtor$4@?0??EIO_AfterRead@@YAXPEAUuv_async_s@@@Z@4HA 000000018001e364 f   serialport_win.obj
 0001:0001d372       ?dtor$5@?0??EIO_AfterRead@@YAXPEAUuv_async_s@@@Z@4HA 000000018001e372 f   serialport_win.obj
 0001:0001d380       ?dtor$6@?0??EIO_AfterRead@@YAXPEAUuv_async_s@@@Z@4HA 000000018001e380 f   serialport_win.obj
 0001:0001d38e       ?dtor$7@?0??EIO_AfterRead@@YAXPEAUuv_async_s@@@Z@4HA 000000018001e38e f   serialport_win.obj
 0001:0001d39c       ?dtor$8@?0??EIO_AfterRead@@YAXPEAUuv_async_s@@@Z@4HA 000000018001e39c f   serialport_win.obj
 0001:0001d3af       ?dtor$9@?0??EIO_AfterRead@@YAXPEAUuv_async_s@@@Z@4HA 000000018001e3af f   serialport_win.obj
 0001:0001d3bb       ?dtor$10@?0??EIO_AfterRead@@YAXPEAUuv_async_s@@@Z@4HA 000000018001e3bb f   serialport_win.obj
 0001:0001d3c7       ?dtor$11@?0??EIO_AfterRead@@YAXPEAUuv_async_s@@@Z@4HA 000000018001e3c7 f   serialport_win.obj
 0001:0001d3e0       ?dtor$0@?0??List@@YAXAEBV?$FunctionCallbackInfo@VValue@v8@@@Nan@@@Z@4HA 000000018001e3e0 f   serialport_win.obj
 0001:0001d3fd       ?dtor$4@?0??List@@YAXAEBV?$FunctionCallbackInfo@VValue@v8@@@Nan@@@Z@4HA 000000018001e3fd f   serialport_win.obj
 0001:0001d409       ?dtor$3@?0??List@@YAXAEBV?$FunctionCallbackInfo@VValue@v8@@@Nan@@@Z@4HA 000000018001e409 f   serialport_win.obj
 0001:0001d415       ?dtor$1@?0??List@@YAXAEBV?$FunctionCallbackInfo@VValue@v8@@@Nan@@@Z@4HA 000000018001e415 f   serialport_win.obj
 0001:0001d421       ?dtor$6@?0??List@@YAXAEBV?$FunctionCallbackInfo@VValue@v8@@@Nan@@@Z@4HA 000000018001e421 f   serialport_win.obj
 0001:0001d42d       ?dtor$5@?0??List@@YAXAEBV?$FunctionCallbackInfo@VValue@v8@@@Nan@@@Z@4HA 000000018001e42d f   serialport_win.obj
 0001:0001d439       ?dtor$2@?0??List@@YAXAEBV?$FunctionCallbackInfo@VValue@v8@@@Nan@@@Z@4HA 000000018001e439 f   serialport_win.obj
 0001:0001d450       ?dtor$0@?0??EIO_List@@YAXPEAUuv_work_s@@@Z@4HA 000000018001e450 f   serialport_win.obj
 0001:0001d45c       ?dtor$1@?0??EIO_List@@YAXPEAUuv_work_s@@@Z@4HA 000000018001e45c f   serialport_win.obj
 0001:0001d46c       ?dtor$2@?0??EIO_List@@YAXPEAUuv_work_s@@@Z@4HA 000000018001e46c f   serialport_win.obj
 0001:0001d47c       ?dtor$3@?0??EIO_List@@YAXPEAUuv_work_s@@@Z@4HA 000000018001e47c f   serialport_win.obj
 0001:0001d48c       ?dtor$4@?0??EIO_List@@YAXPEAUuv_work_s@@@Z@4HA 000000018001e48c f   serialport_win.obj
 0001:0001d49f       ?dtor$5@?0??EIO_List@@YAXPEAUuv_work_s@@@Z@4HA 000000018001e49f f   serialport_win.obj
 0001:0001d4b2       ?dtor$6@?0??EIO_List@@YAXPEAUuv_work_s@@@Z@4HA 000000018001e4b2 f   serialport_win.obj
 0001:0001d4d0       ?dtor$0@?0??setIfNotEmpty@@YAXV?$Local@VObject@v8@@@v8@@V?$basic_string@DU?$char_traits@D@std@@V?$allocator@D@2@@std@@PEBD@Z@4HA 000000018001e4d0 f   serialport_win.obj
 0001:0001d4dc       ?dtor$1@?0??setIfNotEmpty@@YAXV?$Local@VObject@v8@@@v8@@V?$basic_string@DU?$char_traits@D@std@@V?$allocator@D@2@@std@@PEBD@Z@4HA 000000018001e4dc f   serialport_win.obj
 0001:0001d4e8       ?dtor$2@?0??setIfNotEmpty@@YAXV?$Local@VObject@v8@@@v8@@V?$basic_string@DU?$char_traits@D@std@@V?$allocator@D@2@@std@@PEBD@Z@4HA 000000018001e4e8 f   serialport_win.obj
 0001:0001d4f6       ?dtor$3@?0??setIfNotEmpty@@YAXV?$Local@VObject@v8@@@v8@@V?$basic_string@DU?$char_traits@D@std@@V?$allocator@D@2@@std@@PEBD@Z@4HA 000000018001e4f6 f   serialport_win.obj
 0001:0001d510       ?dtor$8@?0??EIO_AfterList@@YAXPEAUuv_work_s@@@Z@4HA 000000018001e510 f   serialport_win.obj
 0001:0001d51e       ?dtor$0@?0??EIO_AfterList@@YAXPEAUuv_work_s@@@Z@4HA 000000018001e51e f   serialport_win.obj
 0001:0001d52a       ?dtor$1@?0??EIO_AfterList@@YAXPEAUuv_work_s@@@Z@4HA 000000018001e52a f   serialport_win.obj
 0001:0001d536       ?dtor$2@?0??EIO_AfterList@@YAXPEAUuv_work_s@@@Z@4HA 000000018001e536 f   serialport_win.obj
 0001:0001d542       ?dtor$3@?0??EIO_AfterList@@YAXPEAUuv_work_s@@@Z@4HA 000000018001e542 f   serialport_win.obj
 0001:0001d54e       ?dtor$4@?0??EIO_AfterList@@YAXPEAUuv_work_s@@@Z@4HA 000000018001e54e f   serialport_win.obj
 0001:0001d55a       ?dtor$5@?0??EIO_AfterList@@YAXPEAUuv_work_s@@@Z@4HA 000000018001e55a f   serialport_win.obj
 0001:0001d566       ?dtor$6@?0??EIO_AfterList@@YAXPEAUuv_work_s@@@Z@4HA 000000018001e566 f   serialport_win.obj
 0001:0001d572       ?dtor$7@?0??EIO_AfterList@@YAXPEAUuv_work_s@@@Z@4HA 000000018001e572 f   serialport_win.obj
 0001:0001d57e       ?dtor$9@?0??EIO_AfterList@@YAXPEAUuv_work_s@@@Z@4HA 000000018001e57e f   serialport_win.obj
 0001:0001d58c       ?dtor$10@?0??EIO_AfterList@@YAXPEAUuv_work_s@@@Z@4HA 000000018001e58c f   serialport_win.obj
 0001:0001d598       ?dtor$11@?0??EIO_AfterList@@YAXPEAUuv_work_s@@@Z@4HA 000000018001e598 f   serialport_win.obj
 0001:0001d5a8       ?dtor$12@?0??EIO_AfterList@@YAXPEAUuv_work_s@@@Z@4HA 000000018001e5a8 f   serialport_win.obj
 0001:0001d5b4       ?dtor$13@?0??EIO_AfterList@@YAXPEAUuv_work_s@@@Z@4HA 000000018001e5b4 f   serialport_win.obj
 0001:0001d5c0       ?dtor$14@?0??EIO_AfterList@@YAXPEAUuv_work_s@@@Z@4HA 000000018001e5c0 f   serialport_win.obj
 0001:0001d5cc       ?dtor$15@?0??EIO_AfterList@@YAXPEAUuv_work_s@@@Z@4HA 000000018001e5cc f   serialport_win.obj
 0001:0001d5d8       ?dtor$16@?0??EIO_AfterList@@YAXPEAUuv_work_s@@@Z@4HA 000000018001e5d8 f   serialport_win.obj
 0001:0001d5f0       ?dtor$0@?0???1ListResultItem@@QEAA@XZ@4HA 000000018001e5f0 f   serialport_win.obj
 0001:0001d5fc       ?dtor$1@?0???1ListResultItem@@QEAA@XZ@4HA 000000018001e5fc f   serialport_win.obj
 0001:0001d60c       ?dtor$2@?0???1ListResultItem@@QEAA@XZ@4HA 000000018001e60c f   serialport_win.obj
 0001:0001d61c       ?dtor$3@?0???1ListResultItem@@QEAA@XZ@4HA 000000018001e61c f   serialport_win.obj
 0001:0001d62c       ?dtor$4@?0???1ListResultItem@@QEAA@XZ@4HA 000000018001e62c f   serialport_win.obj
 0001:0001d63f       ?dtor$5@?0???1ListResultItem@@QEAA@XZ@4HA 000000018001e63f f   serialport_win.obj
 0001:0001d652       ?dtor$6@?0???1ListResultItem@@QEAA@XZ@4HA 000000018001e652 f   serialport_win.obj
 0001:0001d670       ?dtor$0@?0???1?$list@PEAUListResultItem@@V?$allocator@PEAUListResultItem@@@std@@@std@@QEAA@XZ@4HA 000000018001e670 f   serialport_win.obj
 0001:0001d67c       ?dtor$1@?0???1?$list@PEAUListResultItem@@V?$allocator@PEAUListResultItem@@@std@@@std@@QEAA@XZ@4HA 000000018001e67c f   serialport_win.obj
 0001:0001d690       ?dtor$0@?0???1?$_List_buy@HV?$allocator@H@std@@@std@@QEAA@XZ@4HA 000000018001e690 f   serialport_win.obj
 0001:0001d6a0       ?dtor$0@?0???1?$_List_buy@PEAUListResultItem@@V?$allocator@PEAUListResultItem@@@std@@@std@@QEAA@XZ@4HA 000000018001e6a0 f   serialport_win.obj
 0001:0001d6ac       __scrt_is_nonwritable_in_current_image$filt$0 000000018001e6ac f   LIBCMT:utility.obj
 0001:0001d6c4       ?fin$0@?0??dllmain_crt_process_attach@@YAHQEAUHINSTANCE__@@QEAX@Z@4HA 000000018001e6c4 f   LIBCMT:dll_dllmain.obj
 0001:0001d6db       ?fin$0@?0??dllmain_crt_process_detach@@YAH_N@Z@4HA 000000018001e6db f   LIBCMT:dll_dllmain.obj
 0001:0001d6f7       ?filt$0@?0??dllmain_dispatch@@YAHQEAUHINSTANCE__@@KQEAX@Z@4HA 000000018001e6f7 f   LIBCMT:dll_dllmain.obj
 0001:0001d72d       ?filt$0@?0???$_CallSETranslator@V__FrameHandler3@@@@YAHPEAUEHExceptionRecord@@PEA_KPEAU_CONTEXT@@PEAU_xDISPATCHER_CONTEXT@@PEBU_s_FuncInfo@@K1@Z@4HA 000000018001e72d f   libvcruntime:risctrnsctrl.obj
 0001:0001d7be       ?filt$0@?0??CxxCallCatchBlock@__FrameHandler3@@SAPEAXPEAU_EXCEPTION_RECORD@@@Z@4HA 000000018001e7be f   libvcruntime:frame.obj
 0001:0001d7e3       ?fin$1@?0??CxxCallCatchBlock@__FrameHandler3@@SAPEAXPEAU_EXCEPTION_RECORD@@@Z@4HA 000000018001e7e3 f   libvcruntime:frame.obj
 0001:0001d85b       ?filt$0@?0??FrameUnwindToState@__FrameHandler3@@SAXPEA_KPEAU_xDISPATCHER_CONTEXT@@PEBU_s_FuncInfo@@H@Z@4HA 000000018001e85b f   libvcruntime:frame.obj
 0001:0001d871       ?fin$1@?0??FrameUnwindToState@__FrameHandler3@@SAXPEA_KPEAU_xDISPATCHER_CONTEXT@@PEBU_s_FuncInfo@@H@Z@4HA 000000018001e871 f   libvcruntime:frame.obj
 0001:0001d894       __DestructExceptionObject$filt$0 000000018001e894 f   libvcruntime:ehhelpers.obj
 0001:0001d8ac       ?fin$0@?0???$?RV<lambda_84ec643ea9557e2f7dc01bb0e9624395>@@AEAV<lambda_ca71763b3c0644891230e4f79ea54fa6>@@V<lambda_439a761618c59b0600e24586724d733b>@@@?$__crt_seh_guarded_call@H@@QEAAH$$QEAV<lambda_84ec643ea9557e2f7dc01bb0e9624395>@@AEAV<lambda_ca71763b3c0644891230e4f79ea54fa6>@@$$QEAV<lambda_439a761618c59b0600e24586724d733b>@@@Z@4HA 000000018001e8ac f   libucrt:setvbuf.obj
 0001:0001d8ac       ?fin$0@?0???$?RV<lambda_842d9ff0dc9ef11c61343bbaebe7f885>@@AEAV<lambda_c5860995281e5c4ce005b3de8f5874ee>@@V<lambda_d90129c13df834fdcbf8d2b88dafcf2d>@@@?$__crt_seh_guarded_call@X@@QEAAX$$QEAV<lambda_842d9ff0dc9ef11c61343bbaebe7f885>@@AEAV<lambda_c5860995281e5c4ce005b3de8f5874ee>@@$$QEAV<lambda_d90129c13df834fdcbf8d2b88dafcf2d>@@@Z@4HA 000000018001e8ac f   libucrt:fflush.obj
 0001:0001d8ac       ?fin$0@?0???$?RV<lambda_c376a267cfb53b6959b3b692ec76b120>@@AEAV<lambda_9a32fed5bf61b6b509b2d3f6003082a1>@@V<lambda_572fbb9fa0ab338edf41edfd4b5fcc8d>@@@?$__crt_seh_guarded_call@H@@QEAAH$$QEAV<lambda_c376a267cfb53b6959b3b692ec76b120>@@AEAV<lambda_9a32fed5bf61b6b509b2d3f6003082a1>@@$$QEAV<lambda_572fbb9fa0ab338edf41edfd4b5fcc8d>@@@Z@4HA 000000018001e8ac f   libucrt:fflush.obj
 0001:0001d8ac       ?fin$0@?0???$?RV<lambda_0d412022a4b28cc8a401ea49574e8ae6>@@AEAV<lambda_a775ed57af18ba8e4d5dc780aa9068fe>@@V<lambda_975a71a6baa488a08f4e15f6b0339b9e>@@@?$__crt_seh_guarded_call@H@@QEAAH$$QEAV<lambda_0d412022a4b28cc8a401ea49574e8ae6>@@AEAV<lambda_a775ed57af18ba8e4d5dc780aa9068fe>@@$$QEAV<lambda_975a71a6baa488a08f4e15f6b0339b9e>@@@Z@4HA 000000018001e8ac f   libucrt:output.obj
 0001:0001d8c7       _query_new_handler$fin$0   000000018001e8c7 f   libucrt:new_handler.obj
 0001:0001d8dd       ?fin$0@?0???$?RV<lambda_7777bce6b2f8c936911f934f8298dc43>@@AEAV<lambda_f03950bc5685219e0bcd2087efbe011e>@@V<lambda_3883c3dff614d5e0c5f61bb1ac94921c>@@@?$__crt_seh_guarded_call@H@@QEAAH$$QEAV<lambda_7777bce6b2f8c936911f934f8298dc43>@@AEAV<lambda_f03950bc5685219e0bcd2087efbe011e>@@$$QEAV<lambda_3883c3dff614d5e0c5f61bb1ac94921c>@@@Z@4HA 000000018001e8dd f   libucrt:onexit.obj
 0001:0001d8dd       ?fin$0@?0???$?RV<lambda_f2e299630e499de9f9a165e60fcd3db5>@@AEAV<lambda_2ae9d31cdba2644fcbeaf08da7c24588>@@V<lambda_40d01ff24d0e7b3814fdbdcee8eab3c7>@@@?$__crt_seh_guarded_call@X@@QEAAX$$QEAV<lambda_f2e299630e499de9f9a165e60fcd3db5>@@AEAV<lambda_2ae9d31cdba2644fcbeaf08da7c24588>@@$$QEAV<lambda_40d01ff24d0e7b3814fdbdcee8eab3c7>@@@Z@4HA 000000018001e8dd f   libucrt:per_thread_data.obj
 0001:0001d8dd       ?fin$0@?0???$?RV<lambda_aa87e3671a710a21b5dc78c0bdf72e11>@@AEAV<lambda_92619d2358a28f41a33ba319515a20b9>@@V<lambda_6992ecaafeb10aed2b74cb1fae11a551>@@@?$__crt_seh_guarded_call@X@@QEAAX$$QEAV<lambda_aa87e3671a710a21b5dc78c0bdf72e11>@@AEAV<lambda_92619d2358a28f41a33ba319515a20b9>@@$$QEAV<lambda_6992ecaafeb10aed2b74cb1fae11a551>@@@Z@4HA 000000018001e8dd f   libucrt:per_thread_data.obj
 0001:0001d8dd       ?fin$0@?0???$?RV<lambda_2d41944a1d46af3157314b8a01080d33>@@AEAV<lambda_8f455de75cd7d7f24b4096f044d8b9e6>@@V<lambda_aa500f224e6afead328df44964fe2772>@@@?$__crt_seh_guarded_call@X@@QEAAX$$QEAV<lambda_2d41944a1d46af3157314b8a01080d33>@@AEAV<lambda_8f455de75cd7d7f24b4096f044d8b9e6>@@$$QEAV<lambda_aa500f224e6afead328df44964fe2772>@@@Z@4HA 000000018001e8dd f   libucrt:per_thread_data.obj
 0001:0001d8dd       ?fin$0@?0???$?RV<lambda_0ae27a3a962d80f24befdcbee591983d>@@AEAV<lambda_8d0ee55de4b1038c4002e0adecdf1839>@@V<lambda_dc504788e8f1664fe9b84e20bfb512f2>@@@?$__crt_seh_guarded_call@X@@QEAAX$$QEAV<lambda_0ae27a3a962d80f24befdcbee591983d>@@AEAV<lambda_8d0ee55de4b1038c4002e0adecdf1839>@@$$QEAV<lambda_dc504788e8f1664fe9b84e20bfb512f2>@@@Z@4HA 000000018001e8dd f   libucrt:per_thread_data.obj
 0001:0001d8dd       ?fin$0@?0???$?RV<lambda_8369fcb7c4df1e85de37618bd2b85f07>@@AEAV<lambda_a10e4b102d4a2c3aac6f4f48bbdf488f>@@V<lambda_5b7707bd6d7a0c4713179f36c7fd995d>@@@?$__crt_seh_guarded_call@H@@QEAAH$$QEAV<lambda_8369fcb7c4df1e85de37618bd2b85f07>@@AEAV<lambda_a10e4b102d4a2c3aac6f4f48bbdf488f>@@$$QEAV<lambda_5b7707bd6d7a0c4713179f36c7fd995d>@@@Z@4HA 000000018001e8dd f   libucrt:onexit.obj
 0001:0001d8dd       ?fin$0@?0???$?RV<lambda_efdfa57d1f175319df784efa44bb7b81>@@AEAV<lambda_5f0a4c1567f8adc6734073e5d1e1b35c>@@V<lambda_2e8a7d3640ea6ccb4c2413664c2db6fd>@@@?$__crt_seh_guarded_call@X@@QEAAX$$QEAV<lambda_efdfa57d1f175319df784efa44bb7b81>@@AEAV<lambda_5f0a4c1567f8adc6734073e5d1e1b35c>@@$$QEAV<lambda_2e8a7d3640ea6ccb4c2413664c2db6fd>@@@Z@4HA 000000018001e8dd f   libucrt:mbctype.obj
 0001:0001d8dd       ?fin$0@?0???$?RV<lambda_450d765d439847d4c735a33c368b5fc0>@@AEAV<lambda_44731a7d0e6d81c3e6aa82d741081786>@@V<lambda_601a2a7da3b7a96e9554ac7215c4b07c>@@@?$__crt_seh_guarded_call@P6AXH@Z@@QEAAP6AXH@Z$$QEAV<lambda_450d765d439847d4c735a33c368b5fc0>@@AEAV<lambda_44731a7d0e6d81c3e6aa82d741081786>@@$$QEAV<lambda_601a2a7da3b7a96e9554ac7215c4b07c>@@@Z@4HA 000000018001e8dd f   libucrt:signal.obj
 0001:0001d8dd       ?fin$0@?0???$?RV<lambda_d80eeec6fff315bfe5c115232f3240e3>@@AEAV<lambda_6e4b09c48022b2350581041d5f6b0c4c>@@V<lambda_2358e3775559c9db80273638284d5e45>@@@?$__crt_seh_guarded_call@X@@QEAAX$$QEAV<lambda_d80eeec6fff315bfe5c115232f3240e3>@@AEAV<lambda_6e4b09c48022b2350581041d5f6b0c4c>@@$$QEAV<lambda_2358e3775559c9db80273638284d5e45>@@@Z@4HA 000000018001e8dd f   libucrt:exit.obj
 0001:0001d8f7       ?filt$0@?0???R<lambda_6e4b09c48022b2350581041d5f6b0c4c>@@QEBA@XZ@4HA 000000018001e8f7 f   libucrt:exit.obj
 0001:0001d912       ?fin$0@?0???$?RV<lambda_886d6c58226a84441f68b9f2b8217b83>@@AEAV<lambda_ab61a845afdef5b7c387490eaf3616ee>@@V<lambda_f7f22ab5edc0698d5f6905b0d3f44752>@@@?$__crt_seh_guarded_call@X@@QEAAX$$QEAV<lambda_886d6c58226a84441f68b9f2b8217b83>@@AEAV<lambda_ab61a845afdef5b7c387490eaf3616ee>@@$$QEAV<lambda_f7f22ab5edc0698d5f6905b0d3f44752>@@@Z@4HA 000000018001e912 f   libucrt:fflush.obj
 0001:0001d92f       raise$fin$0                000000018001e92f f   libucrt:signal.obj
 0001:0001d950       ?fin$0@?0???$?RV<lambda_410d79af7f07d98d83a3f525b3859a53>@@AEAV<lambda_3e16ef9562a7dcce91392c22ab16ea36>@@V<lambda_38119f0e861e05405d8a144b9b982f0a>@@@?$__crt_seh_guarded_call@X@@QEAAX$$QEAV<lambda_410d79af7f07d98d83a3f525b3859a53>@@AEAV<lambda_3e16ef9562a7dcce91392c22ab16ea36>@@$$QEAV<lambda_38119f0e861e05405d8a144b9b982f0a>@@@Z@4HA 000000018001e950 f   libucrt:wsetlocale.obj
 0001:0001d96a       __acrt_initialize_lowio$fin$0 000000018001e96a f   libucrt:ioinit.obj
 0001:0001d96a       __acrt_lowio_ensure_fh_exists$fin$0 000000018001e96a f   libucrt:osfinfo.obj
 0001:0001d983       ?fin$0@?0??update_thread_multibyte_data_internal@@YAPEAU__crt_multibyte_data@@QEAU__acrt_ptd@@QEAPEAU1@@Z@4HA 000000018001e983 f   libucrt:mbctype.obj
 0001:0001d99c       _fcloseall$fin$0           000000018001e99c f   libucrt:closeall.obj
 0001:0001d9b5       ?fin$0@?0???$?RV<lambda_a37b2b86f63e897a80ea819b0eb08c01>@@AEAV<lambda_38ce7e780aa69e748d6df282ebc68efe>@@V<lambda_99fb1378e971ab6e7edea83e3a7a83a2>@@@?$__crt_seh_guarded_call@H@@QEAAH$$QEAV<lambda_a37b2b86f63e897a80ea819b0eb08c01>@@AEAV<lambda_38ce7e780aa69e748d6df282ebc68efe>@@$$QEAV<lambda_99fb1378e971ab6e7edea83e3a7a83a2>@@@Z@4HA 000000018001e9b5 f   libucrt:commit.obj
 0001:0001d9b5       ?fin$0@?0???$?RV<lambda_751a882b2c74d4b022dec766aa51a29a>@@AEAV<lambda_628dfdc04ba53c8bfc02c9951375f3f5>@@V<lambda_f6c7be5f7998530c34de24c7437d6b54>@@@?$__crt_seh_guarded_call@H@@QEAAH$$QEAV<lambda_751a882b2c74d4b022dec766aa51a29a>@@AEAV<lambda_628dfdc04ba53c8bfc02c9951375f3f5>@@$$QEAV<lambda_f6c7be5f7998530c34de24c7437d6b54>@@@Z@4HA 000000018001e9b5 f   libucrt:close.obj
 0001:0001d9cf       ?fin$0@?0???$common_lseek@_J@@YA_JH_JH@Z@4HA 000000018001e9cf f   libucrt:lseek.obj
 0001:0001d9cf       _write$fin$0               000000018001e9cf f   libucrt:write.obj
 0001:0001d9e6       __acrt_update_thread_locale_data$fin$0 000000018001e9e6 f   libucrt:locale_refcounting.obj
 0001:0001d9ff       fclose$fin$0               000000018001e9ff f   libucrt:fclose.obj
 0001:0001da17       ?dtor$0@?0??_wcstombs_l_helper@@YA_KPEADPEB_W_KPEAU__crt_locale_pointers@@@Z@4HA 000000018001ea17 f   libucrt:wcstombs.obj
 0001:0001da23       _ctrlfp$filt$0             000000018001ea23 f   libucrt:fpctrl.obj
 0001:0001da50       _IsNonwritableInCurrentImage$filt$0 000000018001ea50 f   LIBCMT:pesect.obj
 0001:0001da70       ??__Fg_closingHandles@@YAXXZ 000000018001ea70 f   serialport_win.obj
 0002:00000358       ?g_closingHandles$initializer$@@3P6AXXZEA 000000018001f358     serialport_win.obj
 0002:00000478       GS_ExceptionPointers       000000018001f478     LIBCMT:gs_report.obj
 0002:000004d0       ?ExceptionTemplate@?1??UnwindNestedFrames@__FrameHandler3@@SAXPEA_KPEAUEHExceptionRecord@@PEAU_CONTEXT@@0PEAXPEBU_s_FuncInfo@@HHPEBU_s_HandlerType@@PEAU_xDISPATCHER_CONTEXT@@E@Z@4U_EXCEPTION_RECORD@@B 000000018001f4d0     libvcruntime:risctrnsctrl.obj
 0002:00000570       ?ExceptionTemplate@?1??_CxxThrowException@@9@4UEHExceptionRecord@@B 000000018001f570     libvcruntime:throw.obj
 0002:000005d8       ?module_names@?A0xcc2f1bd3@@3QBQEB_WB 000000018001f5d8     libvcruntime:winapi_downlevel.obj
 0002:000006a8       ?candidate_modules@?1??try_get_FlsAlloc@@YAP6AKP6AXPEAX@Z@ZXZ@4QBW4module_id@?A0xcc2f1bd3@@B 000000018001f6a8     libvcruntime:winapi_downlevel.obj
 0002:000006c0       ?candidate_modules@?1??try_get_FlsFree@@YAP6AHK@ZXZ@4QBW4module_id@?A0xcc2f1bd3@@B 000000018001f6c0     libvcruntime:winapi_downlevel.obj
 0002:000006d0       ?candidate_modules@?1??try_get_FlsGetValue@@YAP6APEAXK@ZXZ@4QBW4module_id@?A0xcc2f1bd3@@B 000000018001f6d0     libvcruntime:winapi_downlevel.obj
 0002:000006e8       ?candidate_modules@?1??try_get_FlsSetValue@@YAP6AHKPEAX@ZXZ@4QBW4module_id@?A0xcc2f1bd3@@B 000000018001f6e8     libvcruntime:winapi_downlevel.obj
 0002:00000700       ?candidate_modules@?1??try_get_InitializeCriticalSectionEx@@YAP6AHPEAU_RTL_CRITICAL_SECTION@@KK@ZXZ@4QBW4module_id@?A0xcc2f1bd3@@B 000000018001f700     libvcruntime:winapi_downlevel.obj
 0002:00000730       ?tokenTable@@3QBQEBDB      000000018001f730     libvcruntime:undname.obj
 0002:000007b0       ?nameTable@@3QBQEBDB       000000018001f7b0     libvcruntime:undname.obj
 0002:00000a40       ?rttiTable@@3QBQEBDB       000000018001fa40     libvcruntime:undname.obj
 0002:000015c0       __acrt_initializers        00000001800205c0     libucrt:initialization.obj
 0002:000016c0       ?errtable@@3QBUerrentry@?A0x31fdb9ec@@B 00000001800206c0     libucrt:errno.obj
 0002:00001f00       ?_mb_locale_names@@3QBQEB_WB 0000000180020f00     libucrt:mbctype.obj
 0002:00001f60       ?module_names@?A0x391cf84c@@3QBQEB_WB 0000000180020f60     libucrt:winapi_thunks.obj
 0002:00002508       ?candidate_modules@?1??try_get_FlsAlloc@@YAP6AKP6AXPEAX@Z@ZXZ@4QBW4module_id@?A0x391cf84c@@B 0000000180021508     libucrt:winapi_thunks.obj
 0002:00002520       ?candidate_modules@?1??try_get_FlsFree@@YAP6AHK@ZXZ@4QBW4module_id@?A0x391cf84c@@B 0000000180021520     libucrt:winapi_thunks.obj
 0002:00002530       ?candidate_modules@?1??try_get_FlsGetValue@@YAP6APEAXK@ZXZ@4QBW4module_id@?A0x391cf84c@@B 0000000180021530     libucrt:winapi_thunks.obj
 0002:00002548       ?candidate_modules@?1??try_get_FlsSetValue@@YAP6AHKPEAX@ZXZ@4QBW4module_id@?A0x391cf84c@@B 0000000180021548     libucrt:winapi_thunks.obj
 0002:00002560       ?candidate_modules@?1??try_get_GetActiveWindow@@YAP6APEAUHWND__@@XZXZ@4QBW4module_id@?A0x391cf84c@@B 0000000180021560     libucrt:winapi_thunks.obj
 0002:00002578       ?candidate_modules@?1??try_get_GetLastActivePopup@@YAP6APEAUHWND__@@PEAU2@@ZXZ@4QBW4module_id@?A0x391cf84c@@B 0000000180021578     libucrt:winapi_thunks.obj
 0002:00002598       ?candidate_modules@?1??try_get_GetProcessWindowStation@@YAP6APEAUHWINSTA__@@XZXZ@4QBW4module_id@?A0x391cf84c@@B 0000000180021598     libucrt:winapi_thunks.obj
 0002:000025b8       ?candidate_modules@?1??try_get_GetUserObjectInformationW@@YAP6AHPEAXH0KPEAK@ZXZ@4QBW4module_id@?A0x391cf84c@@B 00000001800215b8     libucrt:winapi_thunks.obj
 0002:000025e0       ?candidate_modules@?1??try_get_InitializeCriticalSectionEx@@YAP6AHPEAU_RTL_CRITICAL_SECTION@@KK@ZXZ@4QBW4module_id@?A0x391cf84c@@B 00000001800215e0     libucrt:winapi_thunks.obj
 0002:00002608       ?candidate_modules@?1??try_get_LCMapStringEx@@YAP6AHPEB_WK0HPEA_WHPEAU_nlsversioninfo@@PEAX_J@ZXZ@4QBW4module_id@?A0x391cf84c@@B 0000000180021608     libucrt:winapi_thunks.obj
 0002:00002620       ?candidate_modules@?1??try_get_LocaleNameToLCID@@YAP6AKPEB_WK@ZXZ@4QBW4module_id@?A0x391cf84c@@B 0000000180021620     libucrt:winapi_thunks.obj
 0002:00002640       ?candidate_modules@?1??try_get_MessageBoxA@@YAP6AHPEAUHWND__@@PEBD1I@ZXZ@4QBW4module_id@?A0x391cf84c@@B 0000000180021640     libucrt:winapi_thunks.obj
 0002:00002658       ?candidate_modules@?1??try_get_MessageBoxW@@YAP6AHPEAUHWND__@@PEB_W1I@ZXZ@4QBW4module_id@?A0x391cf84c@@B 0000000180021658     libucrt:winapi_thunks.obj
 0002:0000266c       ?candidate_modules@?1??try_get_AppPolicyGetProcessTerminationMethod@@YAP6AJPEAXPEAW4AppPolicyProcessTerminationMethod@@@ZXZ@4QBW4module_id@?A0x391cf84c@@B 000000018002166c     libucrt:winapi_thunks.obj
 0002:00002698       ?candidate_modules@?1??try_get_AppPolicyGetShowDeveloperDiagnostic@@YAP6AJPEAXPEAW4AppPolicyShowDeveloperDiagnostic@@@ZXZ@4QBW4module_id@?A0x391cf84c@@B 0000000180021698     libucrt:winapi_thunks.obj
 0002:000026c4       ?candidate_modules@?1??try_get_AppPolicyGetWindowingModel@@YAP6AJPEAXPEAW4AppPolicyWindowingModel@@@ZXZ@4QBW4module_id@?A0x391cf84c@@B 00000001800216c4     libucrt:winapi_thunks.obj
 0002:00003900       ?LcidToLocaleNameTable@?A0x881e4c05@@3QBULcidToLocaleName@1@B 0000000180022900     libucrt:lcidtoname_downlevel.obj
 0002:00005360       ?LocaleNameToIndexTable@?A0x881e4c05@@3QBULocaleNameIndex@1@B 0000000180024360     libucrt:lcidtoname_downlevel.obj
 0002:00006c00       __real_ninf                0000000180025c00     libucrt:log10.obj
 0002:00006c10       __real_inf                 0000000180025c10     libucrt:log10.obj
 0002:00006c20       __real_neg_qnan            0000000180025c20     libucrt:log10.obj
 0002:00006c30       __real_qnanbit             0000000180025c30     libucrt:log10.obj
 0002:00006c40       __int_1023                 0000000180025c40     libucrt:log10.obj
 0002:00006c50       __mask_001                 0000000180025c50     libucrt:log10.obj
 0002:00006c60       __mask_mant                0000000180025c60     libucrt:log10.obj
 0002:00006c70       __mask_mant_top8           0000000180025c70     libucrt:log10.obj
 0002:00006c80       __mask_mant9               0000000180025c80     libucrt:log10.obj
 0002:00006c90       __real_log10_e             0000000180025c90     libucrt:log10.obj
 0002:00006ca0       __real_log10_e_lead        0000000180025ca0     libucrt:log10.obj
 0002:00006cb0       __real_log10_e_tail        0000000180025cb0     libucrt:log10.obj
 0002:00006cc0       __real_log10_2_lead        0000000180025cc0     libucrt:log10.obj
 0002:00006cd0       __real_log10_2_tail        0000000180025cd0     libucrt:log10.obj
 0002:00006ce0       __real_two                 0000000180025ce0     libucrt:log10.obj
 0002:00006cf0       __real_one                 0000000180025cf0     libucrt:log10.obj
 0002:00006d00       __real_half                0000000180025d00     libucrt:log10.obj
 0002:00006d10       __mask_100                 0000000180025d10     libucrt:log10.obj
 0002:00006d20       __real_1_over_512          0000000180025d20     libucrt:log10.obj
 0002:00006d30       __real_1_over_2            0000000180025d30     libucrt:log10.obj
 0002:00006d40       __real_1_over_3            0000000180025d40     libucrt:log10.obj
 0002:00006d50       __real_1_over_4            0000000180025d50     libucrt:log10.obj
 0002:00006d60       __real_1_over_5            0000000180025d60     libucrt:log10.obj
 0002:00006d70       __real_1_over_6            0000000180025d70     libucrt:log10.obj
 0002:00006d80       __real_neg_1023            0000000180025d80     libucrt:log10.obj
 0002:00006d90       __mask_2045                0000000180025d90     libucrt:log10.obj
 0002:00006da0       __real_threshold           0000000180025da0     libucrt:log10.obj
 0002:00006db0       __real_near_one_lt         0000000180025db0     libucrt:log10.obj
 0002:00006dc0       __real_near_one_gt         0000000180025dc0     libucrt:log10.obj
 0002:00006dd0       __real_min_norm            0000000180025dd0     libucrt:log10.obj
 0002:00006de0       __real_notsign             0000000180025de0     libucrt:log10.obj
 0002:00006df0       __real_ca1                 0000000180025df0     libucrt:log10.obj
 0002:00006e00       __real_ca2                 0000000180025e00     libucrt:log10.obj
 0002:00006e10       __real_ca3                 0000000180025e10     libucrt:log10.obj
 0002:00006e20       __real_ca4                 0000000180025e20     libucrt:log10.obj
 0002:00006e30       __mask_lower               0000000180025e30     libucrt:log10.obj
 0002:00006e40       __flag_x_zero              0000000180025e40     libucrt:log10.obj
 0002:00006e44       __flag_x_neg               0000000180025e44     libucrt:log10.obj
 0002:00006e48       __flag_x_nan               0000000180025e48     libucrt:log10.obj
 0002:00006e50       $cppxdata$?_wcstombs_l_helper@@YA_KPEADPEB_W_KPEAU__crt_locale_pointers@@@Z 0000000180025e50     libucrt:wcstombs.obj
 0002:000086d0       __real@433fffffffffffff    00000001800276d0     libucrt:fpsr.obj
 0002:000086d8       __real@c33fffffffffffff    00000001800276d8     libucrt:fpsr.obj
 0002:00009200       $cppxdata$??$SetMethodAux@V?$Local@VObject@v8@@@v8@@@imp@Nan@@YAXV?$Local@VObject@v8@@@v8@@V?$Local@VString@v8@@@3@V?$Local@VFunctionTemplate@v8@@@3@ZZ 0000000180028200     serialport.obj
 0002:00009228       $cppxdata$??$SetMethod@VObject@v8@@VLocal@2@@Nan@@YAXV?$Local@VObject@v8@@@v8@@PEBDP6AXAEBV?$FunctionCallbackInfo@VValue@v8@@@0@@Z@Z 0000000180028228     serialport.obj
 0002:00009250       $cppxdata$??$New@VFunctionTemplate@v8@@@Nan@@YA?AV?$Local@VFunctionTemplate@v8@@@v8@@P6AXAEBV?$FunctionCallbackInfo@VValue@v8@@@0@@ZV?$Local@VValue@v8@@@2@@Z 0000000180028250     serialport.obj
 0002:00009278       $cppxdata$??$New@VString@v8@@V?$basic_string@DU?$char_traits@D@std@@V?$allocator@D@2@@std@@@Nan@@YA?AV?$MaybeLocal@VString@v8@@@v8@@V?$basic_string@DU?$char_traits@D@std@@V?$allocator@D@2@@std@@@Z 0000000180028278     serialport.obj
 0002:000092a0       $cppxdata$??1?$basic_string@DU?$char_traits@D@std@@V?$allocator@D@2@@std@@QEAA@XZ 00000001800282a0     serialport.obj
 0002:000092c8       $cppxdata$??1?$Persistent@VObject@v8@@V?$NonCopyablePersistentTraits@VObject@v8@@@2@@v8@@QEAA@XZ 00000001800282c8     serialport_win.obj
 0002:000092c8       $cppxdata$??1?$Persistent@VFunction@v8@@V?$NonCopyablePersistentTraits@VFunction@v8@@@2@@v8@@QEAA@XZ 00000001800282c8     serialport.obj
 0002:000092f0       $cppxdata$init             00000001800282f0     serialport.obj
 0002:00009318       $cppxdata$?ToParityEnum@@YA?AW4SerialPortParity@@AEBV?$Local@VString@v8@@@v8@@@Z 0000000180028318     serialport.obj
 0002:00009340       $cppxdata$?EIO_AfterClose@@YAXPEAUuv_work_s@@@Z 0000000180028340     serialport.obj
 0002:00009340       $cppxdata$?EIO_AfterDrain@@YAXPEAUuv_work_s@@@Z 0000000180028340     serialport.obj
 0002:00009340       $cppxdata$?EIO_AfterFlush@@YAXPEAUuv_work_s@@@Z 0000000180028340     serialport.obj
 0002:00009368       $cppxdata$?Drain@@YAXAEBV?$FunctionCallbackInfo@VValue@v8@@@Nan@@@Z 0000000180028368     serialport.obj
 0002:00009390       $cppxdata$?EIO_AfterGet@@YAXPEAUuv_work_s@@@Z 0000000180028390     serialport.obj
 0002:000093b8       $cppxdata$?Get@@YAXAEBV?$FunctionCallbackInfo@VValue@v8@@@Nan@@@Z 00000001800283b8     serialport.obj
 0002:000093e0       $cppxdata$?EIO_AfterSet@@YAXPEAUuv_work_s@@@Z 00000001800283e0     serialport.obj
 0002:00009408       $cppxdata$?Set@@YAXAEBV?$FunctionCallbackInfo@VValue@v8@@@Nan@@@Z 0000000180028408     serialport.obj
 0002:00009430       $cppxdata$?Flush@@YAXAEBV?$FunctionCallbackInfo@VValue@v8@@@Nan@@@Z 0000000180028430     serialport.obj
 0002:00009458       $cppxdata$?Close@@YAXAEBV?$FunctionCallbackInfo@VValue@v8@@@Nan@@@Z 0000000180028458     serialport.obj
 0002:00009480       $cppxdata$?EIO_AfterUpdate@@YAXPEAUuv_work_s@@@Z 0000000180028480     serialport.obj
 0002:000094a8       $cppxdata$?Update@@YAXAEBV?$FunctionCallbackInfo@VValue@v8@@@Nan@@@Z 00000001800284a8     serialport.obj
 0002:000094d0       $cppxdata$?EIO_AfterOpen@@YAXPEAUuv_work_s@@@Z 00000001800284d0     serialport.obj
 0002:000094f8       $cppxdata$?Open@@YAXAEBV?$FunctionCallbackInfo@VValue@v8@@@Nan@@@Z 00000001800284f8     serialport.obj
 0002:00009520       $cppxdata$?getBoolFromObject@@YA_NV?$Local@VObject@v8@@@v8@@V?$basic_string@DU?$char_traits@D@std@@V?$allocator@D@2@@std@@@Z 0000000180028520     serialport.obj
 0002:00009548       $cppxdata$?getIntFromObject@@YAHV?$Local@VObject@v8@@@v8@@V?$basic_string@DU?$char_traits@D@std@@V?$allocator@D@2@@std@@@Z 0000000180028548     serialport.obj
 0002:00009570       $cppxdata$?getValueFromObject@@YA?AV?$Local@VValue@v8@@@v8@@V?$Local@VObject@v8@@@2@V?$basic_string@DU?$char_traits@D@std@@V?$allocator@D@2@@std@@@Z 0000000180028570     serialport.obj
 0002:00009598       $cppxdata$??1?$Persistent@VFunction@v8@@V?$NonCopyablePersistentTraits@VFunction@v8@@@2@@Nan@@QEAA@XZ 0000000180028598     serialport.obj
 0002:00009598       $cppxdata$??1?$Persistent@VObject@v8@@V?$NonCopyablePersistentTraits@VObject@v8@@@2@@Nan@@QEAA@XZ 0000000180028598     serialport_win.obj
 0002:000095c0       $cppxdata$?Call@Callback@Nan@@QEBA?AV?$Local@VValue@v8@@@v8@@HQEAV34@@Z 00000001800285c0     serialport.obj
 0002:000095e8       $cppxdata$??1Callback@Nan@@QEAA@XZ 00000001800285e8     serialport.obj
 0002:00009610       $cppxdata$??1Utf8String@Nan@@QEAA@XZ 0000000180028610     serialport.obj
 0002:00009638       $cppxdata$?ThrowTypeError@Nan@@YAXPEBD@Z 0000000180028638     serialport.obj
 0002:00009660       $cppxdata$??1HandleScope@Nan@@QEAA@XZ 0000000180028660     serialport.obj
 0002:00009688       $cppxdata$??1EscapableHandleScope@Nan@@QEAA@XZ 0000000180028688     serialport.obj
 0002:000096b0       $cppxdata$??1AsyncResource@Nan@@QEAA@XZ 00000001800286b0     serialport.obj
 0002:000096f8       $cppxdata$??1?$_List_alloc@U?$_List_base_types@PEAUListResultItem@@V?$allocator@PEAUListResultItem@@@std@@@std@@@std@@QEAA@XZ 00000001800286f8     serialport_win.obj
 0002:00009720       $cppxdata$??1?$_List_alloc@U?$_List_base_types@HV?$allocator@H@std@@@std@@@std@@QEAA@XZ 0000000180028720     serialport_win.obj
 0002:00009748       $cppxdata$??1?$_List_buy@PEAUListResultItem@@V?$allocator@PEAUListResultItem@@@std@@@std@@QEAA@XZ 0000000180028748     serialport_win.obj
 0002:00009770       $cppxdata$??1?$_List_buy@HV?$allocator@H@std@@@std@@QEAA@XZ 0000000180028770     serialport_win.obj
 0002:00009798       $cppxdata$??1?$list@PEAUListResultItem@@V?$allocator@PEAUListResultItem@@@std@@@std@@QEAA@XZ 0000000180028798     serialport_win.obj
 0002:000097c0       $cppxdata$??1ListResultItem@@QEAA@XZ 00000001800287c0     serialport_win.obj
 0002:000097e8       $cppxdata$?EIO_AfterList@@YAXPEAUuv_work_s@@@Z 00000001800287e8     serialport_win.obj
 0002:00009810       $cppxdata$?setIfNotEmpty@@YAXV?$Local@VObject@v8@@@v8@@V?$basic_string@DU?$char_traits@D@std@@V?$allocator@D@2@@std@@PEBD@Z 0000000180028810     serialport_win.obj
 0002:00009838       $cppxdata$?EIO_List@@YAXPEAUuv_work_s@@@Z 0000000180028838     serialport_win.obj
 0002:00009860       $cppxdata$?EIO_AfterRead@@YAXPEAUuv_async_s@@@Z 0000000180028860     serialport_win.obj
 0002:00009888       $cppxdata$?EIO_AfterWrite@@YAXPEAUuv_async_s@@@Z 0000000180028888     serialport_win.obj
 0002:000098b0       $cppxdata$??__Fg_closingHandles@@YAXXZ 00000001800288b0     serialport_win.obj
 0002:000098d8       $cppxdata$??__Eg_closingHandles@@YAXXZ 00000001800288d8     serialport_win.obj
 0002:00009900       $cppxdata$?Read@@YAXAEBV?$FunctionCallbackInfo@VValue@v8@@@Nan@@@Z 0000000180028900     serialport_win.obj
 0002:00009928       $cppxdata$?Write@@YAXAEBV?$FunctionCallbackInfo@VValue@v8@@@Nan@@@Z 0000000180028928     serialport_win.obj
 0002:00009950       $cppxdata$?List@@YAXAEBV?$FunctionCallbackInfo@VValue@v8@@@Nan@@@Z 0000000180028950     serialport_win.obj
 0002:0000a1a0       $unwind$?FunctionCallbackWrapper@imp@Nan@@YAXAEBV?$FunctionCallbackInfo@VValue@v8@@@v8@@@Z 00000001800291a0     serialport.obj
 0002:0000a1b4       $unwind$??1AsyncResource@Nan@@QEAA@XZ 00000001800291b4     serialport.obj
 0002:0000a1c8       $ip2state$??1AsyncResource@Nan@@QEAA@XZ 00000001800291c8     serialport.obj
 0002:0000a1d0       $unwind$??1EscapableHandleScope@Nan@@QEAA@XZ 00000001800291d0     serialport.obj
 0002:0000a1e0       $stateUnwindMap$??1EscapableHandleScope@Nan@@QEAA@XZ 00000001800291e0     serialport.obj
 0002:0000a1f0       $ip2state$??1EscapableHandleScope@Nan@@QEAA@XZ 00000001800291f0     serialport.obj
 0002:0000a1f8       $unwind$??1HandleScope@Nan@@QEAA@XZ 00000001800291f8     serialport.obj
 0002:0000a208       $stateUnwindMap$??1HandleScope@Nan@@QEAA@XZ 0000000180029208     serialport.obj
 0002:0000a210       $ip2state$??1HandleScope@Nan@@QEAA@XZ 0000000180029210     serialport.obj
 0002:0000a218       $unwind$?ThrowTypeError@Nan@@YAXPEBD@Z 0000000180029218     serialport.obj
 0002:0000a228       $stateUnwindMap$?ThrowTypeError@Nan@@YAXPEBD@Z 0000000180029228     serialport.obj
 0002:0000a240       $ip2state$?ThrowTypeError@Nan@@YAXPEBD@Z 0000000180029240     serialport.obj
 0002:0000a258       $unwind$??1Utf8String@Nan@@QEAA@XZ 0000000180029258     serialport.obj
 0002:0000a268       $ip2state$??1Utf8String@Nan@@QEAA@XZ 0000000180029268     serialport.obj
 0002:0000a270       $unwind$??1Callback@Nan@@QEAA@XZ 0000000180029270     serialport.obj
 0002:0000a280       $stateUnwindMap$??1Callback@Nan@@QEAA@XZ 0000000180029280     serialport.obj
 0002:0000a290       $ip2state$??1Callback@Nan@@QEAA@XZ 0000000180029290     serialport.obj
 0002:0000a2a8       $unwind$?Call@Callback@Nan@@QEBA?AV?$Local@VValue@v8@@@v8@@HQEAV34@@Z 00000001800292a8     serialport.obj
 0002:0000a2d8       $stateUnwindMap$?Call@Callback@Nan@@QEBA?AV?$Local@VValue@v8@@@v8@@HQEAV34@@Z 00000001800292d8     serialport.obj
 0002:0000a320       $ip2state$?Call@Callback@Nan@@QEBA?AV?$Local@VValue@v8@@@v8@@HQEAV34@@Z 0000000180029320     serialport.obj
 0002:0000a368       $unwind$??1?$Persistent@VFunction@v8@@V?$NonCopyablePersistentTraits@VFunction@v8@@@2@@Nan@@QEAA@XZ 0000000180029368     serialport.obj
 0002:0000a368       $unwind$??1?$Persistent@VObject@v8@@V?$NonCopyablePersistentTraits@VObject@v8@@@2@@Nan@@QEAA@XZ 0000000180029368     serialport_win.obj
 0002:0000a378       $stateUnwindMap$??1?$Persistent@VObject@v8@@V?$NonCopyablePersistentTraits@VObject@v8@@@2@@Nan@@QEAA@XZ 0000000180029378     serialport_win.obj
 0002:0000a378       $stateUnwindMap$??1?$Persistent@VFunction@v8@@V?$NonCopyablePersistentTraits@VFunction@v8@@@2@@Nan@@QEAA@XZ 0000000180029378     serialport.obj
 0002:0000a380       $ip2state$??1?$Persistent@VObject@v8@@V?$NonCopyablePersistentTraits@VObject@v8@@@2@@Nan@@QEAA@XZ 0000000180029380     serialport_win.obj
 0002:0000a380       $ip2state$??1?$Persistent@VFunction@v8@@V?$NonCopyablePersistentTraits@VFunction@v8@@@2@@Nan@@QEAA@XZ 0000000180029380     serialport.obj
 0002:0000a388       $unwind$?getValueFromObject@@YA?AV?$Local@VValue@v8@@@v8@@V?$Local@VObject@v8@@@2@V?$basic_string@DU?$char_traits@D@std@@V?$allocator@D@2@@std@@@Z 0000000180029388     serialport.obj
 0002:0000a3a8       $stateUnwindMap$?getValueFromObject@@YA?AV?$Local@VValue@v8@@@v8@@V?$Local@VObject@v8@@@2@V?$basic_string@DU?$char_traits@D@std@@V?$allocator@D@2@@std@@@Z 00000001800293a8     serialport.obj
 0002:0000a3c8       $ip2state$?getValueFromObject@@YA?AV?$Local@VValue@v8@@@v8@@V?$Local@VObject@v8@@@2@V?$basic_string@DU?$char_traits@D@std@@V?$allocator@D@2@@std@@@Z 00000001800293c8     serialport.obj
 0002:0000a3f0       $unwind$?getIntFromObject@@YAHV?$Local@VObject@v8@@@v8@@V?$basic_string@DU?$char_traits@D@std@@V?$allocator@D@2@@std@@@Z 00000001800293f0     serialport.obj
 0002:0000a410       $stateUnwindMap$?getBoolFromObject@@YA_NV?$Local@VObject@v8@@@v8@@V?$basic_string@DU?$char_traits@D@std@@V?$allocator@D@2@@std@@@Z 0000000180029410     serialport.obj
 0002:0000a410       $stateUnwindMap$?getIntFromObject@@YAHV?$Local@VObject@v8@@@v8@@V?$basic_string@DU?$char_traits@D@std@@V?$allocator@D@2@@std@@@Z 0000000180029410     serialport.obj
 0002:0000a430       $ip2state$?getIntFromObject@@YAHV?$Local@VObject@v8@@@v8@@V?$basic_string@DU?$char_traits@D@std@@V?$allocator@D@2@@std@@@Z 0000000180029430     serialport.obj
 0002:0000a458       $unwind$?getBoolFromObject@@YA_NV?$Local@VObject@v8@@@v8@@V?$basic_string@DU?$char_traits@D@std@@V?$allocator@D@2@@std@@@Z 0000000180029458     serialport.obj
 0002:0000a478       $ip2state$?getBoolFromObject@@YA_NV?$Local@VObject@v8@@@v8@@V?$basic_string@DU?$char_traits@D@std@@V?$allocator@D@2@@std@@@Z 0000000180029478     serialport.obj
 0002:0000a4a0       $unwind$?Open@@YAXAEBV?$FunctionCallbackInfo@VValue@v8@@@Nan@@@Z 00000001800294a0     serialport.obj
 0002:0000a4c4       $stateUnwindMap$?Open@@YAXAEBV?$FunctionCallbackInfo@VValue@v8@@@Nan@@@Z 00000001800294c4     serialport.obj
 0002:0000a580       $ip2state$?Open@@YAXAEBV?$FunctionCallbackInfo@VValue@v8@@@Nan@@@Z 0000000180029580     serialport.obj
 0002:0000a600       $unwind$?fin$0@?0??dllmain_crt_process_attach@@YAHQEAUHINSTANCE__@@QEAX@Z@4HA 0000000180029600     LIBCMT:dll_dllmain.obj
 0002:0000a600       $unwind$?fin$0@?0??dllmain_crt_process_detach@@YAH_N@Z@4HA 0000000180029600     LIBCMT:dll_dllmain.obj
 0002:0000a600       $unwind$?fin$0@?0???$?RV<lambda_751a882b2c74d4b022dec766aa51a29a>@@AEAV<lambda_628dfdc04ba53c8bfc02c9951375f3f5>@@V<lambda_f6c7be5f7998530c34de24c7437d6b54>@@@?$__crt_seh_guarded_call@H@@QEAAH$$QEAV<lambda_751a882b2c74d4b022dec766aa51a29a>@@AEAV<lambda_628dfdc04ba53c8bfc02c9951375f3f5>@@$$QEAV<lambda_f6c7be5f7998530c34de24c7437d6b54>@@@Z@4HA 0000000180029600     libucrt:close.obj
 0002:0000a600       $unwind$?fin$0@?0???$?RV<lambda_f2e299630e499de9f9a165e60fcd3db5>@@AEAV<lambda_2ae9d31cdba2644fcbeaf08da7c24588>@@V<lambda_40d01ff24d0e7b3814fdbdcee8eab3c7>@@@?$__crt_seh_guarded_call@X@@QEAAX$$QEAV<lambda_f2e299630e499de9f9a165e60fcd3db5>@@AEAV<lambda_2ae9d31cdba2644fcbeaf08da7c24588>@@$$QEAV<lambda_40d01ff24d0e7b3814fdbdcee8eab3c7>@@@Z@4HA 0000000180029600     libucrt:per_thread_data.obj
 0002:0000a600       $unwind$?fin$0@?0???$?RV<lambda_aa87e3671a710a21b5dc78c0bdf72e11>@@AEAV<lambda_92619d2358a28f41a33ba319515a20b9>@@V<lambda_6992ecaafeb10aed2b74cb1fae11a551>@@@?$__crt_seh_guarded_call@X@@QEAAX$$QEAV<lambda_aa87e3671a710a21b5dc78c0bdf72e11>@@AEAV<lambda_92619d2358a28f41a33ba319515a20b9>@@$$QEAV<lambda_6992ecaafeb10aed2b74cb1fae11a551>@@@Z@4HA 0000000180029600     libucrt:per_thread_data.obj
 0002:0000a600       $unwind$fclose$fin$0       0000000180029600     libucrt:fclose.obj
 0002:0000a600       $unwind$?fin$0@?0???$?RV<lambda_0ae27a3a962d80f24befdcbee591983d>@@AEAV<lambda_8d0ee55de4b1038c4002e0adecdf1839>@@V<lambda_dc504788e8f1664fe9b84e20bfb512f2>@@@?$__crt_seh_guarded_call@X@@QEAAX$$QEAV<lambda_0ae27a3a962d80f24befdcbee591983d>@@AEAV<lambda_8d0ee55de4b1038c4002e0adecdf1839>@@$$QEAV<lambda_dc504788e8f1664fe9b84e20bfb512f2>@@@Z@4HA 0000000180029600     libucrt:per_thread_data.obj
 0002:0000a600       $unwind$__acrt_initialize_lowio$fin$0 0000000180029600     libucrt:ioinit.obj
 0002:0000a600       $unwind$?dtor$0@?0??Write@@YAXAEBV?$FunctionCallbackInfo@VValue@v8@@@Nan@@@Z@4HA 0000000180029600     serialport_win.obj
 0002:0000a600       $unwind$?dtor$0@?0??Read@@YAXAEBV?$FunctionCallbackInfo@VValue@v8@@@Nan@@@Z@4HA 0000000180029600     serialport_win.obj
 0002:0000a600       $unwind$?dtor$0@?0??Drain@@YAXAEBV?$FunctionCallbackInfo@VValue@v8@@@Nan@@@Z@4HA 0000000180029600     serialport.obj
 0002:0000a600       $unwind$_ctrlfp$filt$0     0000000180029600     libucrt:fpctrl.obj
 0002:0000a600       $unwind$?fin$0@?0???$?RV<lambda_0d412022a4b28cc8a401ea49574e8ae6>@@AEAV<lambda_a775ed57af18ba8e4d5dc780aa9068fe>@@V<lambda_975a71a6baa488a08f4e15f6b0339b9e>@@@?$__crt_seh_guarded_call@H@@QEAAH$$QEAV<lambda_0d412022a4b28cc8a401ea49574e8ae6>@@AEAV<lambda_a775ed57af18ba8e4d5dc780aa9068fe>@@$$QEAV<lambda_975a71a6baa488a08f4e15f6b0339b9e>@@@Z@4HA 0000000180029600     libucrt:output.obj
 0002:0000a600       $unwind$raise$fin$0        0000000180029600     libucrt:signal.obj
 0002:0000a600       $unwind$?fin$0@?0???$?RV<lambda_84ec643ea9557e2f7dc01bb0e9624395>@@AEAV<lambda_ca71763b3c0644891230e4f79ea54fa6>@@V<lambda_439a761618c59b0600e24586724d733b>@@@?$__crt_seh_guarded_call@H@@QEAAH$$QEAV<lambda_84ec643ea9557e2f7dc01bb0e9624395>@@AEAV<lambda_ca71763b3c0644891230e4f79ea54fa6>@@$$QEAV<lambda_439a761618c59b0600e24586724d733b>@@@Z@4HA 0000000180029600     libucrt:setvbuf.obj
 0002:0000a600       $unwind$?dtor$0@?0??Get@@YAXAEBV?$FunctionCallbackInfo@VValue@v8@@@Nan@@@Z@4HA 0000000180029600     serialport.obj
 0002:0000a600       $unwind$?fin$0@?0???$?RV<lambda_efdfa57d1f175319df784efa44bb7b81>@@AEAV<lambda_5f0a4c1567f8adc6734073e5d1e1b35c>@@V<lambda_2e8a7d3640ea6ccb4c2413664c2db6fd>@@@?$__crt_seh_guarded_call@X@@QEAAX$$QEAV<lambda_efdfa57d1f175319df784efa44bb7b81>@@AEAV<lambda_5f0a4c1567f8adc6734073e5d1e1b35c>@@$$QEAV<lambda_2e8a7d3640ea6ccb4c2413664c2db6fd>@@@Z@4HA 0000000180029600     libucrt:mbctype.obj
 0002:0000a600       $unwind$?fin$0@?0??update_thread_multibyte_data_internal@@YAPEAU__crt_multibyte_data@@QEAU__acrt_ptd@@QEAPEAU1@@Z@4HA 0000000180029600     libucrt:mbctype.obj
 0002:0000a600       $unwind$_fcloseall$fin$0   0000000180029600     libucrt:closeall.obj
 0002:0000a600       $unwind$?dtor$0@?0??Set@@YAXAEBV?$FunctionCallbackInfo@VValue@v8@@@Nan@@@Z@4HA 0000000180029600     serialport.obj
 0002:0000a600       $unwind$__acrt_lowio_ensure_fh_exists$fin$0 0000000180029600     libucrt:osfinfo.obj
 0002:0000a600       $unwind$?dtor$0@?0??Flush@@YAXAEBV?$FunctionCallbackInfo@VValue@v8@@@Nan@@@Z@4HA 0000000180029600     serialport.obj
 0002:0000a600       $unwind$?filt$0@?0??FrameUnwindToState@__FrameHandler3@@SAXPEA_KPEAU_xDISPATCHER_CONTEXT@@PEBU_s_FuncInfo@@H@Z@4HA 0000000180029600     libvcruntime:frame.obj
 0002:0000a600       $unwind$?fin$1@?0??FrameUnwindToState@__FrameHandler3@@SAXPEA_KPEAU_xDISPATCHER_CONTEXT@@PEBU_s_FuncInfo@@H@Z@4HA 0000000180029600     libvcruntime:frame.obj
 0002:0000a600       $unwind$?filt$0@?0??CxxCallCatchBlock@__FrameHandler3@@SAPEAXPEAU_EXCEPTION_RECORD@@@Z@4HA 0000000180029600     libvcruntime:frame.obj
 0002:0000a600       $unwind$?dtor$0@?0??Close@@YAXAEBV?$FunctionCallbackInfo@VValue@v8@@@Nan@@@Z@4HA 0000000180029600     serialport.obj
 0002:0000a600       $unwind$__DestructExceptionObject$filt$0 0000000180029600     libvcruntime:ehhelpers.obj
 0002:0000a600       $unwind$?fin$0@?0???$?RV<lambda_7777bce6b2f8c936911f934f8298dc43>@@AEAV<lambda_f03950bc5685219e0bcd2087efbe011e>@@V<lambda_3883c3dff614d5e0c5f61bb1ac94921c>@@@?$__crt_seh_guarded_call@H@@QEAAH$$QEAV<lambda_7777bce6b2f8c936911f934f8298dc43>@@AEAV<lambda_f03950bc5685219e0bcd2087efbe011e>@@$$QEAV<lambda_3883c3dff614d5e0c5f61bb1ac94921c>@@@Z@4HA 0000000180029600     libucrt:onexit.obj
 0002:0000a600       $unwind$?fin$0@?0???$?RV<lambda_c376a267cfb53b6959b3b692ec76b120>@@AEAV<lambda_9a32fed5bf61b6b509b2d3f6003082a1>@@V<lambda_572fbb9fa0ab338edf41edfd4b5fcc8d>@@@?$__crt_seh_guarded_call@H@@QEAAH$$QEAV<lambda_c376a267cfb53b6959b3b692ec76b120>@@AEAV<lambda_9a32fed5bf61b6b509b2d3f6003082a1>@@$$QEAV<lambda_572fbb9fa0ab338edf41edfd4b5fcc8d>@@@Z@4HA 0000000180029600     libucrt:fflush.obj
 0002:0000a600       $unwind$__acrt_update_thread_locale_data$fin$0 0000000180029600     libucrt:locale_refcounting.obj
 0002:0000a600       $unwind$?fin$0@?0???$?RV<lambda_886d6c58226a84441f68b9f2b8217b83>@@AEAV<lambda_ab61a845afdef5b7c387490eaf3616ee>@@V<lambda_f7f22ab5edc0698d5f6905b0d3f44752>@@@?$__crt_seh_guarded_call@X@@QEAAX$$QEAV<lambda_886d6c58226a84441f68b9f2b8217b83>@@AEAV<lambda_ab61a845afdef5b7c387490eaf3616ee>@@$$QEAV<lambda_f7f22ab5edc0698d5f6905b0d3f44752>@@@Z@4HA 0000000180029600     libucrt:fflush.obj
 0002:0000a600       $unwind$?fin$0@?0???$?RV<lambda_842d9ff0dc9ef11c61343bbaebe7f885>@@AEAV<lambda_c5860995281e5c4ce005b3de8f5874ee>@@V<lambda_d90129c13df834fdcbf8d2b88dafcf2d>@@@?$__crt_seh_guarded_call@X@@QEAAX$$QEAV<lambda_842d9ff0dc9ef11c61343bbaebe7f885>@@AEAV<lambda_c5860995281e5c4ce005b3de8f5874ee>@@$$QEAV<lambda_d90129c13df834fdcbf8d2b88dafcf2d>@@@Z@4HA 0000000180029600     libucrt:fflush.obj
 0002:0000a600       $unwind$?dtor$0@?0??List@@YAXAEBV?$FunctionCallbackInfo@VValue@v8@@@Nan@@@Z@4HA 0000000180029600     serialport_win.obj
 0002:0000a600       $unwind$?fin$0@?0???$?RV<lambda_d80eeec6fff315bfe5c115232f3240e3>@@AEAV<lambda_6e4b09c48022b2350581041d5f6b0c4c>@@V<lambda_2358e3775559c9db80273638284d5e45>@@@?$__crt_seh_guarded_call@X@@QEAAX$$QEAV<lambda_d80eeec6fff315bfe5c115232f3240e3>@@AEAV<lambda_6e4b09c48022b2350581041d5f6b0c4c>@@$$QEAV<lambda_2358e3775559c9db80273638284d5e45>@@@Z@4HA 0000000180029600     libucrt:exit.obj
 0002:0000a600       $unwind$?dtor$1@?0??Open@@YAXAEBV?$FunctionCallbackInfo@VValue@v8@@@Nan@@@Z@4HA 0000000180029600     serialport.obj
 0002:0000a600       $unwind$?filt$0@?0???R<lambda_6e4b09c48022b2350581041d5f6b0c4c>@@QEBA@XZ@4HA 0000000180029600     libucrt:exit.obj
 0002:0000a600       $unwind$?dtor$0@?0??Update@@YAXAEBV?$FunctionCallbackInfo@VValue@v8@@@Nan@@@Z@4HA 0000000180029600     serialport.obj
 0002:0000a600       $unwind$?fin$0@?0???$?RV<lambda_2d41944a1d46af3157314b8a01080d33>@@AEAV<lambda_8f455de75cd7d7f24b4096f044d8b9e6>@@V<lambda_aa500f224e6afead328df44964fe2772>@@@?$__crt_seh_guarded_call@X@@QEAAX$$QEAV<lambda_2d41944a1d46af3157314b8a01080d33>@@AEAV<lambda_8f455de75cd7d7f24b4096f044d8b9e6>@@$$QEAV<lambda_aa500f224e6afead328df44964fe2772>@@@Z@4HA 0000000180029600     libucrt:per_thread_data.obj
 0002:0000a600       $unwind$_IsNonwritableInCurrentImage$filt$0 0000000180029600     LIBCMT:pesect.obj
 0002:0000a600       $unwind$?fin$0@?0???$?RV<lambda_410d79af7f07d98d83a3f525b3859a53>@@AEAV<lambda_3e16ef9562a7dcce91392c22ab16ea36>@@V<lambda_38119f0e861e05405d8a144b9b982f0a>@@@?$__crt_seh_guarded_call@X@@QEAAX$$QEAV<lambda_410d79af7f07d98d83a3f525b3859a53>@@AEAV<lambda_3e16ef9562a7dcce91392c22ab16ea36>@@$$QEAV<lambda_38119f0e861e05405d8a144b9b982f0a>@@@Z@4HA 0000000180029600     libucrt:wsetlocale.obj
 0002:0000a600       $unwind$_write$fin$0       0000000180029600     libucrt:write.obj
 0002:0000a600       $unwind$?fin$0@?0???$?RV<lambda_a37b2b86f63e897a80ea819b0eb08c01>@@AEAV<lambda_38ce7e780aa69e748d6df282ebc68efe>@@V<lambda_99fb1378e971ab6e7edea83e3a7a83a2>@@@?$__crt_seh_guarded_call@H@@QEAAH$$QEAV<lambda_a37b2b86f63e897a80ea819b0eb08c01>@@AEAV<lambda_38ce7e780aa69e748d6df282ebc68efe>@@$$QEAV<lambda_99fb1378e971ab6e7edea83e3a7a83a2>@@@Z@4HA 0000000180029600     libucrt:commit.obj
 0002:0000a600       $unwind$?fin$0@?0???$?RV<lambda_450d765d439847d4c735a33c368b5fc0>@@AEAV<lambda_44731a7d0e6d81c3e6aa82d741081786>@@V<lambda_601a2a7da3b7a96e9554ac7215c4b07c>@@@?$__crt_seh_guarded_call@P6AXH@Z@@QEAAP6AXH@Z$$QEAV<lambda_450d765d439847d4c735a33c368b5fc0>@@AEAV<lambda_44731a7d0e6d81c3e6aa82d741081786>@@$$QEAV<lambda_601a2a7da3b7a96e9554ac7215c4b07c>@@@Z@4HA 0000000180029600     libucrt:signal.obj
 0002:0000a600       $unwind$?fin$0@?0???$common_lseek@_J@@YA_JH_JH@Z@4HA 0000000180029600     libucrt:lseek.obj
 0002:0000a600       $unwind$_query_new_handler$fin$0 0000000180029600     libucrt:new_handler.obj
 0002:0000a600       $unwind$?fin$0@?0???$?RV<lambda_8369fcb7c4df1e85de37618bd2b85f07>@@AEAV<lambda_a10e4b102d4a2c3aac6f4f48bbdf488f>@@V<lambda_5b7707bd6d7a0c4713179f36c7fd995d>@@@?$__crt_seh_guarded_call@H@@QEAAH$$QEAV<lambda_8369fcb7c4df1e85de37618bd2b85f07>@@AEAV<lambda_a10e4b102d4a2c3aac6f4f48bbdf488f>@@$$QEAV<lambda_5b7707bd6d7a0c4713179f36c7fd995d>@@@Z@4HA 0000000180029600     libucrt:onexit.obj
 0002:0000a608       $unwind$?EIO_AfterOpen@@YAXPEAUuv_work_s@@@Z 0000000180029608     serialport.obj
 0002:0000a620       $stateUnwindMap$?EIO_AfterOpen@@YAXPEAUuv_work_s@@@Z 0000000180029620     serialport.obj
 0002:0000a660       $ip2state$?EIO_AfterOpen@@YAXPEAUuv_work_s@@@Z 0000000180029660     serialport.obj
 0002:0000a698       $unwind$?Update@@YAXAEBV?$FunctionCallbackInfo@VValue@v8@@@Nan@@@Z 0000000180029698     serialport.obj
 0002:0000a6b4       $stateUnwindMap$?Update@@YAXAEBV?$FunctionCallbackInfo@VValue@v8@@@Nan@@@Z 00000001800296b4     serialport.obj
 0002:0000a6f0       $ip2state$?Update@@YAXAEBV?$FunctionCallbackInfo@VValue@v8@@@Nan@@@Z 00000001800296f0     serialport.obj
 0002:0000a728       $unwind$?EIO_AfterUpdate@@YAXPEAUuv_work_s@@@Z 0000000180029728     serialport.obj
 0002:0000a73c       $stateUnwindMap$?EIO_AfterUpdate@@YAXPEAUuv_work_s@@@Z 000000018002973c     serialport.obj
 0002:0000a770       $ip2state$?EIO_AfterUpdate@@YAXPEAUuv_work_s@@@Z 0000000180029770     serialport.obj
 0002:0000a798       $unwind$?Close@@YAXAEBV?$FunctionCallbackInfo@VValue@v8@@@Nan@@@Z 0000000180029798     serialport.obj
 0002:0000a7b0       $stateUnwindMap$?Close@@YAXAEBV?$FunctionCallbackInfo@VValue@v8@@@Nan@@@Z 00000001800297b0     serialport.obj
 0002:0000a7e0       $ip2state$?Close@@YAXAEBV?$FunctionCallbackInfo@VValue@v8@@@Nan@@@Z 00000001800297e0     serialport.obj
 0002:0000a808       $unwind$?EIO_AfterFlush@@YAXPEAUuv_work_s@@@Z 0000000180029808     serialport.obj
 0002:0000a808       $unwind$?EIO_AfterDrain@@YAXPEAUuv_work_s@@@Z 0000000180029808     serialport.obj
 0002:0000a808       $unwind$?EIO_AfterClose@@YAXPEAUuv_work_s@@@Z 0000000180029808     serialport.obj
 0002:0000a81c       $stateUnwindMap$?EIO_AfterSet@@YAXPEAUuv_work_s@@@Z 000000018002981c     serialport.obj
 0002:0000a81c       $stateUnwindMap$?EIO_AfterDrain@@YAXPEAUuv_work_s@@@Z 000000018002981c     serialport.obj
 0002:0000a81c       $stateUnwindMap$?EIO_AfterClose@@YAXPEAUuv_work_s@@@Z 000000018002981c     serialport.obj
 0002:0000a81c       $stateUnwindMap$?EIO_AfterFlush@@YAXPEAUuv_work_s@@@Z 000000018002981c     serialport.obj
 0002:0000a850       $ip2state$?EIO_AfterFlush@@YAXPEAUuv_work_s@@@Z 0000000180029850     serialport.obj
 0002:0000a850       $ip2state$?EIO_AfterDrain@@YAXPEAUuv_work_s@@@Z 0000000180029850     serialport.obj
 0002:0000a850       $ip2state$?EIO_AfterClose@@YAXPEAUuv_work_s@@@Z 0000000180029850     serialport.obj
 0002:0000a878       $unwind$?Flush@@YAXAEBV?$FunctionCallbackInfo@VValue@v8@@@Nan@@@Z 0000000180029878     serialport.obj
 0002:0000a890       $stateUnwindMap$?Drain@@YAXAEBV?$FunctionCallbackInfo@VValue@v8@@@Nan@@@Z 0000000180029890     serialport.obj
 0002:0000a890       $stateUnwindMap$?Flush@@YAXAEBV?$FunctionCallbackInfo@VValue@v8@@@Nan@@@Z 0000000180029890     serialport.obj
 0002:0000a8b8       $ip2state$?Flush@@YAXAEBV?$FunctionCallbackInfo@VValue@v8@@@Nan@@@Z 00000001800298b8     serialport.obj
 0002:0000a8e0       $unwind$?Set@@YAXAEBV?$FunctionCallbackInfo@VValue@v8@@@Nan@@@Z 00000001800298e0     serialport.obj
 0002:0000a8fc       $stateUnwindMap$?Set@@YAXAEBV?$FunctionCallbackInfo@VValue@v8@@@Nan@@@Z 00000001800298fc     serialport.obj
 0002:0000a950       $ip2state$?Set@@YAXAEBV?$FunctionCallbackInfo@VValue@v8@@@Nan@@@Z 0000000180029950     serialport.obj
 0002:0000a978       $unwind$?EIO_AfterSet@@YAXPEAUuv_work_s@@@Z 0000000180029978     serialport.obj
 0002:0000a990       $ip2state$?EIO_AfterSet@@YAXPEAUuv_work_s@@@Z 0000000180029990     serialport.obj
 0002:0000a9b8       $unwind$?Get@@YAXAEBV?$FunctionCallbackInfo@VValue@v8@@@Nan@@@Z 00000001800299b8     serialport.obj
 0002:0000a9d0       $stateUnwindMap$?Get@@YAXAEBV?$FunctionCallbackInfo@VValue@v8@@@Nan@@@Z 00000001800299d0     serialport.obj
 0002:0000a9f8       $ip2state$?Get@@YAXAEBV?$FunctionCallbackInfo@VValue@v8@@@Nan@@@Z 00000001800299f8     serialport.obj
 0002:0000aa20       $unwind$?EIO_AfterGet@@YAXPEAUuv_work_s@@@Z 0000000180029a20     serialport.obj
 0002:0000aa40       $stateUnwindMap$?EIO_AfterGet@@YAXPEAUuv_work_s@@@Z 0000000180029a40     serialport.obj
 0002:0000aa70       $ip2state$?EIO_AfterGet@@YAXPEAUuv_work_s@@@Z 0000000180029a70     serialport.obj
 0002:0000aa98       $unwind$?Drain@@YAXAEBV?$FunctionCallbackInfo@VValue@v8@@@Nan@@@Z 0000000180029a98     serialport.obj
 0002:0000aab0       $ip2state$?Drain@@YAXAEBV?$FunctionCallbackInfo@VValue@v8@@@Nan@@@Z 0000000180029ab0     serialport.obj
 0002:0000aad8       $unwind$?ToParityEnum@@YA?AW4SerialPortParity@@AEBV?$Local@VString@v8@@@v8@@@Z 0000000180029ad8     serialport.obj
 0002:0000aaf4       $stateUnwindMap$?ToParityEnum@@YA?AW4SerialPortParity@@AEBV?$Local@VString@v8@@@v8@@@Z 0000000180029af4     serialport.obj
 0002:0000ab30       $ip2state$?ToParityEnum@@YA?AW4SerialPortParity@@AEBV?$Local@VString@v8@@@v8@@@Z 0000000180029b30     serialport.obj
 0002:0000ab68       $unwind$init               0000000180029b68     serialport.obj
 0002:0000ab78       $stateUnwindMap$init       0000000180029b78     serialport.obj
 0002:0000ab90       $ip2state$init             0000000180029b90     serialport.obj
 0002:0000aba8       $unwind$??1?$Persistent@VObject@v8@@V?$NonCopyablePersistentTraits@VObject@v8@@@2@@v8@@QEAA@XZ 0000000180029ba8     serialport_win.obj
 0002:0000aba8       $unwind$??1?$Persistent@VFunction@v8@@V?$NonCopyablePersistentTraits@VFunction@v8@@@2@@v8@@QEAA@XZ 0000000180029ba8     serialport.obj
 0002:0000abb8       $ip2state$??1?$Persistent@VObject@v8@@V?$NonCopyablePersistentTraits@VObject@v8@@@2@@v8@@QEAA@XZ 0000000180029bb8     serialport_win.obj
 0002:0000abb8       $ip2state$??1?$Persistent@VFunction@v8@@V?$NonCopyablePersistentTraits@VFunction@v8@@@2@@v8@@QEAA@XZ 0000000180029bb8     serialport.obj
 0002:0000abc0       $unwind$??1?$basic_string@DU?$char_traits@D@std@@V?$allocator@D@2@@std@@QEAA@XZ 0000000180029bc0     serialport.obj
 0002:0000abd0       $ip2state$??1?$basic_string@DU?$char_traits@D@std@@V?$allocator@D@2@@std@@QEAA@XZ 0000000180029bd0     serialport.obj
 0002:0000abd8       $unwind$??0?$basic_string@DU?$char_traits@D@std@@V?$allocator@D@2@@std@@QEAA@AEBV01@@Z 0000000180029bd8     serialport.obj
 0002:0000abec       $unwind$?assign@?$basic_string@DU?$char_traits@D@std@@V?$allocator@D@2@@std@@QEAAAEAV12@QEBD@Z 0000000180029bec     serialport.obj
 0002:0000ac04       $unwind$??$New@VString@v8@@V?$basic_string@DU?$char_traits@D@std@@V?$allocator@D@2@@std@@@Nan@@YA?AV?$MaybeLocal@VString@v8@@@v8@@V?$basic_string@DU?$char_traits@D@std@@V?$allocator@D@2@@std@@@Z 0000000180029c04     serialport.obj
 0002:0000ac20       $stateUnwindMap$??$New@VString@v8@@V?$basic_string@DU?$char_traits@D@std@@V?$allocator@D@2@@std@@@Nan@@YA?AV?$MaybeLocal@VString@v8@@@v8@@V?$basic_string@DU?$char_traits@D@std@@V?$allocator@D@2@@std@@@Z 0000000180029c20     serialport.obj
 0002:0000ac28       $ip2state$??$New@VString@v8@@V?$basic_string@DU?$char_traits@D@std@@V?$allocator@D@2@@std@@@Nan@@YA?AV?$MaybeLocal@VString@v8@@@v8@@V?$basic_string@DU?$char_traits@D@std@@V?$allocator@D@2@@std@@@Z 0000000180029c28     serialport.obj
 0002:0000ac40       $unwind$??$New@VFunctionTemplate@v8@@@Nan@@YA?AV?$Local@VFunctionTemplate@v8@@@v8@@P6AXAEBV?$FunctionCallbackInfo@VValue@v8@@@0@@ZV?$Local@VValue@v8@@@2@@Z 0000000180029c40     serialport.obj
 0002:0000ac60       $stateUnwindMap$??$New@VFunctionTemplate@v8@@@Nan@@YA?AV?$Local@VFunctionTemplate@v8@@@v8@@P6AXAEBV?$FunctionCallbackInfo@VValue@v8@@@0@@ZV?$Local@VValue@v8@@@2@@Z 0000000180029c60     serialport.obj
 0002:0000ac80       $ip2state$??$New@VFunctionTemplate@v8@@@Nan@@YA?AV?$Local@VFunctionTemplate@v8@@@v8@@P6AXAEBV?$FunctionCallbackInfo@VValue@v8@@@0@@ZV?$Local@VValue@v8@@@2@@Z 0000000180029c80     serialport.obj
 0002:0000aca8       $unwind$??$SetMethod@VObject@v8@@VLocal@2@@Nan@@YAXV?$Local@VObject@v8@@@v8@@PEBDP6AXAEBV?$FunctionCallbackInfo@VValue@v8@@@0@@Z@Z 0000000180029ca8     serialport.obj
 0002:0000acc0       $stateUnwindMap$??$SetMethod@VObject@v8@@VLocal@2@@Nan@@YAXV?$Local@VObject@v8@@@v8@@PEBDP6AXAEBV?$FunctionCallbackInfo@VValue@v8@@@0@@Z@Z 0000000180029cc0     serialport.obj
 0002:0000acd8       $ip2state$??$SetMethod@VObject@v8@@VLocal@2@@Nan@@YAXV?$Local@VObject@v8@@@v8@@PEBDP6AXAEBV?$FunctionCallbackInfo@VValue@v8@@@0@@Z@Z 0000000180029cd8     serialport.obj
 0002:0000acf0       $unwind$__vcrt_initialize_ptd 0000000180029cf0     libvcruntime:per_thread_data.obj
 0002:0000acf0       $unwind$_get_osfhandle     0000000180029cf0     libucrt:osfinfo.obj
 0002:0000acf0       $unwind$__vcrt_uninitialize_ptd 0000000180029cf0     libvcruntime:per_thread_data.obj
 0002:0000acf0       $unwind$__vcrt_thread_attach 0000000180029cf0     libvcruntime:initialization.obj
 0002:0000acf0       $unwind$__acrt_initialize_command_line 0000000180029cf0     libucrt:argv_data.obj
 0002:0000acf0       $unwind$__acrt_initialize_multibyte 0000000180029cf0     libucrt:mbctype.obj
 0002:0000acf0       $unwind$__vcrt_uninitialize_critical 0000000180029cf0     libvcruntime:initialization.obj
 0002:0000acf0       $unwind$__vcrt_getptd      0000000180029cf0     libvcruntime:per_thread_data.obj
 0002:0000acf0       $unwind$__acrt_update_thread_multibyte_data 0000000180029cf0     libucrt:mbctype.obj
 0002:0000acf0       $unwind$__vcrt_freefls     0000000180029cf0     libvcruntime:per_thread_data.obj
 0002:0000acf0       $unwind$?GetCurrentState@__FrameHandler3@@SAHPEA_KPEAU_xDISPATCHER_CONTEXT@@PEBU_s_FuncInfo@@@Z 0000000180029cf0     libvcruntime:ehstate.obj
 0002:0000acf0       $unwind$_isatty            0000000180029cf0     libucrt:isatty.obj
 0002:0000acf0       $unwind$__vcrt_uninitialize 0000000180029cf0     libvcruntime:initialization.obj
 0002:0000acf0       $unwind$__report_rangecheckfailure 0000000180029cf0     LIBCMT:gs_report.obj
 0002:0000acf0       $unwind$__vcrt_initialize  0000000180029cf0     libvcruntime:initialization.obj
 0002:0000acf0       $unwind$__doserrno         0000000180029cf0     libucrt:errno.obj
 0002:0000acf0       $unwind$_set_error_mode    0000000180029cf0     libucrt:set_error_mode.obj
 0002:0000acf0       $unwind$__FrameUnwindFilter 0000000180029cf0     libvcruntime:ehhelpers.obj
 0002:0000acf0       $unwind$__GSHandlerCheck   0000000180029cf0     LIBCMT:_gshandler_.obj
 0002:0000acf0       $unwind$__scrt_acquire_startup_lock 0000000180029cf0     LIBCMT:utility.obj
 0002:0000acf0       $unwind$__scrt_dllmain_before_initialize_c 0000000180029cf0     LIBCMT:utility.obj
 0002:0000acf0       $unwind$_GetThrowImageBase 0000000180029cf0     libvcruntime:risctrnsctrl.obj
 0002:0000acf0       $unwind$_invoke_watson     0000000180029cf0     libucrt:invalid_parameter.obj
 0002:0000acf0       $unwind$?initialize_multibyte@@YAHXZ 0000000180029cf0     libucrt:multibyte_initializer.obj
 0002:0000acf0       $unwind$_GetImageBase      0000000180029cf0     libvcruntime:risctrnsctrl.obj
 0002:0000acf0       $unwind$?DloadReleaseSectionWriteAccess@@YAXXZ 0000000180029cf0     DelayImp:delayhlp.obj
 0002:0000acf0       $unwind$_msize_base        0000000180029cf0     libucrt:msize.obj
 0002:0000acf0       $unwind$??$uninitialize_environment_internal@_W@@YAXAEAPEAPEA_W@Z 0000000180029cf0     libucrt:environment_initialization.obj
 0002:0000acf0       $unwind$??$uninitialize_environment_internal@D@@YAXAEAPEAPEAD@Z 0000000180029cf0     libucrt:environment_initialization.obj
 0002:0000acf0       $unwind$?state_case_size@?$output_processor@_WV?$stream_output_adapter@_W@__crt_stdio_output@@V?$standard_base@_WV?$stream_output_adapter@_W@__crt_stdio_output@@@2@@__crt_stdio_output@@AEAA_NXZ 0000000180029cf0     libucrt:output.obj
 0002:0000acf0       $unwind$__dcrt_uninitialize_environments_nolock 0000000180029cf0     libucrt:environment_initialization.obj
 0002:0000acf0       $unwind$?__c32rtomb_utf8@__crt_mbstring@@YA_KPEAD_UPEAU_Mbstatet@@@Z 0000000180029cf0     libucrt:c32rtomb.obj
 0002:0000acf0       $unwind$__acrt_uninitialize 0000000180029cf0     libucrt:initialization.obj
 0002:0000acf0       $unwind$?state_case_size@?$output_processor@_WV?$string_output_adapter@_W@__crt_stdio_output@@V?$standard_base@_WV?$string_output_adapter@_W@__crt_stdio_output@@@2@@__crt_stdio_output@@AEAA_NXZ 0000000180029cf0     libucrt:output.obj
 0002:0000acf0       $unwind$__scrt_initialize_default_local_stdio_options 0000000180029cf0     LIBCMT:default_local_stdio_options.obj
 0002:0000acf0       $unwind$__acrt_DownlevelLocaleNameToLCID 0000000180029cf0     libucrt:lcidtoname_downlevel.obj
 0002:0000acf0       $unwind$?dllmain_crt_dispatch@@YAHQEAUHINSTANCE__@@KQEAX@Z 0000000180029cf0     LIBCMT:dll_dllmain.obj
 0002:0000acf0       $unwind$__scrt_dllmain_after_initialize_c 0000000180029cf0     LIBCMT:utility.obj
 0002:0000acf0       $unwind$__acrt_uninitialize_critical 0000000180029cf0     libucrt:initialization.obj
 0002:0000acf0       $unwind$_statfp            0000000180029cf0     libucrt:fpctrl.obj
 0002:0000acf0       $unwind$__acrt_thread_attach 0000000180029cf0     libucrt:initialization.obj
 0002:0000acf0       $unwind$?state_case_normal_tchar@?$output_processor@DV?$string_output_adapter@D@__crt_stdio_output@@V?$format_validation_base@DV?$string_output_adapter@D@__crt_stdio_output@@@2@@__crt_stdio_output@@AEAA_ND@Z 0000000180029cf0     libucrt:output.obj
 0002:0000acf0       $unwind$__acrt_thread_detach 0000000180029cf0     libucrt:initialization.obj
 0002:0000acf0       $unwind$_set_errno_from_matherr 0000000180029cf0     libucrt:fpexcept.obj
 0002:0000acf0       $unwind$__acrt_initialize_heap 0000000180029cf0     libucrt:heap_handle.obj
 0002:0000acf0       $unwind$__acrt_initialize_ptd 0000000180029cf0     libucrt:per_thread_data.obj
 0002:0000acf0       $unwind$__pctype_func      0000000180029cf0     libucrt:ctype.obj
 0002:0000acf0       $unwind$__acrt_uninitialize_ptd 0000000180029cf0     libucrt:per_thread_data.obj
 0002:0000acf0       $unwind$initialize_c       0000000180029cf0     libucrt:initialization.obj
 0002:0000acf0       $unwind$?state_case_size@?$output_processor@DV?$string_output_adapter@D@__crt_stdio_output@@V?$format_validation_base@DV?$string_output_adapter@D@__crt_stdio_output@@@2@@__crt_stdio_output@@AEAA_NXZ 0000000180029cf0     libucrt:output.obj
 0002:0000acf0       $unwind$__dcrt_terminate_console_output 0000000180029cf0     libucrt:initcon.obj
 0002:0000acf0       $unwind$atexit             0000000180029cf0     LIBCMT:utility.obj
 0002:0000acf0       $unwind$uninitialize_environment 0000000180029cf0     libucrt:initialization.obj
 0002:0000acf0       $unwind$_errno             0000000180029cf0     libucrt:errno.obj
 0002:0000acf0       $unwind$tolower            0000000180029cf0     libucrt:tolower_toupper.obj
 0002:0000acf0       $unwind$abort              0000000180029cf0     libucrt:abort.obj
 0002:0000acf0       $unwind$?_Xlen@?$basic_string@DU?$char_traits@D@std@@V?$allocator@D@2@@std@@SAXXZ 0000000180029cf0     serialport.obj
 0002:0000acf0       $unwind$_strnicmp          0000000180029cf0     libucrt:strnicmp.obj
 0002:0000acf0       $unwind$_stricmp           0000000180029cf0     libucrt:stricmp.obj
 0002:0000acf0       $unwind$__scrt_dllmain_crt_thread_detach 0000000180029cf0     LIBCMT:utility.obj
 0002:0000acf0       $unwind$__scrt_dllmain_crt_thread_attach 0000000180029cf0     LIBCMT:utility.obj
 0002:0000acf0       $unwind$__scrt_dllmain_uninitialize_c 0000000180029cf0     LIBCMT:utility.obj
 0002:0000acf0       $unwind$__acrt_release_locale_ref 0000000180029cf0     libucrt:locale_refcounting.obj
 0002:0000acf0       $unwind$uninitialize_allocated_io_buffers 0000000180029cf0     libucrt:initialization.obj
 0002:0000acf0       $unwind$__scrt_dllmain_uninitialize_critical 0000000180029cf0     LIBCMT:utility.obj
 0002:0000acf0       $unwind$__vcrt_thread_detach 0000000180029cf0     libvcruntime:initialization.obj
 0002:0000acf0       $unwind$_fileno            0000000180029cf0     libucrt:fileno.obj
 0002:0000acf8       $unwind$??$SetMethodAux@V?$Local@VObject@v8@@@v8@@@imp@Nan@@YAXV?$Local@VObject@v8@@@v8@@V?$Local@VString@v8@@@3@V?$Local@VFunctionTemplate@v8@@@3@ZZ 0000000180029cf8     serialport.obj
 0002:0000ad10       $stateUnwindMap$??$SetMethodAux@V?$Local@VObject@v8@@@v8@@@imp@Nan@@YAXV?$Local@VObject@v8@@@v8@@V?$Local@VString@v8@@@3@V?$Local@VFunctionTemplate@v8@@@3@ZZ 0000000180029d10     serialport.obj
 0002:0000ad20       $ip2state$??$SetMethodAux@V?$Local@VObject@v8@@@v8@@@imp@Nan@@YAXV?$Local@VObject@v8@@@v8@@V?$Local@VString@v8@@@3@V?$Local@VFunctionTemplate@v8@@@3@ZZ 0000000180029d20     serialport.obj
 0002:0000ad38       $unwind$_snprintf_s        0000000180029d38     serialport_win.obj
 0002:0000ad48       $unwind$??__Eg_closingHandles@@YAXXZ 0000000180029d48     serialport_win.obj
 0002:0000ad58       $stateUnwindMap$??__Eg_closingHandles@@YAXXZ 0000000180029d58     serialport_win.obj
 0002:0000ad68       $ip2state$??__Eg_closingHandles@@YAXXZ 0000000180029d68     serialport_win.obj
 0002:0000ad70       $unwind$??__Fg_closingHandles@@YAXXZ 0000000180029d70     serialport_win.obj
 0002:0000ad80       $stateUnwindMap$??__Fg_closingHandles@@YAXXZ 0000000180029d80     serialport_win.obj
 0002:0000ad90       $ip2state$??__Fg_closingHandles@@YAXXZ 0000000180029d90     serialport_win.obj
 0002:0000ada8       $unwind$strtol             0000000180029da8     libucrt:strtox.obj
 0002:0000ada8       $unwind$wctomb_s           0000000180029da8     libucrt:wctomb.obj
 0002:0000ada8       $unwind$?ErrorCodeToString@@YAXPEBDHPEAD@Z 0000000180029da8     serialport_win.obj
 0002:0000ada8       $unwind$_invalid_parameter_noinfo 0000000180029da8     libucrt:invalid_parameter.obj
 0002:0000ada8       $unwind$_itow_s            0000000180029da8     libucrt:xtoa.obj
 0002:0000ada8       $unwind$wcstol             0000000180029da8     libucrt:strtox.obj
 0002:0000ada8       $unwind$_invalid_parameter_noinfo_noreturn 0000000180029da8     libucrt:invalid_parameter.obj
 0002:0000ada8       $unwind$_log10_special     0000000180029da8     libucrt:log_special.obj
 0002:0000ada8       $unwind$fflush             0000000180029da8     libucrt:fflush.obj
 0002:0000adb0       $unwind$?EIO_Open@@YAXPEAUuv_work_s@@@Z 0000000180029db0     serialport_win.obj
 0002:0000add0       $unwind$?EIO_Update@@YAXPEAUuv_work_s@@@Z 0000000180029dd0     serialport_win.obj
 0002:0000ade4       $unwind$wcscpy_s           0000000180029de4     libucrt:wcscpy_s.obj
 0002:0000ade4       $unwind$_fflush_nolock     0000000180029de4     libucrt:fflush.obj
 0002:0000ade4       $unwind$?type_case_s@?$output_processor@DV?$string_output_adapter@D@__crt_stdio_output@@V?$format_validation_base@DV?$string_output_adapter@D@__crt_stdio_output@@@2@@__crt_stdio_output@@AEAA_NXZ 0000000180029de4     libucrt:output.obj
 0002:0000ade4       $unwind$?DloadAcquireSectionWriteAccess@@YAXXZ 0000000180029de4     DelayImp:delayhlp.obj
 0002:0000ade4       $unwind$__acrt_stdio_free_buffer_nolock 0000000180029de4     libucrt:_freebuf.obj
 0002:0000ade4       $unwind$??2@YAPEAX_K@Z     0000000180029de4     LIBCMT:new_scalar.obj
 0002:0000ade4       $unwind$?state_case_normal@?$output_processor@DV?$string_output_adapter@D@__crt_stdio_output@@V?$format_validation_base@DV?$string_output_adapter@D@__crt_stdio_output@@@2@@__crt_stdio_output@@AEAA_NXZ 0000000180029de4     libucrt:output.obj
 0002:0000ade4       $unwind$?EIO_Drain@@YAXPEAUuv_work_s@@@Z 0000000180029de4     serialport_win.obj
 0002:0000ade4       $unwind$__scrt_uninitialize_crt 0000000180029de4     LIBCMT:utility.obj
 0002:0000ade4       $unwind$?__c16rtomb_utf8@__crt_mbstring@@YA_KPEAD_SPEAU_Mbstatet@@@Z 0000000180029de4     libucrt:c16rtomb.obj
 0002:0000ade4       $unwind$_set_statfp        0000000180029de4     libucrt:fpctrl.obj
 0002:0000ade4       $unwind$_onexit            0000000180029de4     LIBCMT:utility.obj
 0002:0000ade4       $unwind$__acrt_uninitialize_stdio 0000000180029de4     libucrt:_file.obj
 0002:0000ade4       $unwind$??_Gtype_info@@UEAAPEAXI@Z 0000000180029de4     LIBCMT:std_type_info_static.obj
 0002:0000ade4       $unwind$wcscat_s           0000000180029de4     libucrt:wcscat_s.obj
 0002:0000ade4       $unwind$_clearfp           0000000180029de4     libucrt:ieee.obj
 0002:0000ade4       $unwind$__acrt_getptd_head 0000000180029de4     libucrt:per_thread_data.obj
 0002:0000ade4       $unwind$??0bad_alloc@std@@QEAA@AEBV01@@Z 0000000180029de4     libcpmt:xthrow.obj
 0002:0000ade4       $unwind$??0bad_array_new_length@std@@QEAA@AEBV01@@Z 0000000180029de4     LIBCMT:throw_bad_alloc.obj
 0002:0000ade4       $unwind$__acrt_freeptd     0000000180029de4     libucrt:per_thread_data.obj
 0002:0000ade4       $unwind$_malloc_base       0000000180029de4     libucrt:malloc_base.obj
 0002:0000ade4       $unwind$?internal_isupper_l@@YA_NHQEAU__crt_locale_pointers@@@Z 0000000180029de4     libucrt:tolower_toupper.obj
 0002:0000ade4       $unwind$?try_cor_exit_process@@YAXI@Z 0000000180029de4     libucrt:exit.obj
 0002:0000ade4       $unwind$?exit_or_terminate_process@@YAXI@Z 0000000180029de4     libucrt:exit.obj
 0002:0000ade4       $unwind$__scrt_initialize_crt 0000000180029de4     LIBCMT:utility.obj
 0002:0000ade4       $unwind$_clrfp             0000000180029de4     libucrt:fpctrl.obj
 0002:0000ade4       $unwind$__acrt_allocate_buffer_for_argv 0000000180029de4     libucrt:argv_parsing.obj
 0002:0000ade4       $unwind$__acrt_update_locale_info 0000000180029de4     libucrt:locale_update.obj
 0002:0000ade4       $unwind$__acrt_update_multibyte_info 0000000180029de4     libucrt:locale_update.obj
 0002:0000ade4       $unwind$feholdexcept       0000000180029de4     libucrt:feholdexcept.obj
 0002:0000ade4       $unwind$??0exception@std@@QEAA@AEBV01@@Z 0000000180029de4     libcpmt:xthrow.obj
 0002:0000ade4       $unwind$fesetenv           0000000180029de4     libucrt:fesetenv.obj
 0002:0000ade4       $unwind$uninitialize_allocated_memory 0000000180029de4     libucrt:initialization.obj
 0002:0000ade4       $unwind$fegetenv           0000000180029de4     libucrt:fegetenv.obj
 0002:0000ade4       $unwind$_IsExceptionObjectToBeDestroyed 0000000180029de4     libvcruntime:ehhelpers.obj
 0002:0000ade4       $unwind$__raise_securityfailure 0000000180029de4     LIBCMT:gs_report.obj
 0002:0000ade4       $unwind$__vcrt_FlsGetValue 0000000180029de4     libvcruntime:winapi_downlevel.obj
 0002:0000ade4       $unwind$_callnewh          0000000180029de4     libucrt:new_handler.obj
 0002:0000ade4       $unwind$__vcrt_FlsFree     0000000180029de4     libvcruntime:winapi_downlevel.obj
 0002:0000ade4       $unwind$__vcrt_FlsAlloc    0000000180029de4     libvcruntime:winapi_downlevel.obj
 0002:0000ade4       $unwind$__vcrt_uninitialize_locks 0000000180029de4     libvcruntime:locks.obj
 0002:0000ade4       $unwind$__acrt_initialize_locks 0000000180029de4     libucrt:locks.obj
 0002:0000ade4       $unwind$__vcrt_initialize_locks 0000000180029de4     libvcruntime:locks.obj
 0002:0000ade4       $unwind$__acrt_uninitialize_locks 0000000180029de4     libucrt:locks.obj
 0002:0000ade4       $unwind$__acrt_get_process_end_policy 0000000180029de4     libucrt:win_policies.obj
 0002:0000ade4       $unwind$__acrt_get_developer_information_policy 0000000180029de4     libucrt:win_policies.obj
 0002:0000ade4       $unwind$?ExecutionInCatch@__FrameHandler3@@SA_NPEAU_xDISPATCHER_CONTEXT@@PEBU_s_FuncInfo@@@Z 0000000180029de4     libvcruntime:risctrnsctrl.obj
 0002:0000ade4       $unwind$__acrt_get_windowing_model_policy 0000000180029de4     libucrt:win_policies.obj
 0002:0000ade4       $unwind$_calloc_base       0000000180029de4     libucrt:calloc_base.obj
 0002:0000ade4       $unwind$__acrt_get_parent_window 0000000180029de4     libucrt:winapi_thunks.obj
 0002:0000ade4       $unwind$?ExFilterRethrow@@YAHPEAU_EXCEPTION_POINTERS@@PEAUEHExceptionRecord@@PEAH@Z 0000000180029de4     libvcruntime:frame.obj
 0002:0000ade4       $unwind$??0bad_exception@std@@QEAA@AEBV01@@Z 0000000180029de4     libvcruntime:frame.obj
 0002:0000ade4       $unwind$?WriteIOCompletion@@YAXKKPEAU_OVERLAPPED@@@Z 0000000180029de4     serialport_win.obj
 0002:0000ade4       $unwind$__acrt_AppPolicyGetWindowingModelInternal 0000000180029de4     libucrt:winapi_thunks.obj
 0002:0000ade4       $unwind$?GetUnwindTryBlock@__FrameHandler3@@SAHPEA_KPEAU_xDISPATCHER_CONTEXT@@PEBU_s_FuncInfo@@@Z 0000000180029de4     libvcruntime:ehstate.obj
 0002:0000ade4       $unwind$__acrt_AppPolicyGetShowDeveloperDiagnosticInternal 0000000180029de4     libucrt:winapi_thunks.obj
 0002:0000ade4       $unwind$?EIO_Get@@YAXPEAUuv_work_s@@@Z 0000000180029de4     serialport_win.obj
 0002:0000ade4       $unwind$__acrt_AppPolicyGetProcessTerminationMethodInternal 0000000180029de4     libucrt:winapi_thunks.obj
 0002:0000ade4       $unwind$?StateFromIp@__FrameHandler3@@SAHPEBU_s_FuncInfo@@PEAU_xDISPATCHER_CONTEXT@@_K@Z 0000000180029de4     libvcruntime:ehstate.obj
 0002:0000ade4       $unwind$__vcrt_freeptd     0000000180029de4     libvcruntime:per_thread_data.obj
 0002:0000ade4       $unwind$_SetImageBase      0000000180029de4     libvcruntime:risctrnsctrl.obj
 0002:0000ade4       $unwind$??0length_error@std@@QEAA@AEBV01@@Z 0000000180029de4     libcpmt:xthrow.obj
 0002:0000ade4       $unwind$_SetThrowImageBase 0000000180029de4     libvcruntime:risctrnsctrl.obj
 0002:0000ade4       $unwind$?EIO_Flush@@YAXPEAUuv_work_s@@@Z 0000000180029de4     serialport_win.obj
 0002:0000ade4       $unwind$_CreateFrameInfo   0000000180029de4     libvcruntime:risctrnsctrl.obj
 0002:0000ade4       $unwind$strcpy_s           0000000180029de4     libucrt:strcpy_s.obj
 0002:0000ade4       $unwind$__std_type_info_destroy_list 0000000180029de4     libvcruntime:std_type_info.obj
 0002:0000ade4       $unwind$__scrt_release_startup_lock 0000000180029de4     LIBCMT:utility.obj
 0002:0000ade4       $unwind$initialize_pointers 0000000180029de4     libucrt:initialization.obj
 0002:0000ade4       $unwind$__acrt_FlsGetValue 0000000180029de4     libucrt:winapi_thunks.obj
 0002:0000ade4       $unwind$?load_exe_hook@@YAP6A_JXZIPEAUDelayLoadInfo@@@Z 0000000180029de4     win_delay_load_hook.obj
 0002:0000ade4       $unwind$__acrt_FlsFree     0000000180029de4     libucrt:winapi_thunks.obj
 0002:0000ade4       $unwind$??0logic_error@std@@QEAA@AEBV01@@Z 0000000180029de4     libcpmt:xthrow.obj
 0002:0000ade4       $unwind$__acrt_FlsAlloc    0000000180029de4     libucrt:winapi_thunks.obj
 0002:0000ade4       $unwind$?EIO_Set@@YAXPEAUuv_work_s@@@Z 0000000180029de4     serialport_win.obj
 0002:0000ade4       $unwind$__acrt_uninitialize_winapi_thunks 0000000180029de4     libucrt:winapi_thunks.obj
 0002:0000ade4       $unwind$__std_exception_destroy 0000000180029de4     libvcruntime:std_exception.obj
 0002:0000adec       $unwind$?Write@@YAXAEBV?$FunctionCallbackInfo@VValue@v8@@@Nan@@@Z 0000000180029dec     serialport_win.obj
 0002:0000ae0c       $stateUnwindMap$?Write@@YAXAEBV?$FunctionCallbackInfo@VValue@v8@@@Nan@@@Z 0000000180029e0c     serialport_win.obj
 0002:0000ae48       $ip2state$?Write@@YAXAEBV?$FunctionCallbackInfo@VValue@v8@@@Nan@@@Z 0000000180029e48     serialport_win.obj
 0002:0000ae78       $unwind$?WriteThread@@YAKPEAX@Z 0000000180029e78     serialport_win.obj
 0002:0000ae88       $chain$1$?WriteThread@@YAKPEAX@Z 0000000180029e88     serialport_win.obj
 0002:0000aea0       $chain$2$?WriteThread@@YAKPEAX@Z 0000000180029ea0     serialport_win.obj
 0002:0000aeb0       $unwind$?EIO_AfterWrite@@YAXPEAUuv_async_s@@@Z 0000000180029eb0     serialport_win.obj
 0002:0000aec4       $stateUnwindMap$?EIO_AfterWrite@@YAXPEAUuv_async_s@@@Z 0000000180029ec4     serialport_win.obj
 0002:0000af08       $ip2state$?EIO_AfterWrite@@YAXPEAUuv_async_s@@@Z 0000000180029f08     serialport_win.obj
 0002:0000af40       $unwind$?Read@@YAXAEBV?$FunctionCallbackInfo@VValue@v8@@@Nan@@@Z 0000000180029f40     serialport_win.obj
 0002:0000af5c       $stateUnwindMap$?Read@@YAXAEBV?$FunctionCallbackInfo@VValue@v8@@@Nan@@@Z 0000000180029f5c     serialport_win.obj
 0002:0000afb0       $ip2state$?Read@@YAXAEBV?$FunctionCallbackInfo@VValue@v8@@@Nan@@@Z 0000000180029fb0     serialport_win.obj
 0002:0000aff8       $unwind$?ReadIOCompletion@@YAXKKPEAU_OVERLAPPED@@@Z 0000000180029ff8     serialport_win.obj
 0002:0000b00c       $chain$0$?ReadIOCompletion@@YAXKKPEAU_OVERLAPPED@@@Z 000000018002a00c     serialport_win.obj
 0002:0000b020       $chain$1$?ReadIOCompletion@@YAXKKPEAU_OVERLAPPED@@@Z 000000018002a020     serialport_win.obj
 0002:0000b030       $unwind$?ReadThread@@YAKPEAX@Z 000000018002a030     serialport_win.obj
 0002:0000b048       $chain$1$?ReadThread@@YAKPEAX@Z 000000018002a048     serialport_win.obj
 0002:0000b060       $chain$2$?ReadThread@@YAKPEAX@Z 000000018002a060     serialport_win.obj
 0002:0000b070       $unwind$?EIO_AfterRead@@YAXPEAUuv_async_s@@@Z 000000018002a070     serialport_win.obj
 0002:0000b088       $stateUnwindMap$?EIO_AfterRead@@YAXPEAUuv_async_s@@@Z 000000018002a088     serialport_win.obj
 0002:0000b0f0       $ip2state$?EIO_AfterRead@@YAXPEAUuv_async_s@@@Z 000000018002a0f0     serialport_win.obj
 0002:0000b138       $unwind$?CatchTryBlock@__FrameHandler3@@SAPEBU_s_TryBlockMapEntry@@PEBU_s_FuncInfo@@H@Z 000000018002a138     libvcruntime:risctrnsctrl.obj
 0002:0000b138       $unwind$__acrt_stdio_flush_and_write_narrow_nolock 000000018002a138     libucrt:_flsbuf.obj
 0002:0000b138       $unwind$__acrt_stdio_flush_nolock 000000018002a138     libucrt:fflush.obj
 0002:0000b138       $unwind$__acrt_InitializeCriticalSectionEx 000000018002a138     libucrt:winapi_thunks.obj
 0002:0000b138       $unwind$?type_case_s@?$output_processor@_WV?$stream_output_adapter@_W@__crt_stdio_output@@V?$standard_base@_WV?$stream_output_adapter@_W@__crt_stdio_output@@@2@@__crt_stdio_output@@AEAA_NXZ 000000018002a138     libucrt:output.obj
 0002:0000b138       $unwind$?type_case_n@?$output_processor@_WV?$stream_output_adapter@_W@__crt_stdio_output@@V?$standard_base@_WV?$stream_output_adapter@_W@__crt_stdio_output@@@2@@__crt_stdio_output@@AEAA_NXZ 000000018002a138     libucrt:output.obj
 0002:0000b138       $unwind$__acrt_stdio_flush_and_write_wide_nolock 000000018002a138     libucrt:_flsbuf.obj
 0002:0000b138       $unwind$__vcrt_getptd_noexit 000000018002a138     libvcruntime:per_thread_data.obj
 0002:0000b138       $unwind$memcpy_s           000000018002a138     libucrt:cfout.obj
 0002:0000b138       $unwind$?type_case_n@?$output_processor@DV?$string_output_adapter@D@__crt_stdio_output@@V?$format_validation_base@DV?$string_output_adapter@D@__crt_stdio_output@@@2@@__crt_stdio_output@@AEAA_NXZ 000000018002a138     libucrt:output.obj
 0002:0000b138       $unwind$__acrt_execute_initializers 000000018002a138     libucrt:shared_initialization.obj
 0002:0000b138       $unwind$?type_case_n@?$output_processor@_WV?$string_output_adapter@_W@__crt_stdio_output@@V?$standard_base@_WV?$string_output_adapter@_W@__crt_stdio_output@@@2@@__crt_stdio_output@@AEAA_NXZ 000000018002a138     libucrt:output.obj
 0002:0000b138       $unwind$?free_crt_array_internal@@YAXQEAPEBX_K@Z 000000018002a138     libucrt:inittime.obj
 0002:0000b138       $unwind$?type_case_Z@?$output_processor@_WV?$stream_output_adapter@_W@__crt_stdio_output@@V?$standard_base@_WV?$stream_output_adapter@_W@__crt_stdio_output@@@2@@__crt_stdio_output@@AEAA_NXZ 000000018002a138     libucrt:output.obj
 0002:0000b138       $unwind$_exception_enabled 000000018002a138     libucrt:libm_error.obj
 0002:0000b138       $unwind$?type_case_s@?$output_processor@_WV?$string_output_adapter@_W@__crt_stdio_output@@V?$standard_base@_WV?$string_output_adapter@_W@__crt_stdio_output@@@2@@__crt_stdio_output@@AEAA_NXZ 000000018002a138     libucrt:output.obj
 0002:0000b138       $unwind$??$common_lseek_nolock@_J@@YA_JH_JH@Z 000000018002a138     libucrt:lseek.obj
 0002:0000b138       $unwind$__vcrt_InitializeCriticalSectionEx 000000018002a138     libvcruntime:winapi_downlevel.obj
 0002:0000b138       $unwind$?type_case_Z@?$output_processor@_WV?$string_output_adapter@_W@__crt_stdio_output@@V?$standard_base@_WV?$string_output_adapter@_W@__crt_stdio_output@@@2@@__crt_stdio_output@@AEAA_NXZ 000000018002a138     libucrt:output.obj
 0002:0000b138       $unwind$_DllMainCRTStartup 000000018002a138     LIBCMT:dll_dllmain.obj
 0002:0000b138       $unwind$??0_LocaleUpdate@@QEAA@QEAU__crt_locale_pointers@@@Z 000000018002a138     libucrt:output.obj
 0002:0000b138       $unwind$?EIO_Close@@YAXPEAUuv_work_s@@@Z 000000018002a138     serialport_win.obj
 0002:0000b138       $unwind$?FrameUnwindToEmptyState@__FrameHandler3@@SAXPEA_KPEAU_xDISPATCHER_CONTEXT@@PEBU_s_FuncInfo@@@Z 000000018002a138     libvcruntime:risctrnsctrl.obj
 0002:0000b148       $unwind$?List@@YAXAEBV?$FunctionCallbackInfo@VValue@v8@@@Nan@@@Z 000000018002a148     serialport_win.obj
 0002:0000b160       $stateUnwindMap$?List@@YAXAEBV?$FunctionCallbackInfo@VValue@v8@@@Nan@@@Z 000000018002a160     serialport_win.obj
 0002:0000b198       $ip2state$?List@@YAXAEBV?$FunctionCallbackInfo@VValue@v8@@@Nan@@@Z 000000018002a198     serialport_win.obj
 0002:0000b1b8       $unwind$?EIO_List@@YAXPEAUuv_work_s@@@Z 000000018002a1b8     serialport_win.obj
 0002:0000b1e4       $stateUnwindMap$?EIO_List@@YAXPEAUuv_work_s@@@Z 000000018002a1e4     serialport_win.obj
 0002:0000b220       $ip2state$?EIO_List@@YAXPEAUuv_work_s@@@Z 000000018002a220     serialport_win.obj
 0002:0000b260       $unwind$?setIfNotEmpty@@YAXV?$Local@VObject@v8@@@v8@@V?$basic_string@DU?$char_traits@D@std@@V?$allocator@D@2@@std@@PEBD@Z 000000018002a260     serialport_win.obj
 0002:0000b280       $stateUnwindMap$?setIfNotEmpty@@YAXV?$Local@VObject@v8@@@v8@@V?$basic_string@DU?$char_traits@D@std@@V?$allocator@D@2@@std@@PEBD@Z 000000018002a280     serialport_win.obj
 0002:0000b2a0       $ip2state$?setIfNotEmpty@@YAXV?$Local@VObject@v8@@@v8@@V?$basic_string@DU?$char_traits@D@std@@V?$allocator@D@2@@std@@PEBD@Z 000000018002a2a0     serialport_win.obj
 0002:0000b2d8       $unwind$?EIO_AfterList@@YAXPEAUuv_work_s@@@Z 000000018002a2d8     serialport_win.obj
 0002:0000b2f8       $stateUnwindMap$?EIO_AfterList@@YAXPEAUuv_work_s@@@Z 000000018002a2f8     serialport_win.obj
 0002:0000b380       $ip2state$?EIO_AfterList@@YAXPEAUuv_work_s@@@Z 000000018002a380     serialport_win.obj
 0002:0000b448       $unwind$??1ListResultItem@@QEAA@XZ 000000018002a448     serialport_win.obj
 0002:0000b45c       $stateUnwindMap$??1ListResultItem@@QEAA@XZ 000000018002a45c     serialport_win.obj
 0002:0000b4a0       $ip2state$??1ListResultItem@@QEAA@XZ 000000018002a4a0     serialport_win.obj
 0002:0000b518       $unwind$??1?$list@PEAUListResultItem@@V?$allocator@PEAUListResultItem@@@std@@@std@@QEAA@XZ 000000018002a518     serialport_win.obj
 0002:0000b52c       $stateUnwindMap$??1?$list@PEAUListResultItem@@V?$allocator@PEAUListResultItem@@@std@@@std@@QEAA@XZ 000000018002a52c     serialport_win.obj
 0002:0000b540       $ip2state$??1?$list@PEAUListResultItem@@V?$allocator@PEAUListResultItem@@@std@@@std@@QEAA@XZ 000000018002a540     serialport_win.obj
 0002:0000b558       $unwind$??1?$_List_buy@HV?$allocator@H@std@@@std@@QEAA@XZ 000000018002a558     serialport_win.obj
 0002:0000b568       $stateUnwindMap$??1?$_List_buy@HV?$allocator@H@std@@@std@@QEAA@XZ 000000018002a568     serialport_win.obj
 0002:0000b570       $ip2state$??1?$_List_buy@HV?$allocator@H@std@@@std@@QEAA@XZ 000000018002a570     serialport_win.obj
 0002:0000b578       $unwind$??1?$_List_buy@PEAUListResultItem@@V?$allocator@PEAUListResultItem@@@std@@@std@@QEAA@XZ 000000018002a578     serialport_win.obj
 0002:0000b588       $stateUnwindMap$??1?$_List_buy@PEAUListResultItem@@V?$allocator@PEAUListResultItem@@@std@@@std@@QEAA@XZ 000000018002a588     serialport_win.obj
 0002:0000b590       $ip2state$??1?$_List_buy@PEAUListResultItem@@V?$allocator@PEAUListResultItem@@@std@@@std@@QEAA@XZ 000000018002a590     serialport_win.obj
 0002:0000b598       $unwind$??1?$_List_alloc@U?$_List_base_types@HV?$allocator@H@std@@@std@@@std@@QEAA@XZ 000000018002a598     serialport_win.obj
 0002:0000b5a8       $ip2state$??1?$_List_alloc@U?$_List_base_types@HV?$allocator@H@std@@@std@@@std@@QEAA@XZ 000000018002a5a8     serialport_win.obj
 0002:0000b5b0       $unwind$??1?$_List_alloc@U?$_List_base_types@PEAUListResultItem@@V?$allocator@PEAUListResultItem@@@std@@@std@@@std@@QEAA@XZ 000000018002a5b0     serialport_win.obj
 0002:0000b5c0       $ip2state$??1?$_List_alloc@U?$_List_base_types@PEAUListResultItem@@V?$allocator@PEAUListResultItem@@@std@@@std@@@std@@QEAA@XZ 000000018002a5c0     serialport_win.obj
 0002:0000b5c8       xdata                      000000018002a5c8     node:node.exe
 0002:0000b5d0       $unwind$_close_nolock      000000018002a5d0     libucrt:close.obj
 0002:0000b5d0       $unwind$strncpy_s          000000018002a5d0     libucrt:strncpy_s.obj
 0002:0000b5d0       $unwind$?force_decimal_point@__crt_stdio_output@@YAXPEADQEAU__crt_locale_pointers@@@Z 000000018002a5d0     libucrt:output.obj
 0002:0000b5d0       $unwind$__acrt_getptd_noexit 000000018002a5d0     libucrt:per_thread_data.obj
 0002:0000b5d0       $unwind$?type_case_c_tchar@?$output_processor@DV?$string_output_adapter@D@__crt_stdio_output@@V?$format_validation_base@DV?$string_output_adapter@D@__crt_stdio_output@@@2@@__crt_stdio_output@@AEAA_ND@Z 000000018002a5d0     libucrt:output.obj
 0002:0000b5d0       $unwind$__acrt_FlsSetValue 000000018002a5d0     libucrt:winapi_thunks.obj
 0002:0000b5d0       $unwind$__acrt_execute_uninitializers 000000018002a5d0     libucrt:shared_initialization.obj
 0002:0000b5d0       $unwind$??_Glength_error@std@@UEAAPEAXI@Z 000000018002a5d0     libcpmt:xthrow.obj
 0002:0000b5d0       $unwind$__acrt_getptd      000000018002a5d0     libucrt:per_thread_data.obj
 0002:0000b5d0       $unwind$__acrt_uninitialize_lowio 000000018002a5d0     libucrt:ioinit.obj
 0002:0000b5d0       $unwind$??_Gexception@std@@UEAAPEAXI@Z 000000018002a5d0     libcpmt:xthrow.obj
 0002:0000b5d0       $unwind$__acrt_errno_map_os_error 000000018002a5d0     libucrt:errno.obj
 0002:0000b5d0       $unwind$__vcrt_FlsSetValue 000000018002a5d0     libvcruntime:winapi_downlevel.obj
 0002:0000b5d0       $unwind$??_Gbad_alloc@std@@UEAAPEAXI@Z 000000018002a5d0     libcpmt:xthrow.obj
 0002:0000b5d0       $unwind$_fclose_nolock     000000018002a5d0     libucrt:fclose.obj
 0002:0000b5d0       $unwind$_initterm_e        000000018002a5d0     libucrt:initterm.obj
 0002:0000b5d0       $unwind$??_Glogic_error@std@@UEAAPEAXI@Z 000000018002a5d0     libcpmt:xthrow.obj
 0002:0000b5d0       $unwind$_updatetlocinfoEx_nolock 000000018002a5d0     libucrt:locale_refcounting.obj
 0002:0000b5d0       $unwind$__acrt_stdio_allocate_buffer_nolock 000000018002a5d0     libucrt:_getbuf.obj
 0002:0000b5d0       $unwind$__acrt_fp_strflt_to_string 000000018002a5d0     libucrt:_fptostr.obj
 0002:0000b5d0       $unwind$?DloadGetSRWLockFunctionPointers@@YAEXZ 000000018002a5d0     DelayImp:delayhlp.obj
 0002:0000b5d0       $unwind$?replace_current_thread_locale_nolock@@YAXQEAU__acrt_ptd@@QEAU__crt_locale_data@@@Z 000000018002a5d0     libucrt:per_thread_data.obj
 0002:0000b5d0       $unwind$_realloc_base      000000018002a5d0     libucrt:realloc_base.obj
 0002:0000b5d0       $unwind$?SetUnwindTryBlock@__FrameHandler3@@SAXPEA_KPEAU_xDISPATCHER_CONTEXT@@PEBU_s_FuncInfo@@H@Z 000000018002a5d0     libvcruntime:ehstate.obj
 0002:0000b5d0       $unwind$__acrt_can_show_message_box 000000018002a5d0     libucrt:winapi_thunks.obj
 0002:0000b5d0       $unwind$wcsncat_s          000000018002a5d0     libucrt:wcsncat_s.obj
 0002:0000b5d0       $unwind$__acrt_LocaleNameToLCID 000000018002a5d0     libucrt:winapi_thunks.obj
 0002:0000b5d0       $unwind$??_Gbad_exception@std@@UEAAPEAXI@Z 000000018002a5d0     libvcruntime:frame.obj
 0002:0000b5d0       $unwind$__acrt_stdio_begin_temporary_buffering_nolock 000000018002a5d0     libucrt:_sftbuf.obj
 0002:0000b5d0       $unwind$_FindAndUnlinkFrame 000000018002a5d0     libvcruntime:risctrnsctrl.obj
 0002:0000b5d0       $unwind$_RTC_Terminate     000000018002a5d0     LIBCMT:_initsect_.obj
 0002:0000b5d0       $unwind$_RTC_Initialize    000000018002a5d0     LIBCMT:_initsect_.obj
 0002:0000b5d0       $unwind$??$common_initialize_environment_nolock@D@@YAHXZ 000000018002a5d0     libucrt:environment_initialization.obj
 0002:0000b5d0       $unwind$??_Gbad_array_new_length@std@@UEAAPEAXI@Z 000000018002a5d0     LIBCMT:throw_bad_alloc.obj
 0002:0000b5dc       $unwind$?__scrt_throw_std_bad_array_new_length@@YAXXZ 000000018002a5dc     LIBCMT:throw_bad_alloc.obj
 0002:0000b5dc       $unwind$?_Xlength_error@std@@YAXPEBD@Z 000000018002a5dc     libcpmt:xthrow.obj
 0002:0000b5dc       $unwind$_raise_exc         000000018002a5dc     libucrt:fpexcept.obj
 0002:0000b5dc       $unwind$?__scrt_throw_std_bad_alloc@@YAXXZ 000000018002a5dc     LIBCMT:throw_bad_alloc.obj
 0002:0000b5e4       $unwind$?__mbrtowc_utf8@__crt_mbstring@@YA_KPEA_WPEBD_KPEAU_Mbstatet@@@Z 000000018002a5e4     libucrt:mbrtowc.obj
 0002:0000b5e4       $unwind$??0length_error@std@@QEAA@PEBD@Z 000000018002a5e4     libcpmt:xthrow.obj
 0002:0000b5e4       $unwind$??$common_xtox_s@K_W@@YAHKQEA_W_KI_N@Z 000000018002a5e4     libucrt:xtoa.obj
 0002:0000b5f0       $xdatasym                  000000018002a5f0     LIBCMT:_amdsecgs_.obj
 0002:0000b5f4       $unwind$__report_securityfailure 000000018002a5f4     LIBCMT:gs_report.obj
 0002:0000b5fc       $unwind$__report_gsfailure 000000018002a5fc     LIBCMT:gs_report.obj
 0002:0000b604       $unwind$capture_current_context 000000018002a604     LIBCMT:gs_report.obj
 0002:0000b610       $unwind$capture_previous_context 000000018002a610     LIBCMT:gs_report.obj
 0002:0000b61c       $unwind$__scrt_is_nonwritable_in_current_image 000000018002a61c     LIBCMT:utility.obj
 0002:0000b63c       $unwind$__scrt_is_nonwritable_in_current_image$filt$0 000000018002a63c     LIBCMT:utility.obj
 0002:0000b644       $unwind$__dcrt_lowio_ensure_console_output_initialized 000000018002a644     libucrt:initcon.obj
 0002:0000b644       $unwind$?getSystemCP@@YAHH@Z 000000018002a644     libucrt:mbctype.obj
 0002:0000b644       $unwind$_isleadbyte_l      000000018002a644     libucrt:_wctype.obj
 0002:0000b644       $unwind$isdigit            000000018002a644     libucrt:_ctype.obj
 0002:0000b644       $unwind$__scrt_initialize_onexit_tables 000000018002a644     LIBCMT:utility.obj
 0002:0000b64c       $unwind$?setSBCS@@YAXPEAU__crt_multibyte_data@@@Z 000000018002a64c     libucrt:mbctype.obj
 0002:0000b64c       $unwind$__acrt_lowio_create_handle_array 000000018002a64c     libucrt:osfinfo.obj
 0002:0000b64c       $unwind$??$ensure_buffer_is_big_enough@_W@formatting_buffer@__crt_stdio_output@@QEAA_N_K@Z 000000018002a64c     libucrt:output.obj
 0002:0000b64c       $unwind$_recalloc_base     000000018002a64c     libucrt:recalloc.obj
 0002:0000b64c       $unwind$?Is_bad_exception_allowed@@YAEPEBU_s_ESTypeList@@@Z 000000018002a64c     libvcruntime:frame.obj
 0002:0000b64c       $unwind$__acrt_free_locale 000000018002a64c     libucrt:locale_refcounting.obj
 0002:0000b64c       $unwind$__acrt_show_wide_message_box 000000018002a64c     libucrt:crtmbox.obj
 0002:0000b64c       $unwind$_wassert           000000018002a64c     libucrt:assert.obj
 0002:0000b64c       $unwind$_seh_filter_exe    000000018002a64c     libucrt:exception_filter.obj
 0002:0000b64c       $unwind$__scrt_dllmain_exception_filter 000000018002a64c     LIBCMT:utility.obj
 0002:0000b64c       $unwind$??$ensure_buffer_is_big_enough@D@formatting_buffer@__crt_stdio_output@@QEAA_N_K@Z 000000018002a64c     libucrt:output.obj
 0002:0000b64c       $unwind$?GetHandlerSearchState@__FrameHandler3@@SAHPEA_KPEAU_xDISPATCHER_CONTEXT@@PEBU_s_FuncInfo@@@Z 000000018002a64c     libvcruntime:frame.obj
 0002:0000b64c       $unwind$_initterm          000000018002a64c     libucrt:initterm.obj
 0002:0000b64c       $unwind$??$common_xtox@K_W@@YAHKQEA_W_KI_N@Z 000000018002a64c     libucrt:xtoa.obj
 0002:0000b660       $unwind$?dllmain_crt_process_attach@@YAHQEAUHINSTANCE__@@QEAX@Z 000000018002a660     LIBCMT:dll_dllmain.obj
 0002:0000b69c       $unwind$?dllmain_crt_process_detach@@YAH_N@Z 000000018002a69c     LIBCMT:dll_dllmain.obj
 0002:0000b6d4       $unwind$?dllmain_dispatch@@YAHQEAUHINSTANCE__@@KQEAX@Z 000000018002a6d4     LIBCMT:dll_dllmain.obj
 0002:0000b6fc       $unwind$?filt$0@?0??dllmain_dispatch@@YAHQEAUHINSTANCE__@@KQEAX@Z@4HA 000000018002a6fc     LIBCMT:dll_dllmain.obj
 0002:0000b704       $unwind$__isa_available_init 000000018002a704     LIBCMT:_cpu_disp_.obj
 0002:0000b718       $unwind$__scrt_fastfail    000000018002a718     LIBCMT:utility_desktop.obj
 0002:0000b728       $unwind$__security_init_cookie 000000018002a728     LIBCMT:gs_support.obj
 0002:0000b738       $xdatasym                  000000018002a738     LIBCMT:_guard_dispatch_.obj
 0002:0000b73c       $unwind$?GetEstablisherFrame@__FrameHandler3@@SAPEA_KPEA_KPEAU_xDISPATCHER_CONTEXT@@PEBU_s_FuncInfo@@0@Z 000000018002a73c     libvcruntime:risctrnsctrl.obj
 0002:0000b754       $unwind$?UnwindNestedFrames@__FrameHandler3@@SAXPEA_KPEAUEHExceptionRecord@@PEAU_CONTEXT@@0PEAXPEBU_s_FuncInfo@@HHPEBU_s_HandlerType@@PEAU_xDISPATCHER_CONTEXT@@E@Z 000000018002a754     libvcruntime:risctrnsctrl.obj
 0002:0000b768       $unwind$?GetRangeOfTrysToCheck@__FrameHandler3@@SA?AU?$pair@Viterator@TryBlockMap@__FrameHandler3@@V123@@std@@AEAVTryBlockMap@1@HH@Z 000000018002a768     libvcruntime:risctrnsctrl.obj
 0002:0000b780       $unwind$__CxxFrameHandler3 000000018002a780     libvcruntime:risctrnsctrl.obj
 0002:0000b790       $unwind$??$_CallSETranslator@V__FrameHandler3@@@@YAHPEAUEHExceptionRecord@@PEA_KPEAU_CONTEXT@@PEAU_xDISPATCHER_CONTEXT@@PEBU_s_FuncInfo@@K1@Z 000000018002a790     libvcruntime:risctrnsctrl.obj
 0002:0000b7b0       $unwind$?filt$0@?0???$_CallSETranslator@V__FrameHandler3@@@@YAHPEAUEHExceptionRecord@@PEA_KPEAU_CONTEXT@@PEAU_xDISPATCHER_CONTEXT@@PEBU_s_FuncInfo@@K1@Z@4HA 000000018002a7b0     libvcruntime:risctrnsctrl.obj
 0002:0000b7bc       $unwind$strstr             000000018002a7bc     libvcruntime:strstr.obj
 0002:0000b7cc       $unwind$__std_exception_copy 000000018002a7cc     libvcruntime:std_exception.obj
 0002:0000b7cc       $unwind$?initialize_stdio_handles_nolock@@YAXXZ 000000018002a7cc     libucrt:ioinit.obj
 0002:0000b7cc       $unwind$_free_osfhnd       000000018002a7cc     libucrt:osfinfo.obj
 0002:0000b7e0       $unwind$_CxxThrowException 000000018002a7e0     libvcruntime:throw.obj
 0002:0000b7f0       $unwind$__C_specific_handler 000000018002a7f0     libvcruntime:_riscchandler_.obj
 0002:0000b810       $xdatasym                  000000018002a810     libvcruntime:memset.obj
 0002:0000b820       $unwind$?FrameUnwindToState@__FrameHandler3@@SAXPEA_KPEAU_xDISPATCHER_CONTEXT@@PEBU_s_FuncInfo@@H@Z 000000018002a820     libvcruntime:frame.obj
 0002:0000b86c       $unwind$?CxxCallCatchBlock@__FrameHandler3@@SAPEAXPEAU_EXCEPTION_RECORD@@@Z 000000018002a86c     libvcruntime:frame.obj
 0002:0000b8a8       $unwind$?fin$1@?0??CxxCallCatchBlock@__FrameHandler3@@SAPEAXPEAU_EXCEPTION_RECORD@@@Z@4HA 000000018002a8a8     libvcruntime:frame.obj
 0002:0000b8b4       $unwind$?try_get_function@@YAPEAXW4function_id@?A0x391cf84c@@QEBDQEBW4module_id@2@2@Z 000000018002a8b4     libucrt:winapi_thunks.obj
 0002:0000b8b4       $unwind$??R<lambda_f03950bc5685219e0bcd2087efbe011e>@@QEBAHXZ 000000018002a8b4     libucrt:onexit.obj
 0002:0000b8b4       $unwind$?try_get_function@@YAPEAXW4function_id@?A0xcc2f1bd3@@QEBDQEBW4module_id@2@2@Z 000000018002a8b4     libvcruntime:winapi_downlevel.obj
 0002:0000b8b4       $unwind$?IsInExceptionSpec@@YAEPEAUEHExceptionRecord@@PEBU_s_ESTypeList@@@Z 000000018002a8b4     libvcruntime:frame.obj
 0002:0000b8d0       $unwind$??$__InternalCxxFrameHandler@V__FrameHandler3@@@@YA?AW4_EXCEPTION_DISPOSITION@@PEAUEHExceptionRecord@@PEA_KPEAU_CONTEXT@@PEAU_xDISPATCHER_CONTEXT@@PEBU_s_FuncInfo@@H1E@Z 000000018002a8d0     libvcruntime:frame.obj
 0002:0000b8e8       $unwind$__GSHandlerCheck_EH 000000018002a8e8     LIBCMT:gshandlereh.obj
 0002:0000b8e8       $unwind$__acrt_initialize_stdio 000000018002a8e8     libucrt:_file.obj
 0002:0000b8e8       $unwind$??$TypeMatchHelper@$$CBU_s_HandlerType@@@@YAHPEBU_s_HandlerType@@PEBU_s_CatchableType@@PEBU_s_ThrowInfo@@@Z 000000018002a8e8     libvcruntime:frame.obj
 0002:0000b900       $unwind$??$BuildCatchObjectHelperInternal@$$CBU_s_HandlerType@@@@YAHPEAUEHExceptionRecord@@PEAXPEBU_s_HandlerType@@PEBU_s_CatchableType@@@Z 000000018002a900     libvcruntime:frame.obj
 0002:0000b940       $unwind$??$BuildCatchObjectInternal@$$CBU_s_HandlerType@@@@YAXPEAUEHExceptionRecord@@PEAXPEBU_s_HandlerType@@PEBU_s_CatchableType@@@Z 000000018002a940     libvcruntime:frame.obj
 0002:0000b96c       $unwind$??$FindHandler@V__FrameHandler3@@@@YAXPEAUEHExceptionRecord@@PEA_KPEAU_CONTEXT@@PEAU_xDISPATCHER_CONTEXT@@PEBU_s_FuncInfo@@EH1@Z 000000018002a96c     libvcruntime:frame.obj
 0002:0000b988       $unwind$??$CatchIt@V__FrameHandler3@@@@YAXPEAUEHExceptionRecord@@PEA_KPEAU_CONTEXT@@PEAU_xDISPATCHER_CONTEXT@@PEBU_s_FuncInfo@@PEBU_s_HandlerType@@PEBU_s_CatchableType@@PEBU_s_TryBlockMapEntry@@H1EE@Z 000000018002a988     libvcruntime:frame.obj
 0002:0000b9a0       $unwind$??$FindHandlerForForeignException@V__FrameHandler3@@@@YAXPEAUEHExceptionRecord@@PEA_KPEAU_CONTEXT@@PEAU_xDISPATCHER_CONTEXT@@PEBU_s_FuncInfo@@HH1@Z 000000018002a9a0     libvcruntime:frame.obj
 0002:0000b9bc       $unwind$__vcrt_initialize_winapi_thunks 000000018002a9bc     libvcruntime:winapi_downlevel.obj
 0002:0000b9bc       $unwind$__acrt_initialize_winapi_thunks 000000018002a9bc     libucrt:winapi_thunks.obj
 0002:0000b9c4       $unwind$__acrt_stdio_end_temporary_buffering_nolock 000000018002a9c4     libucrt:_sftbuf.obj
 0002:0000b9c4       $unwind$__vcrt_uninitialize_winapi_thunks 000000018002a9c4     libvcruntime:winapi_downlevel.obj
 0002:0000b9d0       $xdatasym                  000000018002a9d0     libvcruntime:_notify_.obj
 0002:0000b9dc       $unwind$__DestructExceptionObject 000000018002a9dc     libvcruntime:ehhelpers.obj
 0002:0000ba00       $xdatasym                  000000018002aa00     libvcruntime:handlers.obj
 0002:0000ba10       $xdatasym                  000000018002aa10     libvcruntime:memcpy.obj
 0002:0000ba20       $unwind$fwprintf           000000018002aa20     libucrt:assert.obj
 0002:0000ba2c       $unwind$swprintf           000000018002aa2c     libucrt:assert.obj
 0002:0000ba3c       $unwind$??$common_assert_to_stderr@_W@@YAXQEB_W0I@Z 000000018002aa3c     libucrt:assert.obj
 0002:0000ba58       $unwind$??$common_assert_to_message_box@_W@@YAXQEB_W0IQEAX@Z 000000018002aa58     libucrt:assert.obj
 0002:0000ba74       $unwind$??$common_assert_to_message_box_build_string@_W@@YAXQEA_W_KQEB_W2IQEAX@Z 000000018002aa74     libucrt:assert.obj
 0002:0000ba94       $unwind$__acrt_call_reportfault 000000018002aa94     libucrt:invalid_parameter.obj
 0002:0000bab4       $unwind$_invalid_parameter 000000018002aab4     libucrt:invalid_parameter.obj
 0002:0000bab4       $unwind$__acrt_MessageBoxW 000000018002aab4     libucrt:winapi_thunks.obj
 0002:0000bab4       $unwind$??$__acrt_convert_wcs_mbs@_WD$$A6A_KPEADPEB_W_KPEAU__crt_locale_pointers@@@ZU__crt_win32_buffer_no_resizing@@@@YAHQEB_WAEAV?$__crt_win32_buffer@DU__crt_win32_buffer_no_resizing@@@@A6A_KPEADPEB_W_KPEAU__crt_locale_pointers@@@Z5@Z 000000018002aab4     libucrt:findnextfilea.obj
 0002:0000bac8       $unwind$__stdio_common_vfwprintf 000000018002aac8     libucrt:output.obj
 0002:0000bad0       $unwind$__stdio_common_vsnprintf_s 000000018002aad0     libucrt:output.obj
 0002:0000bae8       $unwind$??$common_vsprintf@Vformat_validation_base@__crt_stdio_output@@D@@YAH_KQEAD0QEBDQEAU__crt_locale_pointers@@1@Z 000000018002aae8     libucrt:output.obj
 0002:0000bae8       $unwind$??$common_vsprintf@Vstandard_base@__crt_stdio_output@@_W@@YAH_KQEA_W0QEB_WQEAU__crt_locale_pointers@@QEAD@Z 000000018002aae8     libucrt:output.obj
 0002:0000bb08       $unwind$??$parse_command_line@D@@YAXPEADPEAPEAD0PEA_K2@Z 000000018002ab08     libucrt:argv_parsing.obj
 0002:0000bb08       $unwind$?write_string_impl@?$output_adapter_common@_WV?$stream_output_adapter@_W@__crt_stdio_output@@@__crt_stdio_output@@IEBAXQEB_WHQEAHAEAV__crt_deferred_errno_cache@@@Z 000000018002ab08     libucrt:output.obj
 0002:0000bb08       $unwind$??R<lambda_a10e4b102d4a2c3aac6f4f48bbdf488f>@@QEBAHXZ 000000018002ab08     libucrt:onexit.obj
 0002:0000bb24       $unwind$?process@?$output_processor@_WV?$stream_output_adapter@_W@__crt_stdio_output@@V?$standard_base@_WV?$stream_output_adapter@_W@__crt_stdio_output@@@2@@__crt_stdio_output@@QEAAHXZ 000000018002ab24     libucrt:output.obj
 0002:0000bb24       $unwind$?process@?$output_processor@_WV?$string_output_adapter@_W@__crt_stdio_output@@V?$standard_base@_WV?$string_output_adapter@_W@__crt_stdio_output@@@2@@__crt_stdio_output@@QEAAHXZ 000000018002ab24     libucrt:output.obj
 0002:0000bb24       $unwind$?parse_int_from_format_string@?$output_processor@DV?$string_output_adapter@D@__crt_stdio_output@@V?$format_validation_base@DV?$string_output_adapter@D@__crt_stdio_output@@@2@@__crt_stdio_output@@AEAA_NQEAH@Z 000000018002ab24     libucrt:output.obj
 0002:0000bb38       $unwind$?parse_int_from_format_string@?$output_processor@_WV?$stream_output_adapter@_W@__crt_stdio_output@@V?$standard_base@_WV?$stream_output_adapter@_W@__crt_stdio_output@@@2@@__crt_stdio_output@@AEAA_NQEAH@Z 000000018002ab38     libucrt:output.obj
 0002:0000bb38       $unwind$?parse_int_from_format_string@?$output_processor@_WV?$string_output_adapter@_W@__crt_stdio_output@@V?$standard_base@_WV?$string_output_adapter@_W@__crt_stdio_output@@@2@@__crt_stdio_output@@AEAA_NQEAH@Z 000000018002ab38     libucrt:output.obj
 0002:0000bb4c       $unwind$?state_case_type@?$output_processor@_WV?$stream_output_adapter@_W@__crt_stdio_output@@V?$standard_base@_WV?$stream_output_adapter@_W@__crt_stdio_output@@@2@@__crt_stdio_output@@AEAA_NXZ 000000018002ab4c     libucrt:output.obj
 0002:0000bb6c       $unwind$?type_case_c_tchar@?$output_processor@_WV?$stream_output_adapter@_W@__crt_stdio_output@@V?$standard_base@_WV?$stream_output_adapter@_W@__crt_stdio_output@@@2@@__crt_stdio_output@@AEAA_N_W@Z 000000018002ab6c     libucrt:output.obj
 0002:0000bb6c       $unwind$?type_case_c_tchar@?$output_processor@_WV?$string_output_adapter@_W@__crt_stdio_output@@V?$standard_base@_WV?$string_output_adapter@_W@__crt_stdio_output@@@2@@__crt_stdio_output@@AEAA_N_W@Z 000000018002ab6c     libucrt:output.obj
 0002:0000bb6c       $unwind$??R<lambda_ca71763b3c0644891230e4f79ea54fa6>@@QEBAHXZ 000000018002ab6c     libucrt:setvbuf.obj
 0002:0000bb7c       $unwind$?type_case_a@?$output_processor@_WV?$string_output_adapter@_W@__crt_stdio_output@@V?$standard_base@_WV?$string_output_adapter@_W@__crt_stdio_output@@@2@@__crt_stdio_output@@AEAA_NXZ 000000018002ab7c     libucrt:output.obj
 0002:0000bb7c       $unwind$?type_case_a@?$output_processor@_WV?$stream_output_adapter@_W@__crt_stdio_output@@V?$standard_base@_WV?$stream_output_adapter@_W@__crt_stdio_output@@@2@@__crt_stdio_output@@AEAA_NXZ 000000018002ab7c     libucrt:output.obj
 0002:0000bb8c       $unwind$?type_case_integer@?$output_processor@DV?$string_output_adapter@D@__crt_stdio_output@@V?$format_validation_base@DV?$string_output_adapter@D@__crt_stdio_output@@@2@@__crt_stdio_output@@AEAA_NI_N@Z 000000018002ab8c     libucrt:output.obj
 0002:0000bb8c       $unwind$?type_case_integer@?$output_processor@_WV?$string_output_adapter@_W@__crt_stdio_output@@V?$standard_base@_WV?$string_output_adapter@_W@__crt_stdio_output@@@2@@__crt_stdio_output@@AEAA_NI_N@Z 000000018002ab8c     libucrt:output.obj
 0002:0000bb8c       $unwind$?type_case_integer@?$output_processor@_WV?$stream_output_adapter@_W@__crt_stdio_output@@V?$standard_base@_WV?$stream_output_adapter@_W@__crt_stdio_output@@@2@@__crt_stdio_output@@AEAA_NI_N@Z 000000018002ab8c     libucrt:output.obj
 0002:0000bba4       $unwind$?write_stored_string_tchar@?$output_processor@_WV?$stream_output_adapter@_W@__crt_stdio_output@@V?$standard_base@_WV?$stream_output_adapter@_W@__crt_stdio_output@@@2@@__crt_stdio_output@@AEAA_N_W@Z 000000018002aba4     libucrt:output.obj
 0002:0000bbb8       $unwind$??R<lambda_a775ed57af18ba8e4d5dc780aa9068fe>@@QEBAHXZ 000000018002abb8     libucrt:output.obj
 0002:0000bbd8       $unwind$??$write_multiple_characters@V?$stream_output_adapter@_W@__crt_stdio_output@@D@__crt_stdio_output@@YAXAEBV?$stream_output_adapter@_W@0@DHQEAH@Z 000000018002abd8     libucrt:output.obj
 0002:0000bbd8       $unwind$?write_string@?$string_output_adapter@D@__crt_stdio_output@@QEBAXQEBDHQEAHAEAV__crt_deferred_errno_cache@@@Z 000000018002abd8     libucrt:output.obj
 0002:0000bbf0       $unwind$?write_string@?$string_output_adapter@_W@__crt_stdio_output@@QEBAXQEB_WHQEAHAEAV__crt_deferred_errno_cache@@@Z 000000018002abf0     libucrt:output.obj
 0002:0000bc08       $unwind$?state_case_type@?$output_processor@_WV?$string_output_adapter@_W@__crt_stdio_output@@V?$standard_base@_WV?$string_output_adapter@_W@__crt_stdio_output@@@2@@__crt_stdio_output@@AEAA_NXZ 000000018002ac08     libucrt:output.obj
 0002:0000bc2c       $unwind$?write_stored_string_tchar@?$output_processor@_WV?$string_output_adapter@_W@__crt_stdio_output@@V?$standard_base@_WV?$string_output_adapter@_W@__crt_stdio_output@@@2@@__crt_stdio_output@@AEAA_N_W@Z 000000018002ac2c     libucrt:output.obj
 0002:0000bc40       $unwind$??$write_multiple_characters@V?$string_output_adapter@_W@__crt_stdio_output@@D@__crt_stdio_output@@YAXAEBV?$string_output_adapter@_W@0@DHQEAH@Z 000000018002ac40     libucrt:output.obj
 0002:0000bc40       $unwind$??$write_multiple_characters@V?$string_output_adapter@D@__crt_stdio_output@@D@__crt_stdio_output@@YAXAEBV?$string_output_adapter@D@0@DHQEAH@Z 000000018002ac40     libucrt:output.obj
 0002:0000bc4c       $unwind$??$type_case_integer_parse_into_buffer@I@?$output_processor@_WV?$stream_output_adapter@_W@__crt_stdio_output@@V?$standard_base@_WV?$stream_output_adapter@_W@__crt_stdio_output@@@2@@__crt_stdio_output@@AEAAXII_N@Z 000000018002ac4c     libucrt:output.obj
 0002:0000bc4c       $unwind$__ascii_strnicmp   000000018002ac4c     libucrt:strnicmp.obj
 0002:0000bc4c       $unwind$??$type_case_integer_parse_into_buffer@I@?$output_processor@DV?$string_output_adapter@D@__crt_stdio_output@@V?$format_validation_base@DV?$string_output_adapter@D@__crt_stdio_output@@@2@@__crt_stdio_output@@AEAAXII_N@Z 000000018002ac4c     libucrt:output.obj
 0002:0000bc4c       $unwind$??$type_case_integer_parse_into_buffer@_K@?$output_processor@_WV?$string_output_adapter@_W@__crt_stdio_output@@V?$standard_base@_WV?$string_output_adapter@_W@__crt_stdio_output@@@2@@__crt_stdio_output@@AEAAX_KI_N@Z 000000018002ac4c     libucrt:output.obj
 0002:0000bc4c       $unwind$??$type_case_integer_parse_into_buffer@_K@?$output_processor@_WV?$stream_output_adapter@_W@__crt_stdio_output@@V?$standard_base@_WV?$stream_output_adapter@_W@__crt_stdio_output@@@2@@__crt_stdio_output@@AEAAX_KI_N@Z 000000018002ac4c     libucrt:output.obj
 0002:0000bc4c       $unwind$??$type_case_integer_parse_into_buffer@I@?$output_processor@_WV?$string_output_adapter@_W@__crt_stdio_output@@V?$standard_base@_WV?$string_output_adapter@_W@__crt_stdio_output@@@2@@__crt_stdio_output@@AEAAXII_N@Z 000000018002ac4c     libucrt:output.obj
 0002:0000bc4c       $unwind$??$type_case_integer_parse_into_buffer@_K@?$output_processor@DV?$string_output_adapter@D@__crt_stdio_output@@V?$format_validation_base@DV?$string_output_adapter@D@__crt_stdio_output@@@2@@__crt_stdio_output@@AEAAX_KI_N@Z 000000018002ac4c     libucrt:output.obj
 0002:0000bc54       $unwind$??$?RV<lambda_0d412022a4b28cc8a401ea49574e8ae6>@@AEAV<lambda_a775ed57af18ba8e4d5dc780aa9068fe>@@V<lambda_975a71a6baa488a08f4e15f6b0339b9e>@@@?$__crt_seh_guarded_call@H@@QEAAH$$QEAV<lambda_0d412022a4b28cc8a401ea49574e8ae6>@@AEAV<lambda_a775ed57af18ba8e4d5dc780aa9068fe>@@$$QEAV<lambda_975a71a6baa488a08f4e15f6b0339b9e>@@@Z 000000018002ac54     libucrt:output.obj
 0002:0000bc78       $unwind$?process@?$output_processor@DV?$string_output_adapter@D@__crt_stdio_output@@V?$format_validation_base@DV?$string_output_adapter@D@__crt_stdio_output@@@2@@__crt_stdio_output@@QEAAHXZ 000000018002ac78     libucrt:output.obj
 0002:0000bc8c       $unwind$?state_case_type@?$output_processor@DV?$string_output_adapter@D@__crt_stdio_output@@V?$format_validation_base@DV?$string_output_adapter@D@__crt_stdio_output@@@2@@__crt_stdio_output@@AEAA_NXZ 000000018002ac8c     libucrt:output.obj
 0002:0000bca4       $unwind$?type_case_a@?$output_processor@DV?$string_output_adapter@D@__crt_stdio_output@@V?$format_validation_base@DV?$string_output_adapter@D@__crt_stdio_output@@@2@@__crt_stdio_output@@AEAA_NXZ 000000018002aca4     libucrt:output.obj
 0002:0000bcb0       $unwind$?write_stored_string_tchar@?$output_processor@DV?$string_output_adapter@D@__crt_stdio_output@@V?$format_validation_base@DV?$string_output_adapter@D@__crt_stdio_output@@@2@@__crt_stdio_output@@AEAA_ND@Z 000000018002acb0     libucrt:output.obj
 0002:0000bcc8       $xdatasym                  000000018002acc8     libucrt:strncpy.obj
 0002:0000bccc       $unwind$_stricmp_l         000000018002accc     libucrt:stricmp.obj
 0002:0000bccc       $unwind$?x_ismbbtype_l@@YAHPEAU__crt_locale_pointers@@IHH@Z 000000018002accc     libucrt:ismbbyte.obj
 0002:0000bcdc       $unwind$_query_new_handler 000000018002acdc     libucrt:new_handler.obj
 0002:0000bcfc       $unwind$?common_exit@@YAXHW4_crt_exit_cleanup_mode@@W4_crt_exit_return_mode@@@Z 000000018002acfc     libucrt:exit.obj
 0002:0000bd08       $unwind$??R<lambda_6e4b09c48022b2350581041d5f6b0c4c>@@QEBA@XZ 000000018002ad08     libucrt:exit.obj
 0002:0000bd28       $unwind$??$?RV<lambda_d80eeec6fff315bfe5c115232f3240e3>@@AEAV<lambda_6e4b09c48022b2350581041d5f6b0c4c>@@V<lambda_2358e3775559c9db80273638284d5e45>@@@?$__crt_seh_guarded_call@X@@QEAAX$$QEAV<lambda_d80eeec6fff315bfe5c115232f3240e3>@@AEAV<lambda_6e4b09c48022b2350581041d5f6b0c4c>@@$$QEAV<lambda_2358e3775559c9db80273638284d5e45>@@@Z 000000018002ad28     libucrt:exit.obj
 0002:0000bd4c       $unwind$_configure_narrow_argv 000000018002ad4c     libucrt:argv_parsing.obj
 0002:0000bd60       $unwind$??$free_environment@_W@@YAXQEAPEA_W@Z 000000018002ad60     libucrt:environment_initialization.obj
 0002:0000bd60       $unwind$??$free_environment@D@@YAXQEAPEAD@Z 000000018002ad60     libucrt:environment_initialization.obj
 0002:0000bd6c       $unwind$??$create_environment@D@@YAQEAPEADQEAD@Z 000000018002ad6c     libucrt:environment_initialization.obj
 0002:0000bd84       $unwind$_register_onexit_function 000000018002ad84     libucrt:onexit.obj
 0002:0000bd8c       $unwind$_execute_onexit_table 000000018002ad8c     libucrt:onexit.obj
 0002:0000bd94       $unwind$??$?RV<lambda_8369fcb7c4df1e85de37618bd2b85f07>@@AEAV<lambda_a10e4b102d4a2c3aac6f4f48bbdf488f>@@V<lambda_5b7707bd6d7a0c4713179f36c7fd995d>@@@?$__crt_seh_guarded_call@H@@QEAAH$$QEAV<lambda_8369fcb7c4df1e85de37618bd2b85f07>@@AEAV<lambda_a10e4b102d4a2c3aac6f4f48bbdf488f>@@$$QEAV<lambda_5b7707bd6d7a0c4713179f36c7fd995d>@@@Z 000000018002ad94     libucrt:onexit.obj
 0002:0000bdb8       $unwind$??$?RV<lambda_7777bce6b2f8c936911f934f8298dc43>@@AEAV<lambda_f03950bc5685219e0bcd2087efbe011e>@@V<lambda_3883c3dff614d5e0c5f61bb1ac94921c>@@@?$__crt_seh_guarded_call@H@@QEAAH$$QEAV<lambda_7777bce6b2f8c936911f934f8298dc43>@@AEAV<lambda_f03950bc5685219e0bcd2087efbe011e>@@$$QEAV<lambda_3883c3dff614d5e0c5f61bb1ac94921c>@@@Z 000000018002adb8     libucrt:onexit.obj
 0002:0000bddc       $unwind$terminate          000000018002addc     libucrt:terminate.obj
 0002:0000bdfc       $unwind$_strnicmp_l        000000018002adfc     libucrt:strnicmp.obj
 0002:0000bdfc       $unwind$__dcrt_write_console 000000018002adfc     libucrt:initcon.obj
 0002:0000be10       $unwind$strpbrk            000000018002ae10     libucrt:strpbrk.obj
 0002:0000be10       $unwind$_strdup            000000018002ae10     libucrt:strdup.obj
 0002:0000be20       $unwind$??$parse_integer@KV?$c_string_character_source@D@__crt_strtox@@@__crt_strtox@@YAKQEAU__crt_locale_pointers@@V?$c_string_character_source@D@0@H_N@Z 000000018002ae20     libucrt:atox.obj
 0002:0000be38       $unwind$??$parse_integer@KV?$c_string_character_source@_W@__crt_strtox@@@__crt_strtox@@YAKQEAU__crt_locale_pointers@@V?$c_string_character_source@_W@0@H_N@Z 000000018002ae38     libucrt:atox.obj
 0002:0000be50       $xdatasym                  000000018002ae50     libucrt:strncmp.obj
 0002:0000be54       $unwind$_free_base         000000018002ae54     libucrt:free_base.obj
 0002:0000be54       $unwind$__acrt_locale_free_lc_time_if_unreferenced 000000018002ae54     libucrt:locale_refcounting.obj
 0002:0000be54       $unwind$?destroy_fls@@YAXPEAX@Z 000000018002ae54     libucrt:per_thread_data.obj
 0002:0000be54       $unwind$__acrt_locale_free_numeric 000000018002ae54     libucrt:initnum.obj
 0002:0000be5c       $unwind$__acrt_GetModuleFileNameA 000000018002ae5c     libucrt:getmodulefilenamea.obj
 0002:0000be74       $unwind$?common_flush_all@@YAH_N@Z 000000018002ae74     libucrt:fflush.obj
 0002:0000be7c       $unwind$??$?RV<lambda_842d9ff0dc9ef11c61343bbaebe7f885>@@AEAV<lambda_c5860995281e5c4ce005b3de8f5874ee>@@V<lambda_d90129c13df834fdcbf8d2b88dafcf2d>@@@?$__crt_seh_guarded_call@X@@QEAAX$$QEAV<lambda_842d9ff0dc9ef11c61343bbaebe7f885>@@AEAV<lambda_c5860995281e5c4ce005b3de8f5874ee>@@$$QEAV<lambda_d90129c13df834fdcbf8d2b88dafcf2d>@@@Z 000000018002ae7c     libucrt:fflush.obj
 0002:0000bea0       $unwind$??$?RV<lambda_886d6c58226a84441f68b9f2b8217b83>@@AEAV<lambda_ab61a845afdef5b7c387490eaf3616ee>@@V<lambda_f7f22ab5edc0698d5f6905b0d3f44752>@@@?$__crt_seh_guarded_call@X@@QEAAX$$QEAV<lambda_886d6c58226a84441f68b9f2b8217b83>@@AEAV<lambda_ab61a845afdef5b7c387490eaf3616ee>@@$$QEAV<lambda_f7f22ab5edc0698d5f6905b0d3f44752>@@@Z 000000018002aea0     libucrt:fflush.obj
 0002:0000bec8       $unwind$??$?RV<lambda_c376a267cfb53b6959b3b692ec76b120>@@AEAV<lambda_9a32fed5bf61b6b509b2d3f6003082a1>@@V<lambda_572fbb9fa0ab338edf41edfd4b5fcc8d>@@@?$__crt_seh_guarded_call@H@@QEAAH$$QEAV<lambda_c376a267cfb53b6959b3b692ec76b120>@@AEAV<lambda_9a32fed5bf61b6b509b2d3f6003082a1>@@$$QEAV<lambda_572fbb9fa0ab338edf41edfd4b5fcc8d>@@@Z 000000018002aec8     libucrt:fflush.obj
 0002:0000beec       $unwind$setvbuf            000000018002aeec     libucrt:setvbuf.obj
 0002:0000bef4       $unwind$??$?RV<lambda_84ec643ea9557e2f7dc01bb0e9624395>@@AEAV<lambda_ca71763b3c0644891230e4f79ea54fa6>@@V<lambda_439a761618c59b0600e24586724d733b>@@@?$__crt_seh_guarded_call@H@@QEAAH$$QEAV<lambda_84ec643ea9557e2f7dc01bb0e9624395>@@AEAV<lambda_ca71763b3c0644891230e4f79ea54fa6>@@$$QEAV<lambda_439a761618c59b0600e24586724d733b>@@@Z 000000018002aef4     libucrt:setvbuf.obj
 0002:0000bf18       $unwind$__acrt_get_sigabrt_handler 000000018002af18     libucrt:signal.obj
 0002:0000bf18       $unwind$__acrt_uninitialize_locale 000000018002af18     libucrt:wsetlocale.obj
 0002:0000bf20       $unwind$raise              000000018002af20     libucrt:signal.obj
 0002:0000bf5c       $unwind$??$?RV<lambda_450d765d439847d4c735a33c368b5fc0>@@AEAV<lambda_44731a7d0e6d81c3e6aa82d741081786>@@V<lambda_601a2a7da3b7a96e9554ac7215c4b07c>@@@?$__crt_seh_guarded_call@P6AXH@Z@@QEAAP6AXH@Z$$QEAV<lambda_450d765d439847d4c735a33c368b5fc0>@@AEAV<lambda_44731a7d0e6d81c3e6aa82d741081786>@@$$QEAV<lambda_601a2a7da3b7a96e9554ac7215c4b07c>@@@Z 000000018002af5c     libucrt:signal.obj
 0002:0000bf80       $unwind$?construct_ptd_array@@YAXQEAU__acrt_ptd@@@Z 000000018002af80     libucrt:per_thread_data.obj
 0002:0000bf88       $unwind$?destroy_ptd_array@@YAXQEAU__acrt_ptd@@@Z 000000018002af88     libucrt:per_thread_data.obj
 0002:0000bf90       $unwind$??$?RV<lambda_0ae27a3a962d80f24befdcbee591983d>@@AEAV<lambda_8d0ee55de4b1038c4002e0adecdf1839>@@V<lambda_dc504788e8f1664fe9b84e20bfb512f2>@@@?$__crt_seh_guarded_call@X@@QEAAX$$QEAV<lambda_0ae27a3a962d80f24befdcbee591983d>@@AEAV<lambda_8d0ee55de4b1038c4002e0adecdf1839>@@$$QEAV<lambda_dc504788e8f1664fe9b84e20bfb512f2>@@@Z 000000018002af90     libucrt:per_thread_data.obj
 0002:0000bfb4       $unwind$??$?RV<lambda_aa87e3671a710a21b5dc78c0bdf72e11>@@AEAV<lambda_92619d2358a28f41a33ba319515a20b9>@@V<lambda_6992ecaafeb10aed2b74cb1fae11a551>@@@?$__crt_seh_guarded_call@X@@QEAAX$$QEAV<lambda_aa87e3671a710a21b5dc78c0bdf72e11>@@AEAV<lambda_92619d2358a28f41a33ba319515a20b9>@@$$QEAV<lambda_6992ecaafeb10aed2b74cb1fae11a551>@@@Z 000000018002afb4     libucrt:per_thread_data.obj
 0002:0000bfd8       $unwind$??$?RV<lambda_f2e299630e499de9f9a165e60fcd3db5>@@AEAV<lambda_2ae9d31cdba2644fcbeaf08da7c24588>@@V<lambda_40d01ff24d0e7b3814fdbdcee8eab3c7>@@@?$__crt_seh_guarded_call@X@@QEAAX$$QEAV<lambda_f2e299630e499de9f9a165e60fcd3db5>@@AEAV<lambda_2ae9d31cdba2644fcbeaf08da7c24588>@@$$QEAV<lambda_40d01ff24d0e7b3814fdbdcee8eab3c7>@@@Z 000000018002afd8     libucrt:per_thread_data.obj
 0002:0000bffc       $unwind$??$?RV<lambda_2d41944a1d46af3157314b8a01080d33>@@AEAV<lambda_8f455de75cd7d7f24b4096f044d8b9e6>@@V<lambda_aa500f224e6afead328df44964fe2772>@@@?$__crt_seh_guarded_call@X@@QEAAX$$QEAV<lambda_2d41944a1d46af3157314b8a01080d33>@@AEAV<lambda_8f455de75cd7d7f24b4096f044d8b9e6>@@$$QEAV<lambda_aa500f224e6afead328df44964fe2772>@@@Z 000000018002affc     libucrt:per_thread_data.obj
 0002:0000c020       $unwind$_tolower_l         000000018002b020     libucrt:tolower_toupper.obj
 0002:0000c030       $unwind$__acrt_LCMapStringEx 000000018002b030     libucrt:winapi_thunks.obj
 0002:0000c030       $unwind$_mbtowc_l          000000018002b030     libucrt:mbtowc.obj
 0002:0000c030       $unwind$?fp_format_e@@YAHQEBNQEAD_K12H_NIQEAU__crt_locale_pointers@@@Z 000000018002b030     libucrt:cvt.obj
 0002:0000c044       $unwind$_wctomb_s_l        000000018002b044     libucrt:wctomb.obj
 0002:0000c054       $unwind$__acrt_fp_format   000000018002b054     libucrt:cvt.obj
 0002:0000c068       $unwind$?fp_format_nan_or_infinity@@YAHW4__acrt_fp_class@@_NPEAD_K1@Z 000000018002b068     libucrt:cvt.obj
 0002:0000c07c       $unwind$?fp_format_e_internal@@YAHQEAD_KH_NIQEAU_strflt@@2QEAU__crt_locale_pointers@@@Z 000000018002b07c     libucrt:cvt.obj
 0002:0000c094       $unwind$?fp_format_a@@YAHQEBNPEAD_KQEAD2H_NIQEAU__crt_locale_pointers@@@Z 000000018002b094     libucrt:cvt.obj
 0002:0000c0b0       $unwind$__dcrt_get_narrow_environment_from_os 000000018002b0b0     libucrt:get_environment_from_os.obj
 0002:0000c0b0       $unwind$?fp_format_f_internal@@YAHQEAD_KHQEAU_strflt@@_NQEAU__crt_locale_pointers@@@Z 000000018002b0b0     libucrt:cvt.obj
 0002:0000c0c8       $unwind$?fp_format_g@@YAHQEBNQEAD_K12H_NIQEAU__crt_locale_pointers@@@Z 000000018002b0c8     libucrt:cvt.obj
 0002:0000c0dc       $unwind$_fputwc_nolock     000000018002b0dc     libucrt:fputwc.obj
 0002:0000c0f8       $unwind$??$?RV<lambda_410d79af7f07d98d83a3f525b3859a53>@@AEAV<lambda_3e16ef9562a7dcce91392c22ab16ea36>@@V<lambda_38119f0e861e05405d8a144b9b982f0a>@@@?$__crt_seh_guarded_call@X@@QEAAX$$QEAV<lambda_410d79af7f07d98d83a3f525b3859a53>@@AEAV<lambda_3e16ef9562a7dcce91392c22ab16ea36>@@$$QEAV<lambda_38119f0e861e05405d8a144b9b982f0a>@@@Z 000000018002b0f8     libucrt:wsetlocale.obj
 0002:0000c120       $unwind$__acrt_initialize_lowio 000000018002b120     libucrt:ioinit.obj
 0002:0000c140       $unwind$?initialize_inherited_file_handles_nolock@@YAXXZ 000000018002b140     libucrt:ioinit.obj
 0002:0000c15c       $unwind$??$common_expand_argv_wildcards@D@@YAHQEAPEADQEAPEAPEAD@Z 000000018002b15c     libucrt:argv_wildcards.obj
 0002:0000c174       $unwind$??$copy_and_add_argument_to_buffer@D@@YAHQEBD0_KAEAV?$argument_list@D@?A0x5f5c8891@@@Z 000000018002b174     libucrt:argv_wildcards.obj
 0002:0000c190       $unwind$??$expand_argument_wildcards@D@@YAHQEAD0AEAV?$argument_list@D@?A0x5f5c8891@@@Z 000000018002b190     libucrt:argv_wildcards.obj
 0002:0000c1b0       $unwind$_setmbcp_nolock    000000018002b1b0     libucrt:mbctype.obj
 0002:0000c1d0       $unwind$?update_thread_multibyte_data_internal@@YAPEAU__crt_multibyte_data@@QEAU__acrt_ptd@@QEAPEAU1@@Z 000000018002b1d0     libucrt:mbctype.obj
 0002:0000c1f8       $unwind$?setmbcp_internal@@YAHH_NQEAU__acrt_ptd@@QEAPEAU__crt_multibyte_data@@@Z 000000018002b1f8     libucrt:mbctype.obj
 0002:0000c208       $unwind$?setSBUpLow@@YAXPEAU__crt_multibyte_data@@@Z 000000018002b208     libucrt:mbctype.obj
 0002:0000c224       $unwind$??$?RV<lambda_efdfa57d1f175319df784efa44bb7b81>@@AEAV<lambda_5f0a4c1567f8adc6734073e5d1e1b35c>@@V<lambda_2e8a7d3640ea6ccb4c2413664c2db6fd>@@@?$__crt_seh_guarded_call@X@@QEAAX$$QEAV<lambda_efdfa57d1f175319df784efa44bb7b81>@@AEAV<lambda_5f0a4c1567f8adc6734073e5d1e1b35c>@@$$QEAV<lambda_2e8a7d3640ea6ccb4c2413664c2db6fd>@@@Z 000000018002b224     libucrt:mbctype.obj
 0002:0000c248       $unwind$__GSHandlerCheckCommon 000000018002b248     LIBCMT:_gshandler_.obj
 0002:0000c248       $unwind$__acrt_WideCharToMultiByte 000000018002b248     libucrt:widechartomultibyte.obj
 0002:0000c250       $unwind$__acrt_is_interactive 000000018002b250     libucrt:winapi_thunks.obj
 0002:0000c264       $unwind$iswctype           000000018002b264     libucrt:iswctype.obj
 0002:0000c270       $unwind$_isctype_l         000000018002b270     libucrt:isctype.obj
 0002:0000c288       $unwind$?_mbstowcs_l_helper@@YA_KPEA_WPEBD_KPEAU__crt_locale_pointers@@@Z 000000018002b288     libucrt:mbstowcs.obj
 0002:0000c2a0       $unwind$_fcloseall         000000018002b2a0     libucrt:closeall.obj
 0002:0000c2c4       $unwind$_close             000000018002b2c4     libucrt:close.obj
 0002:0000c2c4       $unwind$_commit            000000018002b2c4     libucrt:commit.obj
 0002:0000c2cc       $unwind$??$?RV<lambda_a37b2b86f63e897a80ea819b0eb08c01>@@AEAV<lambda_38ce7e780aa69e748d6df282ebc68efe>@@V<lambda_99fb1378e971ab6e7edea83e3a7a83a2>@@@?$__crt_seh_guarded_call@H@@QEAAH$$QEAV<lambda_a37b2b86f63e897a80ea819b0eb08c01>@@AEAV<lambda_38ce7e780aa69e748d6df282ebc68efe>@@$$QEAV<lambda_99fb1378e971ab6e7edea83e3a7a83a2>@@@Z 000000018002b2cc     libucrt:commit.obj
 0002:0000c2f0       $unwind$_write             000000018002b2f0     libucrt:write.obj
 0002:0000c320       $unwind$_write_nolock      000000018002b320     libucrt:write.obj
 0002:0000c338       $unwind$?write_double_translated_ansi_nolock@@YA?AUwrite_result@?A0x17268360@@HQEBDI@Z 000000018002b338     libucrt:write.obj
 0002:0000c358       $unwind$?write_text_utf16le_nolock@@YA?AUwrite_result@?A0x17268360@@HQEBDI@Z 000000018002b358     libucrt:write.obj
 0002:0000c358       $unwind$?write_text_ansi_nolock@@YA?AUwrite_result@?A0x17268360@@HQEBDI@Z 000000018002b358     libucrt:write.obj
 0002:0000c378       $unwind$?write_text_utf8_nolock@@YA?AUwrite_result@?A0x17268360@@HQEBDI@Z 000000018002b378     libucrt:write.obj
 0002:0000c39c       $unwind$__acrt_update_thread_locale_data 000000018002b39c     libucrt:locale_refcounting.obj
 0002:0000c3c0       $unwind$__acrt_LCMapStringA 000000018002b3c0     libucrt:lcmapstringa.obj
 0002:0000c3d0       $unwind$?__acrt_LCMapStringA_stat@@YAHPEAU__crt_locale_pointers@@PEB_WKPEBDHPEADHHH@Z 000000018002b3d0     libucrt:lcmapstringa.obj
 0002:0000c3f8       $unwind$?__mbsrtowcs_utf8@__crt_mbstring@@YA_KPEA_WPEAPEBD_KPEAU_Mbstatet@@@Z 000000018002b3f8     libucrt:mbrtowc.obj
 0002:0000c410       $unwind$__acrt_fltout      000000018002b410     libucrt:cfout.obj
 0002:0000c430       $unwind$?divide@__crt_strtox@@YA_KAEAUbig_integer@1@AEBU21@@Z 000000018002b430     libucrt:cfout.obj
 0002:0000c43c       $chain$0$?divide@__crt_strtox@@YA_KAEAUbig_integer@1@AEBU21@@Z 000000018002b43c     libucrt:cfout.obj
 0002:0000c450       $chain$6$?divide@__crt_strtox@@YA_KAEAUbig_integer@1@AEBU21@@Z 000000018002b450     libucrt:cfout.obj
 0002:0000c474       $chain$7$?divide@__crt_strtox@@YA_KAEAUbig_integer@1@AEBU21@@Z 000000018002b474     libucrt:cfout.obj
 0002:0000c488       $chain$8$?divide@__crt_strtox@@YA_KAEAUbig_integer@1@AEBU21@@Z 000000018002b488     libucrt:cfout.obj
 0002:0000c498       $unwind$??$write_buffer_nolock@D@@YA_NDV__crt_stdio_stream@@@Z 000000018002b498     libucrt:_flsbuf.obj
 0002:0000c4a8       $unwind$??$write_buffer_nolock@_W@@YA_N_WV__crt_stdio_stream@@@Z 000000018002b4a8     libucrt:_flsbuf.obj
 0002:0000c4b8       $unwind$__acrt_locale_free_monetary 000000018002b4b8     libucrt:initmon.obj
 0002:0000c4c0       $unwind$__acrt_locale_free_time 000000018002b4c0     libucrt:inittime.obj
 0002:0000c4d0       $unwind$__acrt_GetStringTypeA 000000018002b4d0     libucrt:getstringtypea.obj
 0002:0000c4f8       $unwind$__acrt_lowio_destroy_handle_array 000000018002b4f8     libucrt:osfinfo.obj
 0002:0000c508       $unwind$__acrt_lowio_ensure_fh_exists 000000018002b508     libucrt:osfinfo.obj
 0002:0000c534       $unwind$qsort              000000018002b534     libucrt:qsort.obj
 0002:0000c54c       $chain$4$qsort             000000018002b54c     libucrt:qsort.obj
 0002:0000c570       $chain$5$qsort             000000018002b570     libucrt:qsort.obj
 0002:0000c580       $unwind$fallbackMethod     000000018002b580     libucrt:strpbrk.obj
 0002:0000c590       $unwind$__acrt_FindFirstFileExA 000000018002b590     libucrt:findfirstfileexa.obj
 0002:0000c5a0       $unwind$??$__acrt_convert_wcs_mbs@D_W$$A6A_KPEA_WPEBD_KPEAU__crt_locale_pointers@@@ZU__crt_win32_buffer_internal_dynamic_resizing@@@@YAHQEBDAEAV?$__crt_win32_buffer@_WU__crt_win32_buffer_internal_dynamic_resizing@@@@A6A_KPEA_WPEBD_KPEAU__crt_locale_pointers@@@Z5@Z 000000018002b5a0     libucrt:findfirstfileexa.obj
 0002:0000c5b8       $unwind$__acrt_FindNextFileA 000000018002b5b8     libucrt:findnextfilea.obj
 0002:0000c5d4       $unwind$_mbsdec_l          000000018002b5d4     libucrt:mbsdec.obj
 0002:0000c5e0       $unwind$?GetTableIndexFromLocaleName@@YAHPEB_W@Z 000000018002b5e0     libucrt:lcidtoname_downlevel.obj
 0002:0000c5f8       $unwind$fclose             000000018002b5f8     libucrt:fclose.obj
 0002:0000c61c       $unwind$??$common_lseek@_J@@YA_JH_JH@Z 000000018002b61c     libucrt:lseek.obj
 0002:0000c64c       $unwind$_putwch_nolock     000000018002b64c     libucrt:putwch.obj
 0002:0000c654       $unwind$?__mbrtoc32_utf8@__crt_mbstring@@YA_KPEA_UPEBD_KPEAU_Mbstatet@@@Z 000000018002b654     libucrt:mbrtoc32.obj
 0002:0000c670       $xdatasym                  000000018002b670     libucrt:log10.obj
 0002:0000c67c       $unwind$?_wcstombs_l_helper@@YA_KPEADPEB_W_KPEAU__crt_locale_pointers@@@Z 000000018002b67c     libucrt:wcstombs.obj
 0002:0000c6a0       $stateUnwindMap$?_wcstombs_l_helper@@YA_KPEADPEB_W_KPEAU__crt_locale_pointers@@@Z 000000018002b6a0     libucrt:wcstombs.obj
 0002:0000c6a8       $ip2state$?_wcstombs_l_helper@@YA_KPEADPEB_W_KPEAU__crt_locale_pointers@@@Z 000000018002b6a8     libucrt:wcstombs.obj
 0002:0000c6c0       $unwind$??$?RV<lambda_751a882b2c74d4b022dec766aa51a29a>@@AEAV<lambda_628dfdc04ba53c8bfc02c9951375f3f5>@@V<lambda_f6c7be5f7998530c34de24c7437d6b54>@@@?$__crt_seh_guarded_call@H@@QEAAH$$QEAV<lambda_751a882b2c74d4b022dec766aa51a29a>@@AEAV<lambda_628dfdc04ba53c8bfc02c9951375f3f5>@@$$QEAV<lambda_f6c7be5f7998530c34de24c7437d6b54>@@@Z 000000018002b6c0     libucrt:close.obj
 0002:0000c6e4       $unwind$__acrt_fenv_set_control 000000018002b6e4     libucrt:_fenvutils.obj
 0002:0000c6f4       $unwind$_call_matherr      000000018002b6f4     libucrt:libm_error.obj
 0002:0000c6fc       $unwind$_handle_error      000000018002b6fc     libucrt:libm_error.obj
 0002:0000c71c       $unwind$__acrt_initialize_fma3 000000018002b71c     libucrt:fma3_available.obj
 0002:0000c724       $unwind$_log_special_common 000000018002b724     libucrt:log_special.obj
 0002:0000c730       $unwind$?__wcsrtombs_utf8@__crt_mbstring@@YA_KPEADPEAPEB_W_KPEAU_Mbstatet@@@Z 000000018002b730     libucrt:wcrtomb.obj
 0002:0000c750       $xdatasym                  000000018002b750     libucrt:fpsr.obj
 0002:0000c758       $unwind$_raise_exc_ex      000000018002b758     libucrt:fpexcept.obj
 0002:0000c76c       $unwind$_ctrlfp            000000018002b76c     libucrt:fpctrl.obj
 0002:0000c794       $unwind$?DloadObtainSection@@YAPEAXPEAK0@Z 000000018002b794     DelayImp:delayhlp.obj
 0002:0000c7a4       $unwind$?DloadMakePermanentImageCommit@@YAXPEAX_K@Z 000000018002b7a4     DelayImp:delayhlp.obj
 0002:0000c7b0       $unwind$?DloadProtectSection@@YAXKPEAK@Z 000000018002b7b0     DelayImp:delayhlp.obj
 0002:0000c7c0       $unwind$__delayLoadHelper2 000000018002b7c0     DelayImp:delayhlp.obj
 0002:0000c7d8       $unwind$_IsNonwritableInCurrentImage 000000018002b7d8     LIBCMT:pesect.obj
 0002:0000c800       $xdatasym                  000000018002b800     LIBCMT:_chkstk_.obj
 0002:0000c808       $unwind$strrchr            000000018002b808     libvcruntime:strrchr.obj
 0002:0000c810       $xdatasym                  000000018002b810     libvcruntime:memcmp.obj
 0002:0000dea0       .edata                     000000018002cea0     serialport.exp
 0002:0000dec8       rgpv                       000000018002cec8     serialport.exp
 0002:0000decc       rgszName                   000000018002cecc     serialport.exp
 0002:0000ded0       rgwOrd                     000000018002ced0     serialport.exp
 0002:0000ded2       szName                     000000018002ced2     serialport.exp
 0002:0000dee2       $N00001                    000000018002cee2     serialport.exp
 0002:0000e420       .idata$6                   000000018002d420     kernel32:KERNEL32.dll
 0002:0000e450       .idata$6                   000000018002d450     advapi32:ADVAPI32.dll
 0002:0000e508       .idata$6                   000000018002d508     setupapi:SETUPAPI.dll
 0003:00000030       ?__vcrt_flsindex@@3KA      000000018002e030     libvcruntime:per_thread_data.obj
 0003:00000050       ?errno_no_memory@@3HA      000000018002e050     libucrt:errno.obj
 0003:00000054       ?doserrno_no_memory@@3KA   000000018002e054     libucrt:errno.obj
 0003:00000168       ?__acrt_flsindex@@3KA      000000018002e168     libucrt:per_thread_data.obj
 0003:00000320       ?__rgctypeflag@@3PADA      000000018002e320     libucrt:mbctype.obj
 0003:00000330       ?__rgcode_page_info@@3PAUcode_page_info@@A 000000018002e330     libucrt:mbctype.obj
 0003:00000650       _mbctypes                  000000018002e650     libucrt:mbctype.obj
 0003:00000760       _mbcasemaps                000000018002e760     libucrt:mbctype.obj
 0003:00000910       ?__dcrt_lowio_console_output_handle@@3PEAXEA 000000018002e910     libucrt:initcon.obj
 0003:00000920       ?dazSupported@?1??_ctrlfp@@9@9 000000018002e920     libucrt:fpctrl.obj
 0003:00000940       _module                    000000018002e940     serialport.obj
 0003:00000cc0       GS_ExceptionRecord         000000018002ecc0     LIBCMT:gs_report.obj
 0003:00000d60       GS_ContextRecord           000000018002ed60     LIBCMT:gs_report.obj
 0003:00001240       ?is_initialized_as_dll@@3_NA 000000018002f240     LIBCMT:utility.obj
 0003:00001241       ?module_local_atexit_table_initialized@@3_NA 000000018002f241     LIBCMT:utility.obj
 0003:00001248       ?module_local_atexit_table@@3U_onexit_table_t@@A 000000018002f248     LIBCMT:utility.obj
 0003:00001260       ?module_local_at_quick_exit_table@@3U_onexit_table_t@@A 000000018002f260     LIBCMT:utility.obj
 0003:00001278       ?__proc_attached@@3HA      000000018002f278     LIBCMT:dll_dllmain.obj
 0003:000012b0       ?__vcrt_startup_thread_ptd@@3U__vcrt_ptd@@A 000000018002f2b0     libvcruntime:per_thread_data.obj
 0003:00001340       __vcrt_lock_table          000000018002f340     libvcruntime:locks.obj
 0003:00001368       __vcrt_locks_initialized   000000018002f368     libvcruntime:locks.obj
 0003:00001370       ?module_handles@@3PAPEAUHINSTANCE__@@A 000000018002f370     libvcruntime:winapi_downlevel.obj
 0003:00001388       ?encoded_function_pointers@@3PAPEAXA 000000018002f388     libvcruntime:winapi_downlevel.obj
 0003:00001400       ?heap@@3V_HeapManager@@A   000000018002f400     libvcruntime:undname.obj
 0003:00001428       ?__acrt_invalid_parameter_handler@@3V?$dual_state_global@P6AXPEB_W00I_K@Z@__crt_state_management@@A 000000018002f428     libucrt:invalid_parameter.obj
 0003:00001430       ?__acrt_new_handler@@3V?$dual_state_global@P6AH_K@Z@__crt_state_management@@A 000000018002f430     libucrt:new_handler.obj
 0003:00001438       ?c_termination_complete@@3JA 000000018002f438     libucrt:exit.obj
 0003:00001440       ?thread_local_exit_callback_func@@3P6AXPEAXK0@ZEA 000000018002f440     libucrt:exit.obj
 0003:00001450       ?program_name@?1???$common_configure_argv@D@@YAHW4_crt_argv_mode@@@Z@4PADA 000000018002f450     libucrt:argv_parsing.obj
 0003:000015a8       ?__acrt_app_type@@3W4_crt_app_type@@A 000000018002f5a8     libucrt:report_runtime_error.obj
 0003:000015ac       __acrt_error_mode          000000018002f5ac     libucrt:set_error_mode.obj
 0003:000015c8       ?ctrlc_action@@3V?$dual_state_global@P6AXH@Z@__crt_state_management@@A 000000018002f5c8     libucrt:signal.obj
 0003:000015d0       ?ctrlbreak_action@@3V?$dual_state_global@P6AXH@Z@__crt_state_management@@A 000000018002f5d0     libucrt:signal.obj
 0003:000015d8       ?abort_action@@3V?$dual_state_global@P6AXH@Z@__crt_state_management@@A 000000018002f5d8     libucrt:signal.obj
 0003:000015e0       ?term_action@@3V?$dual_state_global@P6AXH@Z@__crt_state_management@@A 000000018002f5e0     libucrt:signal.obj
 0003:000015e8       ?internal_state@?1??_mbtowc_l@@9@4U_Mbstatet@@A 000000018002f5e8     libucrt:mbtowc.obj
 0003:000015f0       ?enable_percent_n@@3_KA    000000018002f5f0     libucrt:printf_count_output.obj
 0003:00001a30       ?__acrt_lock_table@@3PAU_RTL_CRITICAL_SECTION@@A 000000018002fa30     libucrt:locks.obj
 0003:00001c60       ?__acrt_locks_initialized@@3IA 000000018002fc60     libucrt:locks.obj
 0003:00001c64       ?state_cache@?1???$get_cached_win_policy@Udeveloper_information_policy_properties@?1??__acrt_get_developer_information_policy@@YA?AW4developer_information_policy@@XZ@@@YA?AW4developer_information_policy@@W4AppPolicyShowDeveloperDiagnostic@@@Z@4JA 000000018002fc64     libucrt:win_policies.obj
 0003:00001c68       ?state_cache@?1???$get_cached_win_policy@Uwindowing_model_policy_properties@?1??__acrt_get_windowing_model_policy@@YA?AW4windowing_model_policy@@XZ@@@YA?AW4windowing_model_policy@@W4AppPolicyWindowingModel@@@Z@4JA 000000018002fc68     libucrt:win_policies.obj
 0003:00001c88       ?fSystemSet@@3HA           000000018002fc88     libucrt:mbctype.obj
 0003:00001c8c       ?initialized@?1??__acrt_initialize_multibyte@@9@4_NA 000000018002fc8c     libucrt:mbctype.obj
 0003:00001cc0       ?module_handles@@3PAPEAUHINSTANCE__@@A 000000018002fcc0     libucrt:winapi_thunks.obj
 0003:00001d60       ?encoded_function_pointers@@3PAPEAXA 000000018002fd60     libucrt:winapi_thunks.obj
 0003:00001e78       ?user_matherr@@3V?$dual_state_global@P6AHPEAU_exception@@@Z@__crt_state_management@@A 000000018002fe78     libucrt:matherr.obj
 0003:00001e80       ?__acrt_global_new_mode@@3V?$dual_state_global@J@__crt_state_management@@A 000000018002fe80     libucrt:new_mode.obj
 0003:00001e90       ?internal_pst@?1??__mbrtoc32_utf8@__crt_mbstring@@YA_KPEA_UPEBD_KPEAU_Mbstatet@@@Z@4U3@A 000000018002fe90     libucrt:mbrtoc32.obj
 0003:00001ea0       ?internal_pst@?1??__c16rtomb_utf8@__crt_mbstring@@YA_KPEAD_SPEAU_Mbstatet@@@Z@4U3@A 000000018002fea0     libucrt:c16rtomb.obj
 0004:00000000       $pdata$??__Eg_closingHandles@@YAXXZ 0000000180030000     serialport_win.obj
 0004:0000000c       $pdata$?FunctionCallbackWrapper@imp@Nan@@YAXAEBV?$FunctionCallbackInfo@VValue@v8@@@v8@@@Z 000000018003000c     serialport.obj
 0004:00000018       $pdata$??1AsyncResource@Nan@@QEAA@XZ 0000000180030018     serialport.obj
 0004:00000024       $pdata$??1EscapableHandleScope@Nan@@QEAA@XZ 0000000180030024     serialport.obj
 0004:00000030       $pdata$??1HandleScope@Nan@@QEAA@XZ 0000000180030030     serialport.obj
 0004:0000003c       $pdata$?ThrowTypeError@Nan@@YAXPEBD@Z 000000018003003c     serialport.obj
 0004:00000048       $pdata$??1Utf8String@Nan@@QEAA@XZ 0000000180030048     serialport.obj
 0004:00000054       $pdata$??1Callback@Nan@@QEAA@XZ 0000000180030054     serialport.obj
 0004:00000060       $pdata$?Call@Callback@Nan@@QEBA?AV?$Local@VValue@v8@@@v8@@HQEAV34@@Z 0000000180030060     serialport.obj
 0004:0000006c       $pdata$??1?$Persistent@VFunction@v8@@V?$NonCopyablePersistentTraits@VFunction@v8@@@2@@Nan@@QEAA@XZ 000000018003006c     serialport.obj
 0004:0000006c       $pdata$??1?$Persistent@VObject@v8@@V?$NonCopyablePersistentTraits@VObject@v8@@@2@@Nan@@QEAA@XZ 000000018003006c     serialport_win.obj
 0004:00000078       $pdata$?getValueFromObject@@YA?AV?$Local@VValue@v8@@@v8@@V?$Local@VObject@v8@@@2@V?$basic_string@DU?$char_traits@D@std@@V?$allocator@D@2@@std@@@Z 0000000180030078     serialport.obj
 0004:00000084       $pdata$?getIntFromObject@@YAHV?$Local@VObject@v8@@@v8@@V?$basic_string@DU?$char_traits@D@std@@V?$allocator@D@2@@std@@@Z 0000000180030084     serialport.obj
 0004:00000090       $pdata$?getBoolFromObject@@YA_NV?$Local@VObject@v8@@@v8@@V?$basic_string@DU?$char_traits@D@std@@V?$allocator@D@2@@std@@@Z 0000000180030090     serialport.obj
 0004:0000009c       $pdata$?Open@@YAXAEBV?$FunctionCallbackInfo@VValue@v8@@@Nan@@@Z 000000018003009c     serialport.obj
 0004:000000a8       $pdata$?EIO_AfterOpen@@YAXPEAUuv_work_s@@@Z 00000001800300a8     serialport.obj
 0004:000000b4       $pdata$?Update@@YAXAEBV?$FunctionCallbackInfo@VValue@v8@@@Nan@@@Z 00000001800300b4     serialport.obj
 0004:000000c0       $pdata$?EIO_AfterUpdate@@YAXPEAUuv_work_s@@@Z 00000001800300c0     serialport.obj
 0004:000000cc       $pdata$?Close@@YAXAEBV?$FunctionCallbackInfo@VValue@v8@@@Nan@@@Z 00000001800300cc     serialport.obj
 0004:000000d8       $pdata$?EIO_AfterDrain@@YAXPEAUuv_work_s@@@Z 00000001800300d8     serialport.obj
 0004:000000d8       $pdata$?EIO_AfterFlush@@YAXPEAUuv_work_s@@@Z 00000001800300d8     serialport.obj
 0004:000000d8       $pdata$?EIO_AfterClose@@YAXPEAUuv_work_s@@@Z 00000001800300d8     serialport.obj
 0004:000000e4       $pdata$?Flush@@YAXAEBV?$FunctionCallbackInfo@VValue@v8@@@Nan@@@Z 00000001800300e4     serialport.obj
 0004:000000f0       $pdata$?Set@@YAXAEBV?$FunctionCallbackInfo@VValue@v8@@@Nan@@@Z 00000001800300f0     serialport.obj
 0004:000000fc       $pdata$?EIO_AfterSet@@YAXPEAUuv_work_s@@@Z 00000001800300fc     serialport.obj
 0004:00000108       $pdata$?Get@@YAXAEBV?$FunctionCallbackInfo@VValue@v8@@@Nan@@@Z 0000000180030108     serialport.obj
 0004:00000114       $pdata$?EIO_AfterGet@@YAXPEAUuv_work_s@@@Z 0000000180030114     serialport.obj
 0004:00000120       $pdata$?Drain@@YAXAEBV?$FunctionCallbackInfo@VValue@v8@@@Nan@@@Z 0000000180030120     serialport.obj
 0004:0000012c       $pdata$?ToParityEnum@@YA?AW4SerialPortParity@@AEBV?$Local@VString@v8@@@v8@@@Z 000000018003012c     serialport.obj
 0004:00000138       $pdata$init                0000000180030138     serialport.obj
 0004:00000144       $pdata$??1?$Persistent@VFunction@v8@@V?$NonCopyablePersistentTraits@VFunction@v8@@@2@@v8@@QEAA@XZ 0000000180030144     serialport.obj
 0004:00000144       $pdata$??1?$Persistent@VObject@v8@@V?$NonCopyablePersistentTraits@VObject@v8@@@2@@v8@@QEAA@XZ 0000000180030144     serialport_win.obj
 0004:00000150       $pdata$??1?$basic_string@DU?$char_traits@D@std@@V?$allocator@D@2@@std@@QEAA@XZ 0000000180030150     serialport.obj
 0004:0000015c       $pdata$??0?$basic_string@DU?$char_traits@D@std@@V?$allocator@D@2@@std@@QEAA@AEBV01@@Z 000000018003015c     serialport.obj
 0004:00000168       $pdata$?assign@?$basic_string@DU?$char_traits@D@std@@V?$allocator@D@2@@std@@QEAAAEAV12@QEBD@Z 0000000180030168     serialport.obj
 0004:00000174       $pdata$??$New@VString@v8@@V?$basic_string@DU?$char_traits@D@std@@V?$allocator@D@2@@std@@@Nan@@YA?AV?$MaybeLocal@VString@v8@@@v8@@V?$basic_string@DU?$char_traits@D@std@@V?$allocator@D@2@@std@@@Z 0000000180030174     serialport.obj
 0004:00000180       $pdata$??$New@VFunctionTemplate@v8@@@Nan@@YA?AV?$Local@VFunctionTemplate@v8@@@v8@@P6AXAEBV?$FunctionCallbackInfo@VValue@v8@@@0@@ZV?$Local@VValue@v8@@@2@@Z 0000000180030180     serialport.obj
 0004:0000018c       $pdata$??$SetMethod@VObject@v8@@VLocal@2@@Nan@@YAXV?$Local@VObject@v8@@@v8@@PEBDP6AXAEBV?$FunctionCallbackInfo@VValue@v8@@@0@@Z@Z 000000018003018c     serialport.obj
 0004:00000198       $pdata$?_Xlen@?$basic_string@DU?$char_traits@D@std@@V?$allocator@D@2@@std@@SAXXZ 0000000180030198     serialport.obj
 0004:000001a4       $pdata$??$SetMethodAux@V?$Local@VObject@v8@@@v8@@@imp@Nan@@YAXV?$Local@VObject@v8@@@v8@@V?$Local@VString@v8@@@3@V?$Local@VFunctionTemplate@v8@@@3@ZZ 00000001800301a4     serialport.obj
 0004:000001b0       $pdata$_snprintf_s         00000001800301b0     serialport_win.obj
 0004:000001bc       $pdata$?ErrorCodeToString@@YAXPEBDHPEAD@Z 00000001800301bc     serialport_win.obj
 0004:000001c8       $pdata$?EIO_Open@@YAXPEAUuv_work_s@@@Z 00000001800301c8     serialport_win.obj
 0004:000001d4       $pdata$?EIO_Update@@YAXPEAUuv_work_s@@@Z 00000001800301d4     serialport_win.obj
 0004:000001e0       $pdata$?EIO_Set@@YAXPEAUuv_work_s@@@Z 00000001800301e0     serialport_win.obj
 0004:000001ec       $pdata$?EIO_Get@@YAXPEAUuv_work_s@@@Z 00000001800301ec     serialport_win.obj
 0004:000001f8       $pdata$?Write@@YAXAEBV?$FunctionCallbackInfo@VValue@v8@@@Nan@@@Z 00000001800301f8     serialport_win.obj
 0004:00000204       $pdata$?WriteIOCompletion@@YAXKKPEAU_OVERLAPPED@@@Z 0000000180030204     serialport_win.obj
 0004:00000210       $pdata$?WriteThread@@YAKPEAX@Z 0000000180030210     serialport_win.obj
 0004:0000021c       $pdata$1$?WriteThread@@YAKPEAX@Z 000000018003021c     serialport_win.obj
 0004:00000228       $pdata$2$?WriteThread@@YAKPEAX@Z 0000000180030228     serialport_win.obj
 0004:00000234       $pdata$?EIO_AfterWrite@@YAXPEAUuv_async_s@@@Z 0000000180030234     serialport_win.obj
 0004:00000240       $pdata$?Read@@YAXAEBV?$FunctionCallbackInfo@VValue@v8@@@Nan@@@Z 0000000180030240     serialport_win.obj
 0004:0000024c       $pdata$?ReadIOCompletion@@YAXKKPEAU_OVERLAPPED@@@Z 000000018003024c     serialport_win.obj
 0004:00000258       $pdata$0$?ReadIOCompletion@@YAXKKPEAU_OVERLAPPED@@@Z 0000000180030258     serialport_win.obj
 0004:00000264       $pdata$1$?ReadIOCompletion@@YAXKKPEAU_OVERLAPPED@@@Z 0000000180030264     serialport_win.obj
 0004:00000270       $pdata$?ReadThread@@YAKPEAX@Z 0000000180030270     serialport_win.obj
 0004:0000027c       $pdata$1$?ReadThread@@YAKPEAX@Z 000000018003027c     serialport_win.obj
 0004:00000288       $pdata$2$?ReadThread@@YAKPEAX@Z 0000000180030288     serialport_win.obj
 0004:00000294       $pdata$?EIO_AfterRead@@YAXPEAUuv_async_s@@@Z 0000000180030294     serialport_win.obj
 0004:000002a0       $pdata$?EIO_Close@@YAXPEAUuv_work_s@@@Z 00000001800302a0     serialport_win.obj
 0004:000002ac       $pdata$?List@@YAXAEBV?$FunctionCallbackInfo@VValue@v8@@@Nan@@@Z 00000001800302ac     serialport_win.obj
 0004:000002b8       $pdata$?EIO_List@@YAXPEAUuv_work_s@@@Z 00000001800302b8     serialport_win.obj
 0004:000002c4       $pdata$?setIfNotEmpty@@YAXV?$Local@VObject@v8@@@v8@@V?$basic_string@DU?$char_traits@D@std@@V?$allocator@D@2@@std@@PEBD@Z 00000001800302c4     serialport_win.obj
 0004:000002d0       $pdata$?EIO_AfterList@@YAXPEAUuv_work_s@@@Z 00000001800302d0     serialport_win.obj
 0004:000002dc       $pdata$??1ListResultItem@@QEAA@XZ 00000001800302dc     serialport_win.obj
 0004:000002e8       $pdata$?EIO_Flush@@YAXPEAUuv_work_s@@@Z 00000001800302e8     serialport_win.obj
 0004:000002f4       $pdata$?EIO_Drain@@YAXPEAUuv_work_s@@@Z 00000001800302f4     serialport_win.obj
 0004:00000300       $pdata$??1?$list@PEAUListResultItem@@V?$allocator@PEAUListResultItem@@@std@@@std@@QEAA@XZ 0000000180030300     serialport_win.obj
 0004:0000030c       $pdata$??1?$_List_buy@HV?$allocator@H@std@@@std@@QEAA@XZ 000000018003030c     serialport_win.obj
 0004:00000318       $pdata$??1?$_List_buy@PEAUListResultItem@@V?$allocator@PEAUListResultItem@@@std@@@std@@QEAA@XZ 0000000180030318     serialport_win.obj
 0004:00000324       $pdata$??1?$_List_alloc@U?$_List_base_types@HV?$allocator@H@std@@@std@@@std@@QEAA@XZ 0000000180030324     serialport_win.obj
 0004:00000330       $pdata$??1?$_List_alloc@U?$_List_base_types@PEAUListResultItem@@V?$allocator@PEAUListResultItem@@@std@@@std@@@std@@QEAA@XZ 0000000180030330     serialport_win.obj
 0004:0000033c       $pdata$?load_exe_hook@@YAP6A_JXZIPEAUDelayLoadInfo@@@Z 000000018003033c     win_delay_load_hook.obj
 0004:00000354       $pdata$??0bad_alloc@std@@QEAA@AEBV01@@Z 0000000180030354     libcpmt:xthrow.obj
 0004:00000360       $pdata$??0exception@std@@QEAA@AEBV01@@Z 0000000180030360     libcpmt:xthrow.obj
 0004:0000036c       $pdata$??0length_error@std@@QEAA@AEBV01@@Z 000000018003036c     libcpmt:xthrow.obj
 0004:00000378       $pdata$??0length_error@std@@QEAA@PEBD@Z 0000000180030378     libcpmt:xthrow.obj
 0004:00000384       $pdata$??0logic_error@std@@QEAA@AEBV01@@Z 0000000180030384     libcpmt:xthrow.obj
 0004:00000390       $pdata$??_Gexception@std@@UEAAPEAXI@Z 0000000180030390     libcpmt:xthrow.obj
 0004:00000390       $pdata$??_Glength_error@std@@UEAAPEAXI@Z 0000000180030390     libcpmt:xthrow.obj
 0004:00000390       $pdata$??_Gbad_exception@std@@UEAAPEAXI@Z 0000000180030390     libvcruntime:frame.obj
 0004:00000390       $pdata$??_Gbad_alloc@std@@UEAAPEAXI@Z 0000000180030390     libcpmt:xthrow.obj
 0004:00000390       $pdata$??_Glogic_error@std@@UEAAPEAXI@Z 0000000180030390     libcpmt:xthrow.obj
 0004:00000390       $pdata$??_Gbad_array_new_length@std@@UEAAPEAXI@Z 0000000180030390     LIBCMT:throw_bad_alloc.obj
 0004:0000039c       $pdata$?_Xlength_error@std@@YAXPEBD@Z 000000018003039c     libcpmt:xthrow.obj
 0004:000003b4       $pdata$??2@YAPEAX_K@Z      00000001800303b4     LIBCMT:new_scalar.obj
 0004:000003c0       $pdata$__raise_securityfailure 00000001800303c0     LIBCMT:gs_report.obj
 0004:000003cc       $pdata$__report_gsfailure  00000001800303cc     LIBCMT:gs_report.obj
 0004:000003d8       $pdata$__report_rangecheckfailure 00000001800303d8     LIBCMT:gs_report.obj
 0004:000003e4       $pdata$__report_securityfailure 00000001800303e4     LIBCMT:gs_report.obj
 0004:000003f0       $pdata$capture_current_context 00000001800303f0     LIBCMT:gs_report.obj
 0004:000003fc       $pdata$capture_previous_context 00000001800303fc     LIBCMT:gs_report.obj
 0004:00000408       $pdata$__scrt_acquire_startup_lock 0000000180030408     LIBCMT:utility.obj
 0004:00000414       $pdata$__scrt_dllmain_after_initialize_c 0000000180030414     LIBCMT:utility.obj
 0004:00000420       $pdata$__scrt_dllmain_before_initialize_c 0000000180030420     LIBCMT:utility.obj
 0004:0000042c       $pdata$__scrt_dllmain_crt_thread_attach 000000018003042c     LIBCMT:utility.obj
 0004:00000438       $pdata$__scrt_dllmain_crt_thread_detach 0000000180030438     LIBCMT:utility.obj
 0004:00000444       $pdata$__scrt_dllmain_exception_filter 0000000180030444     LIBCMT:utility.obj
 0004:00000450       $pdata$__scrt_dllmain_uninitialize_c 0000000180030450     LIBCMT:utility.obj
 0004:0000045c       $pdata$__scrt_dllmain_uninitialize_critical 000000018003045c     LIBCMT:utility.obj
 0004:00000468       $pdata$__scrt_initialize_crt 0000000180030468     LIBCMT:utility.obj
 0004:00000474       $pdata$__scrt_initialize_onexit_tables 0000000180030474     LIBCMT:utility.obj
 0004:00000480       $pdata$__scrt_is_nonwritable_in_current_image 0000000180030480     LIBCMT:utility.obj
 0004:0000048c       $pdata$__scrt_release_startup_lock 000000018003048c     LIBCMT:utility.obj
 0004:00000498       $pdata$__scrt_uninitialize_crt 0000000180030498     LIBCMT:utility.obj
 0004:000004a4       $pdata$_onexit             00000001800304a4     LIBCMT:utility.obj
 0004:000004b0       $pdata$atexit              00000001800304b0     LIBCMT:utility.obj
 0004:000004bc       $pdata$?dllmain_crt_dispatch@@YAHQEAUHINSTANCE__@@KQEAX@Z 00000001800304bc     LIBCMT:dll_dllmain.obj
 0004:000004c8       $pdata$?dllmain_crt_process_attach@@YAHQEAUHINSTANCE__@@QEAX@Z 00000001800304c8     LIBCMT:dll_dllmain.obj
 0004:000004d4       $pdata$?dllmain_crt_process_detach@@YAH_N@Z 00000001800304d4     LIBCMT:dll_dllmain.obj
 0004:000004e0       $pdata$?dllmain_dispatch@@YAHQEAUHINSTANCE__@@KQEAX@Z 00000001800304e0     LIBCMT:dll_dllmain.obj
 0004:000004ec       $pdata$_DllMainCRTStartup  00000001800304ec     LIBCMT:dll_dllmain.obj
 0004:000004f8       $pdata$??_Gtype_info@@UEAAPEAXI@Z 00000001800304f8     LIBCMT:std_type_info_static.obj
 0004:00000504       $pdata$??0bad_array_new_length@std@@QEAA@AEBV01@@Z 0000000180030504     LIBCMT:throw_bad_alloc.obj
 0004:00000510       $pdata$?__scrt_throw_std_bad_alloc@@YAXXZ 0000000180030510     LIBCMT:throw_bad_alloc.obj
 0004:0000051c       $pdata$?__scrt_throw_std_bad_array_new_length@@YAXXZ 000000018003051c     LIBCMT:throw_bad_alloc.obj
 0004:00000528       $pdata$__isa_available_init 0000000180030528     LIBCMT:_cpu_disp_.obj
 0004:00000534       $pdata$__scrt_fastfail     0000000180030534     LIBCMT:utility_desktop.obj
 0004:00000540       $pdata$__security_init_cookie 0000000180030540     LIBCMT:gs_support.obj
 0004:0000054c       $pdata$__scrt_initialize_default_local_stdio_options 000000018003054c     LIBCMT:default_local_stdio_options.obj
 0004:00000558       $pdata$_RTC_Initialize     0000000180030558     LIBCMT:_initsect_.obj
 0004:00000564       $pdata$_RTC_Terminate      0000000180030564     LIBCMT:_initsect_.obj
 0004:00000570       $pdata$??$_CallSETranslator@V__FrameHandler3@@@@YAHPEAUEHExceptionRecord@@PEA_KPEAU_CONTEXT@@PEAU_xDISPATCHER_CONTEXT@@PEBU_s_FuncInfo@@K1@Z 0000000180030570     libvcruntime:risctrnsctrl.obj
 0004:0000057c       $pdata$?CatchTryBlock@__FrameHandler3@@SAPEBU_s_TryBlockMapEntry@@PEBU_s_FuncInfo@@H@Z 000000018003057c     libvcruntime:risctrnsctrl.obj
 0004:00000588       $pdata$?ExecutionInCatch@__FrameHandler3@@SA_NPEAU_xDISPATCHER_CONTEXT@@PEBU_s_FuncInfo@@@Z 0000000180030588     libvcruntime:risctrnsctrl.obj
 0004:00000594       $pdata$?FrameUnwindToEmptyState@__FrameHandler3@@SAXPEA_KPEAU_xDISPATCHER_CONTEXT@@PEBU_s_FuncInfo@@@Z 0000000180030594     libvcruntime:risctrnsctrl.obj
 0004:000005a0       $pdata$?GetEstablisherFrame@__FrameHandler3@@SAPEA_KPEA_KPEAU_xDISPATCHER_CONTEXT@@PEBU_s_FuncInfo@@0@Z 00000001800305a0     libvcruntime:risctrnsctrl.obj
 0004:000005ac       $pdata$?GetRangeOfTrysToCheck@__FrameHandler3@@SA?AU?$pair@Viterator@TryBlockMap@__FrameHandler3@@V123@@std@@AEAVTryBlockMap@1@HH@Z 00000001800305ac     libvcruntime:risctrnsctrl.obj
 0004:000005b8       $pdata$?UnwindNestedFrames@__FrameHandler3@@SAXPEA_KPEAUEHExceptionRecord@@PEAU_CONTEXT@@0PEAXPEBU_s_FuncInfo@@HHPEBU_s_HandlerType@@PEAU_xDISPATCHER_CONTEXT@@E@Z 00000001800305b8     libvcruntime:risctrnsctrl.obj
 0004:000005c4       $pdata$_CreateFrameInfo    00000001800305c4     libvcruntime:risctrnsctrl.obj
 0004:000005d0       $pdata$_FindAndUnlinkFrame 00000001800305d0     libvcruntime:risctrnsctrl.obj
 0004:000005dc       $pdata$_GetImageBase       00000001800305dc     libvcruntime:risctrnsctrl.obj
 0004:000005e8       $pdata$_GetThrowImageBase  00000001800305e8     libvcruntime:risctrnsctrl.obj
 0004:000005f4       $pdata$_SetImageBase       00000001800305f4     libvcruntime:risctrnsctrl.obj
 0004:00000600       $pdata$_SetThrowImageBase  0000000180030600     libvcruntime:risctrnsctrl.obj
 0004:0000060c       $pdata$__CxxFrameHandler3  000000018003060c     libvcruntime:risctrnsctrl.obj
 0004:00000618       $pdata$strstr              0000000180030618     libvcruntime:strstr.obj
 0004:00000624       $pdata$__std_exception_copy 0000000180030624     libvcruntime:std_exception.obj
 0004:00000630       $pdata$__std_exception_destroy 0000000180030630     libvcruntime:std_exception.obj
 0004:0000063c       $pdata$_CxxThrowException  000000018003063c     libvcruntime:throw.obj
 0004:00000648       $pdata$__vcrt_initialize   0000000180030648     libvcruntime:initialization.obj
 0004:00000654       $pdata$__vcrt_thread_attach 0000000180030654     libvcruntime:initialization.obj
 0004:00000660       $pdata$__vcrt_thread_detach 0000000180030660     libvcruntime:initialization.obj
 0004:0000066c       $pdata$__vcrt_uninitialize 000000018003066c     libvcruntime:initialization.obj
 0004:00000678       $pdata$__vcrt_uninitialize_critical 0000000180030678     libvcruntime:initialization.obj
 0004:00000684       $pdata$__C_specific_handler 0000000180030684     libvcruntime:_riscchandler_.obj
 0004:000006a8       $pdata$__std_type_info_destroy_list 00000001800306a8     libvcruntime:std_type_info.obj
 0004:000006b4       $pdata$__vcrt_freefls      00000001800306b4     libvcruntime:per_thread_data.obj
 0004:000006c0       $pdata$__vcrt_freeptd      00000001800306c0     libvcruntime:per_thread_data.obj
 0004:000006cc       $pdata$__vcrt_getptd       00000001800306cc     libvcruntime:per_thread_data.obj
 0004:000006d8       $pdata$__vcrt_getptd_noexit 00000001800306d8     libvcruntime:per_thread_data.obj
 0004:000006e4       $pdata$__vcrt_initialize_ptd 00000001800306e4     libvcruntime:per_thread_data.obj
 0004:000006f0       $pdata$__vcrt_uninitialize_ptd 00000001800306f0     libvcruntime:per_thread_data.obj
 0004:000006fc       $pdata$?GetCurrentState@__FrameHandler3@@SAHPEA_KPEAU_xDISPATCHER_CONTEXT@@PEBU_s_FuncInfo@@@Z 00000001800306fc     libvcruntime:ehstate.obj
 0004:00000708       $pdata$?GetUnwindTryBlock@__FrameHandler3@@SAHPEA_KPEAU_xDISPATCHER_CONTEXT@@PEBU_s_FuncInfo@@@Z 0000000180030708     libvcruntime:ehstate.obj
 0004:00000714       $pdata$?SetUnwindTryBlock@__FrameHandler3@@SAXPEA_KPEAU_xDISPATCHER_CONTEXT@@PEBU_s_FuncInfo@@H@Z 0000000180030714     libvcruntime:ehstate.obj
 0004:00000720       $pdata$?StateFromIp@__FrameHandler3@@SAHPEBU_s_FuncInfo@@PEAU_xDISPATCHER_CONTEXT@@_K@Z 0000000180030720     libvcruntime:ehstate.obj
 0004:0000072c       $pdata$??$BuildCatchObjectHelperInternal@$$CBU_s_HandlerType@@@@YAHPEAUEHExceptionRecord@@PEAXPEBU_s_HandlerType@@PEBU_s_CatchableType@@@Z 000000018003072c     libvcruntime:frame.obj
 0004:00000738       $pdata$??$BuildCatchObjectInternal@$$CBU_s_HandlerType@@@@YAXPEAUEHExceptionRecord@@PEAXPEBU_s_HandlerType@@PEBU_s_CatchableType@@@Z 0000000180030738     libvcruntime:frame.obj
 0004:00000744       $pdata$??$CatchIt@V__FrameHandler3@@@@YAXPEAUEHExceptionRecord@@PEA_KPEAU_CONTEXT@@PEAU_xDISPATCHER_CONTEXT@@PEBU_s_FuncInfo@@PEBU_s_HandlerType@@PEBU_s_CatchableType@@PEBU_s_TryBlockMapEntry@@H1EE@Z 0000000180030744     libvcruntime:frame.obj
 0004:00000750       $pdata$??$FindHandler@V__FrameHandler3@@@@YAXPEAUEHExceptionRecord@@PEA_KPEAU_CONTEXT@@PEAU_xDISPATCHER_CONTEXT@@PEBU_s_FuncInfo@@EH1@Z 0000000180030750     libvcruntime:frame.obj
 0004:0000075c       $pdata$??$FindHandlerForForeignException@V__FrameHandler3@@@@YAXPEAUEHExceptionRecord@@PEA_KPEAU_CONTEXT@@PEAU_xDISPATCHER_CONTEXT@@PEBU_s_FuncInfo@@HH1@Z 000000018003075c     libvcruntime:frame.obj
 0004:00000768       $pdata$??$TypeMatchHelper@$$CBU_s_HandlerType@@@@YAHPEBU_s_HandlerType@@PEBU_s_CatchableType@@PEBU_s_ThrowInfo@@@Z 0000000180030768     libvcruntime:frame.obj
 0004:00000774       $pdata$??$__InternalCxxFrameHandler@V__FrameHandler3@@@@YA?AW4_EXCEPTION_DISPOSITION@@PEAUEHExceptionRecord@@PEA_KPEAU_CONTEXT@@PEAU_xDISPATCHER_CONTEXT@@PEBU_s_FuncInfo@@H1E@Z 0000000180030774     libvcruntime:frame.obj
 0004:00000780       $pdata$??0bad_exception@std@@QEAA@AEBV01@@Z 0000000180030780     libvcruntime:frame.obj
 0004:0000078c       $pdata$?CxxCallCatchBlock@__FrameHandler3@@SAPEAXPEAU_EXCEPTION_RECORD@@@Z 000000018003078c     libvcruntime:frame.obj
 0004:00000798       $pdata$?ExFilterRethrow@@YAHPEAU_EXCEPTION_POINTERS@@PEAUEHExceptionRecord@@PEAH@Z 0000000180030798     libvcruntime:frame.obj
 0004:000007a4       $pdata$?FrameUnwindToState@__FrameHandler3@@SAXPEA_KPEAU_xDISPATCHER_CONTEXT@@PEBU_s_FuncInfo@@H@Z 00000001800307a4     libvcruntime:frame.obj
 0004:000007b0       $pdata$?GetHandlerSearchState@__FrameHandler3@@SAHPEA_KPEAU_xDISPATCHER_CONTEXT@@PEBU_s_FuncInfo@@@Z 00000001800307b0     libvcruntime:frame.obj
 0004:000007bc       $pdata$?IsInExceptionSpec@@YAEPEAUEHExceptionRecord@@PEBU_s_ESTypeList@@@Z 00000001800307bc     libvcruntime:frame.obj
 0004:000007c8       $pdata$?Is_bad_exception_allowed@@YAEPEBU_s_ESTypeList@@@Z 00000001800307c8     libvcruntime:frame.obj
 0004:000007d4       $pdata$__vcrt_initialize_locks 00000001800307d4     libvcruntime:locks.obj
 0004:000007e0       $pdata$__vcrt_uninitialize_locks 00000001800307e0     libvcruntime:locks.obj
 0004:000007ec       $pdata$?try_get_function@@YAPEAXW4function_id@?A0xcc2f1bd3@@QEBDQEBW4module_id@2@2@Z 00000001800307ec     libvcruntime:winapi_downlevel.obj
 0004:000007f8       $pdata$__vcrt_FlsAlloc     00000001800307f8     libvcruntime:winapi_downlevel.obj
 0004:00000804       $pdata$__vcrt_FlsFree      0000000180030804     libvcruntime:winapi_downlevel.obj
 0004:00000810       $pdata$__vcrt_FlsGetValue  0000000180030810     libvcruntime:winapi_downlevel.obj
 0004:0000081c       $pdata$__vcrt_FlsSetValue  000000018003081c     libvcruntime:winapi_downlevel.obj
 0004:00000828       $pdata$__vcrt_InitializeCriticalSectionEx 0000000180030828     libvcruntime:winapi_downlevel.obj
 0004:00000834       $pdata$__vcrt_initialize_winapi_thunks 0000000180030834     libvcruntime:winapi_downlevel.obj
 0004:00000840       $pdata$__vcrt_uninitialize_winapi_thunks 0000000180030840     libvcruntime:winapi_downlevel.obj
 0004:00000870       $pdata$__DestructExceptionObject 0000000180030870     libvcruntime:ehhelpers.obj
 0004:0000087c       $pdata$_IsExceptionObjectToBeDestroyed 000000018003087c     libvcruntime:ehhelpers.obj
 0004:00000888       $pdata$__FrameUnwindFilter 0000000180030888     libvcruntime:ehhelpers.obj
 0004:000008c4       $pdata$??$common_assert_to_message_box@_W@@YAXQEB_W0IQEAX@Z 00000001800308c4     libucrt:assert.obj
 0004:000008d0       $pdata$??$common_assert_to_message_box_build_string@_W@@YAXQEA_W_KQEB_W2IQEAX@Z 00000001800308d0     libucrt:assert.obj
 0004:000008dc       $pdata$??$common_assert_to_stderr@_W@@YAXQEB_W0I@Z 00000001800308dc     libucrt:assert.obj
 0004:000008e8       $pdata$_wassert            00000001800308e8     libucrt:assert.obj
 0004:000008f4       $pdata$fwprintf            00000001800308f4     libucrt:assert.obj
 0004:00000900       $pdata$swprintf            0000000180030900     libucrt:assert.obj
 0004:0000090c       $pdata$__acrt_call_reportfault 000000018003090c     libucrt:invalid_parameter.obj
 0004:00000918       $pdata$_invalid_parameter  0000000180030918     libucrt:invalid_parameter.obj
 0004:00000924       $pdata$_invalid_parameter_noinfo 0000000180030924     libucrt:invalid_parameter.obj
 0004:00000930       $pdata$_invalid_parameter_noinfo_noreturn 0000000180030930     libucrt:invalid_parameter.obj
 0004:0000093c       $pdata$_invoke_watson      000000018003093c     libucrt:invalid_parameter.obj
 0004:00000948       $pdata$strncpy_s           0000000180030948     libucrt:strncpy_s.obj
 0004:00000954       $pdata$??$?RV<lambda_0d412022a4b28cc8a401ea49574e8ae6>@@AEAV<lambda_a775ed57af18ba8e4d5dc780aa9068fe>@@V<lambda_975a71a6baa488a08f4e15f6b0339b9e>@@@?$__crt_seh_guarded_call@H@@QEAAH$$QEAV<lambda_0d412022a4b28cc8a401ea49574e8ae6>@@AEAV<lambda_a775ed57af18ba8e4d5dc780aa9068fe>@@$$QEAV<lambda_975a71a6baa488a08f4e15f6b0339b9e>@@@Z 0000000180030954     libucrt:output.obj
 0004:00000960       $pdata$??$common_vsprintf@Vformat_validation_base@__crt_stdio_output@@D@@YAH_KQEAD0QEBDQEAU__crt_locale_pointers@@1@Z 0000000180030960     libucrt:output.obj
 0004:0000096c       $pdata$??$common_vsprintf@Vstandard_base@__crt_stdio_output@@_W@@YAH_KQEA_W0QEB_WQEAU__crt_locale_pointers@@QEAD@Z 000000018003096c     libucrt:output.obj
 0004:00000978       $pdata$??$ensure_buffer_is_big_enough@D@formatting_buffer@__crt_stdio_output@@QEAA_N_K@Z 0000000180030978     libucrt:output.obj
 0004:00000984       $pdata$??$ensure_buffer_is_big_enough@_W@formatting_buffer@__crt_stdio_output@@QEAA_N_K@Z 0000000180030984     libucrt:output.obj
 0004:00000990       $pdata$??$type_case_integer_parse_into_buffer@I@?$output_processor@DV?$string_output_adapter@D@__crt_stdio_output@@V?$format_validation_base@DV?$string_output_adapter@D@__crt_stdio_output@@@2@@__crt_stdio_output@@AEAAXII_N@Z 0000000180030990     libucrt:output.obj
 0004:0000099c       $pdata$??$type_case_integer_parse_into_buffer@I@?$output_processor@_WV?$string_output_adapter@_W@__crt_stdio_output@@V?$standard_base@_WV?$string_output_adapter@_W@__crt_stdio_output@@@2@@__crt_stdio_output@@AEAAXII_N@Z 000000018003099c     libucrt:output.obj
 0004:0000099c       $pdata$??$type_case_integer_parse_into_buffer@I@?$output_processor@_WV?$stream_output_adapter@_W@__crt_stdio_output@@V?$standard_base@_WV?$stream_output_adapter@_W@__crt_stdio_output@@@2@@__crt_stdio_output@@AEAAXII_N@Z 000000018003099c     libucrt:output.obj
 0004:000009a8       $pdata$??$type_case_integer_parse_into_buffer@_K@?$output_processor@DV?$string_output_adapter@D@__crt_stdio_output@@V?$format_validation_base@DV?$string_output_adapter@D@__crt_stdio_output@@@2@@__crt_stdio_output@@AEAAX_KI_N@Z 00000001800309a8     libucrt:output.obj
 0004:000009b4       $pdata$??$type_case_integer_parse_into_buffer@_K@?$output_processor@_WV?$stream_output_adapter@_W@__crt_stdio_output@@V?$standard_base@_WV?$stream_output_adapter@_W@__crt_stdio_output@@@2@@__crt_stdio_output@@AEAAX_KI_N@Z 00000001800309b4     libucrt:output.obj
 0004:000009b4       $pdata$??$type_case_integer_parse_into_buffer@_K@?$output_processor@_WV?$string_output_adapter@_W@__crt_stdio_output@@V?$standard_base@_WV?$string_output_adapter@_W@__crt_stdio_output@@@2@@__crt_stdio_output@@AEAAX_KI_N@Z 00000001800309b4     libucrt:output.obj
 0004:000009c0       $pdata$??$write_multiple_characters@V?$stream_output_adapter@_W@__crt_stdio_output@@D@__crt_stdio_output@@YAXAEBV?$stream_output_adapter@_W@0@DHQEAH@Z 00000001800309c0     libucrt:output.obj
 0004:000009cc       $pdata$??$write_multiple_characters@V?$string_output_adapter@D@__crt_stdio_output@@D@__crt_stdio_output@@YAXAEBV?$string_output_adapter@D@0@DHQEAH@Z 00000001800309cc     libucrt:output.obj
 0004:000009d8       $pdata$??$write_multiple_characters@V?$string_output_adapter@_W@__crt_stdio_output@@D@__crt_stdio_output@@YAXAEBV?$string_output_adapter@_W@0@DHQEAH@Z 00000001800309d8     libucrt:output.obj
 0004:000009e4       $pdata$??0_LocaleUpdate@@QEAA@QEAU__crt_locale_pointers@@@Z 00000001800309e4     libucrt:output.obj
 0004:000009f0       $pdata$??R<lambda_a775ed57af18ba8e4d5dc780aa9068fe>@@QEBAHXZ 00000001800309f0     libucrt:output.obj
 0004:000009fc       $pdata$?force_decimal_point@__crt_stdio_output@@YAXPEADQEAU__crt_locale_pointers@@@Z 00000001800309fc     libucrt:output.obj
 0004:00000a08       $pdata$?parse_int_from_format_string@?$output_processor@DV?$string_output_adapter@D@__crt_stdio_output@@V?$format_validation_base@DV?$string_output_adapter@D@__crt_stdio_output@@@2@@__crt_stdio_output@@AEAA_NQEAH@Z 0000000180030a08     libucrt:output.obj
 0004:00000a14       $pdata$?parse_int_from_format_string@?$output_processor@_WV?$stream_output_adapter@_W@__crt_stdio_output@@V?$standard_base@_WV?$stream_output_adapter@_W@__crt_stdio_output@@@2@@__crt_stdio_output@@AEAA_NQEAH@Z 0000000180030a14     libucrt:output.obj
 0004:00000a14       $pdata$?parse_int_from_format_string@?$output_processor@_WV?$string_output_adapter@_W@__crt_stdio_output@@V?$standard_base@_WV?$string_output_adapter@_W@__crt_stdio_output@@@2@@__crt_stdio_output@@AEAA_NQEAH@Z 0000000180030a14     libucrt:output.obj
 0004:00000a20       $pdata$?process@?$output_processor@DV?$string_output_adapter@D@__crt_stdio_output@@V?$format_validation_base@DV?$string_output_adapter@D@__crt_stdio_output@@@2@@__crt_stdio_output@@QEAAHXZ 0000000180030a20     libucrt:output.obj
 0004:00000a2c       $pdata$?process@?$output_processor@_WV?$stream_output_adapter@_W@__crt_stdio_output@@V?$standard_base@_WV?$stream_output_adapter@_W@__crt_stdio_output@@@2@@__crt_stdio_output@@QEAAHXZ 0000000180030a2c     libucrt:output.obj
 0004:00000a38       $pdata$?process@?$output_processor@_WV?$string_output_adapter@_W@__crt_stdio_output@@V?$standard_base@_WV?$string_output_adapter@_W@__crt_stdio_output@@@2@@__crt_stdio_output@@QEAAHXZ 0000000180030a38     libucrt:output.obj
 0004:00000a44       $pdata$?state_case_normal@?$output_processor@DV?$string_output_adapter@D@__crt_stdio_output@@V?$format_validation_base@DV?$string_output_adapter@D@__crt_stdio_output@@@2@@__crt_stdio_output@@AEAA_NXZ 0000000180030a44     libucrt:output.obj
 0004:00000a50       $pdata$?state_case_normal_tchar@?$output_processor@DV?$string_output_adapter@D@__crt_stdio_output@@V?$format_validation_base@DV?$string_output_adapter@D@__crt_stdio_output@@@2@@__crt_stdio_output@@AEAA_ND@Z 0000000180030a50     libucrt:output.obj
 0004:00000a5c       $pdata$?state_case_size@?$output_processor@DV?$string_output_adapter@D@__crt_stdio_output@@V?$format_validation_base@DV?$string_output_adapter@D@__crt_stdio_output@@@2@@__crt_stdio_output@@AEAA_NXZ 0000000180030a5c     libucrt:output.obj
 0004:00000a68       $pdata$?state_case_size@?$output_processor@_WV?$stream_output_adapter@_W@__crt_stdio_output@@V?$standard_base@_WV?$stream_output_adapter@_W@__crt_stdio_output@@@2@@__crt_stdio_output@@AEAA_NXZ 0000000180030a68     libucrt:output.obj
 0004:00000a74       $pdata$?state_case_size@?$output_processor@_WV?$string_output_adapter@_W@__crt_stdio_output@@V?$standard_base@_WV?$string_output_adapter@_W@__crt_stdio_output@@@2@@__crt_stdio_output@@AEAA_NXZ 0000000180030a74     libucrt:output.obj
 0004:00000a80       $pdata$?state_case_type@?$output_processor@DV?$string_output_adapter@D@__crt_stdio_output@@V?$format_validation_base@DV?$string_output_adapter@D@__crt_stdio_output@@@2@@__crt_stdio_output@@AEAA_NXZ 0000000180030a80     libucrt:output.obj
 0004:00000a8c       $pdata$?state_case_type@?$output_processor@_WV?$stream_output_adapter@_W@__crt_stdio_output@@V?$standard_base@_WV?$stream_output_adapter@_W@__crt_stdio_output@@@2@@__crt_stdio_output@@AEAA_NXZ 0000000180030a8c     libucrt:output.obj
 0004:00000a98       $pdata$?state_case_type@?$output_processor@_WV?$string_output_adapter@_W@__crt_stdio_output@@V?$standard_base@_WV?$string_output_adapter@_W@__crt_stdio_output@@@2@@__crt_stdio_output@@AEAA_NXZ 0000000180030a98     libucrt:output.obj
 0004:00000aa4       $pdata$?type_case_Z@?$output_processor@_WV?$stream_output_adapter@_W@__crt_stdio_output@@V?$standard_base@_WV?$stream_output_adapter@_W@__crt_stdio_output@@@2@@__crt_stdio_output@@AEAA_NXZ 0000000180030aa4     libucrt:output.obj
 0004:00000aa4       $pdata$?type_case_Z@?$output_processor@_WV?$string_output_adapter@_W@__crt_stdio_output@@V?$standard_base@_WV?$string_output_adapter@_W@__crt_stdio_output@@@2@@__crt_stdio_output@@AEAA_NXZ 0000000180030aa4     libucrt:output.obj
 0004:00000ab0       $pdata$?type_case_a@?$output_processor@DV?$string_output_adapter@D@__crt_stdio_output@@V?$format_validation_base@DV?$string_output_adapter@D@__crt_stdio_output@@@2@@__crt_stdio_output@@AEAA_NXZ 0000000180030ab0     libucrt:output.obj
 0004:00000abc       $pdata$?type_case_a@?$output_processor@_WV?$string_output_adapter@_W@__crt_stdio_output@@V?$standard_base@_WV?$string_output_adapter@_W@__crt_stdio_output@@@2@@__crt_stdio_output@@AEAA_NXZ 0000000180030abc     libucrt:output.obj
 0004:00000abc       $pdata$?type_case_a@?$output_processor@_WV?$stream_output_adapter@_W@__crt_stdio_output@@V?$standard_base@_WV?$stream_output_adapter@_W@__crt_stdio_output@@@2@@__crt_stdio_output@@AEAA_NXZ 0000000180030abc     libucrt:output.obj
 0004:00000ac8       $pdata$?type_case_c_tchar@?$output_processor@DV?$string_output_adapter@D@__crt_stdio_output@@V?$format_validation_base@DV?$string_output_adapter@D@__crt_stdio_output@@@2@@__crt_stdio_output@@AEAA_ND@Z 0000000180030ac8     libucrt:output.obj
 0004:00000ad4       $pdata$?type_case_c_tchar@?$output_processor@_WV?$stream_output_adapter@_W@__crt_stdio_output@@V?$standard_base@_WV?$stream_output_adapter@_W@__crt_stdio_output@@@2@@__crt_stdio_output@@AEAA_N_W@Z 0000000180030ad4     libucrt:output.obj
 0004:00000ad4       $pdata$?type_case_c_tchar@?$output_processor@_WV?$string_output_adapter@_W@__crt_stdio_output@@V?$standard_base@_WV?$string_output_adapter@_W@__crt_stdio_output@@@2@@__crt_stdio_output@@AEAA_N_W@Z 0000000180030ad4     libucrt:output.obj
 0004:00000ae0       $pdata$?type_case_integer@?$output_processor@DV?$string_output_adapter@D@__crt_stdio_output@@V?$format_validation_base@DV?$string_output_adapter@D@__crt_stdio_output@@@2@@__crt_stdio_output@@AEAA_NI_N@Z 0000000180030ae0     libucrt:output.obj
 0004:00000aec       $pdata$?type_case_integer@?$output_processor@_WV?$string_output_adapter@_W@__crt_stdio_output@@V?$standard_base@_WV?$string_output_adapter@_W@__crt_stdio_output@@@2@@__crt_stdio_output@@AEAA_NI_N@Z 0000000180030aec     libucrt:output.obj
 0004:00000aec       $pdata$?type_case_integer@?$output_processor@_WV?$stream_output_adapter@_W@__crt_stdio_output@@V?$standard_base@_WV?$stream_output_adapter@_W@__crt_stdio_output@@@2@@__crt_stdio_output@@AEAA_NI_N@Z 0000000180030aec     libucrt:output.obj
 0004:00000af8       $pdata$?type_case_n@?$output_processor@DV?$string_output_adapter@D@__crt_stdio_output@@V?$format_validation_base@DV?$string_output_adapter@D@__crt_stdio_output@@@2@@__crt_stdio_output@@AEAA_NXZ 0000000180030af8     libucrt:output.obj
 0004:00000af8       $pdata$?type_case_n@?$output_processor@_WV?$string_output_adapter@_W@__crt_stdio_output@@V?$standard_base@_WV?$string_output_adapter@_W@__crt_stdio_output@@@2@@__crt_stdio_output@@AEAA_NXZ 0000000180030af8     libucrt:output.obj
 0004:00000af8       $pdata$?type_case_n@?$output_processor@_WV?$stream_output_adapter@_W@__crt_stdio_output@@V?$standard_base@_WV?$stream_output_adapter@_W@__crt_stdio_output@@@2@@__crt_stdio_output@@AEAA_NXZ 0000000180030af8     libucrt:output.obj
 0004:00000b04       $pdata$?type_case_s@?$output_processor@DV?$string_output_adapter@D@__crt_stdio_output@@V?$format_validation_base@DV?$string_output_adapter@D@__crt_stdio_output@@@2@@__crt_stdio_output@@AEAA_NXZ 0000000180030b04     libucrt:output.obj
 0004:00000b10       $pdata$?type_case_s@?$output_processor@_WV?$stream_output_adapter@_W@__crt_stdio_output@@V?$standard_base@_WV?$stream_output_adapter@_W@__crt_stdio_output@@@2@@__crt_stdio_output@@AEAA_NXZ 0000000180030b10     libucrt:output.obj
 0004:00000b10       $pdata$?type_case_s@?$output_processor@_WV?$string_output_adapter@_W@__crt_stdio_output@@V?$standard_base@_WV?$string_output_adapter@_W@__crt_stdio_output@@@2@@__crt_stdio_output@@AEAA_NXZ 0000000180030b10     libucrt:output.obj
 0004:00000b1c       $pdata$?write_stored_string_tchar@?$output_processor@DV?$string_output_adapter@D@__crt_stdio_output@@V?$format_validation_base@DV?$string_output_adapter@D@__crt_stdio_output@@@2@@__crt_stdio_output@@AEAA_ND@Z 0000000180030b1c     libucrt:output.obj
 0004:00000b28       $pdata$?write_stored_string_tchar@?$output_processor@_WV?$stream_output_adapter@_W@__crt_stdio_output@@V?$standard_base@_WV?$stream_output_adapter@_W@__crt_stdio_output@@@2@@__crt_stdio_output@@AEAA_N_W@Z 0000000180030b28     libucrt:output.obj
 0004:00000b34       $pdata$?write_stored_string_tchar@?$output_processor@_WV?$string_output_adapter@_W@__crt_stdio_output@@V?$standard_base@_WV?$string_output_adapter@_W@__crt_stdio_output@@@2@@__crt_stdio_output@@AEAA_N_W@Z 0000000180030b34     libucrt:output.obj
 0004:00000b40       $pdata$?write_string@?$string_output_adapter@D@__crt_stdio_output@@QEBAXQEBDHQEAHAEAV__crt_deferred_errno_cache@@@Z 0000000180030b40     libucrt:output.obj
 0004:00000b4c       $pdata$?write_string@?$string_output_adapter@_W@__crt_stdio_output@@QEBAXQEB_WHQEAHAEAV__crt_deferred_errno_cache@@@Z 0000000180030b4c     libucrt:output.obj
 0004:00000b58       $pdata$?write_string_impl@?$output_adapter_common@_WV?$stream_output_adapter@_W@__crt_stdio_output@@@__crt_stdio_output@@IEBAXQEB_WHQEAHAEAV__crt_deferred_errno_cache@@@Z 0000000180030b58     libucrt:output.obj
 0004:00000b64       $pdata$__stdio_common_vfwprintf 0000000180030b64     libucrt:output.obj
 0004:00000b70       $pdata$__stdio_common_vsnprintf_s 0000000180030b70     libucrt:output.obj
 0004:00000b88       $pdata$_stricmp            0000000180030b88     libucrt:stricmp.obj
 0004:00000b94       $pdata$_stricmp_l          0000000180030b94     libucrt:stricmp.obj
 0004:00000ba0       $pdata$_callnewh           0000000180030ba0     libucrt:new_handler.obj
 0004:00000bac       $pdata$_query_new_handler  0000000180030bac     libucrt:new_handler.obj
 0004:00000bb8       $pdata$_seh_filter_exe     0000000180030bb8     libucrt:exception_filter.obj
 0004:00000bc4       $pdata$??$?RV<lambda_d80eeec6fff315bfe5c115232f3240e3>@@AEAV<lambda_6e4b09c48022b2350581041d5f6b0c4c>@@V<lambda_2358e3775559c9db80273638284d5e45>@@@?$__crt_seh_guarded_call@X@@QEAAX$$QEAV<lambda_d80eeec6fff315bfe5c115232f3240e3>@@AEAV<lambda_6e4b09c48022b2350581041d5f6b0c4c>@@$$QEAV<lambda_2358e3775559c9db80273638284d5e45>@@@Z 0000000180030bc4     libucrt:exit.obj
 0004:00000bd0       $pdata$??R<lambda_6e4b09c48022b2350581041d5f6b0c4c>@@QEBA@XZ 0000000180030bd0     libucrt:exit.obj
 0004:00000bdc       $pdata$?common_exit@@YAXHW4_crt_exit_cleanup_mode@@W4_crt_exit_return_mode@@@Z 0000000180030bdc     libucrt:exit.obj
 0004:00000be8       $pdata$?exit_or_terminate_process@@YAXI@Z 0000000180030be8     libucrt:exit.obj
 0004:00000bf4       $pdata$?try_cor_exit_process@@YAXI@Z 0000000180030bf4     libucrt:exit.obj
 0004:00000c00       $pdata$??$parse_command_line@D@@YAXPEADPEAPEAD0PEA_K2@Z 0000000180030c00     libucrt:argv_parsing.obj
 0004:00000c0c       $pdata$__acrt_allocate_buffer_for_argv 0000000180030c0c     libucrt:argv_parsing.obj
 0004:00000c18       $pdata$_configure_narrow_argv 0000000180030c18     libucrt:argv_parsing.obj
 0004:00000c24       $pdata$??$common_initialize_environment_nolock@D@@YAHXZ 0000000180030c24     libucrt:environment_initialization.obj
 0004:00000c30       $pdata$??$create_environment@D@@YAQEAPEADQEAD@Z 0000000180030c30     libucrt:environment_initialization.obj
 0004:00000c3c       $pdata$??$free_environment@D@@YAXQEAPEAD@Z 0000000180030c3c     libucrt:environment_initialization.obj
 0004:00000c3c       $pdata$??$free_environment@_W@@YAXQEAPEA_W@Z 0000000180030c3c     libucrt:environment_initialization.obj
 0004:00000c48       $pdata$??$uninitialize_environment_internal@D@@YAXAEAPEAPEAD@Z 0000000180030c48     libucrt:environment_initialization.obj
 0004:00000c54       $pdata$??$uninitialize_environment_internal@_W@@YAXAEAPEAPEA_W@Z 0000000180030c54     libucrt:environment_initialization.obj
 0004:00000c60       $pdata$__dcrt_uninitialize_environments_nolock 0000000180030c60     libucrt:environment_initialization.obj
 0004:00000c6c       $pdata$??$?RV<lambda_7777bce6b2f8c936911f934f8298dc43>@@AEAV<lambda_f03950bc5685219e0bcd2087efbe011e>@@V<lambda_3883c3dff614d5e0c5f61bb1ac94921c>@@@?$__crt_seh_guarded_call@H@@QEAAH$$QEAV<lambda_7777bce6b2f8c936911f934f8298dc43>@@AEAV<lambda_f03950bc5685219e0bcd2087efbe011e>@@$$QEAV<lambda_3883c3dff614d5e0c5f61bb1ac94921c>@@@Z 0000000180030c6c     libucrt:onexit.obj
 0004:00000c78       $pdata$??$?RV<lambda_8369fcb7c4df1e85de37618bd2b85f07>@@AEAV<lambda_a10e4b102d4a2c3aac6f4f48bbdf488f>@@V<lambda_5b7707bd6d7a0c4713179f36c7fd995d>@@@?$__crt_seh_guarded_call@H@@QEAAH$$QEAV<lambda_8369fcb7c4df1e85de37618bd2b85f07>@@AEAV<lambda_a10e4b102d4a2c3aac6f4f48bbdf488f>@@$$QEAV<lambda_5b7707bd6d7a0c4713179f36c7fd995d>@@@Z 0000000180030c78     libucrt:onexit.obj
 0004:00000c84       $pdata$??R<lambda_a10e4b102d4a2c3aac6f4f48bbdf488f>@@QEBAHXZ 0000000180030c84     libucrt:onexit.obj
 0004:00000c90       $pdata$??R<lambda_f03950bc5685219e0bcd2087efbe011e>@@QEBAHXZ 0000000180030c90     libucrt:onexit.obj
 0004:00000c9c       $pdata$_execute_onexit_table 0000000180030c9c     libucrt:onexit.obj
 0004:00000ca8       $pdata$_register_onexit_function 0000000180030ca8     libucrt:onexit.obj
 0004:00000cb4       $pdata$initialize_c        0000000180030cb4     libucrt:initialization.obj
 0004:00000cc0       $pdata$uninitialize_environment 0000000180030cc0     libucrt:initialization.obj
 0004:00000ccc       $pdata$initialize_pointers 0000000180030ccc     libucrt:initialization.obj
 0004:00000cd8       $pdata$uninitialize_allocated_memory 0000000180030cd8     libucrt:initialization.obj
 0004:00000ce4       $pdata$uninitialize_allocated_io_buffers 0000000180030ce4     libucrt:initialization.obj
 0004:00000cf0       $pdata$__acrt_thread_attach 0000000180030cf0     libucrt:initialization.obj
 0004:00000cfc       $pdata$__acrt_thread_detach 0000000180030cfc     libucrt:initialization.obj
 0004:00000d08       $pdata$__acrt_uninitialize 0000000180030d08     libucrt:initialization.obj
 0004:00000d14       $pdata$__acrt_uninitialize_critical 0000000180030d14     libucrt:initialization.obj
 0004:00000d20       $pdata$_initterm           0000000180030d20     libucrt:initterm.obj
 0004:00000d2c       $pdata$_initterm_e         0000000180030d2c     libucrt:initterm.obj
 0004:00000d38       $pdata$terminate           0000000180030d38     libucrt:terminate.obj
 0004:00000d44       $pdata$__ascii_strnicmp    0000000180030d44     libucrt:strnicmp.obj
 0004:00000d50       $pdata$_strnicmp           0000000180030d50     libucrt:strnicmp.obj
 0004:00000d5c       $pdata$_strnicmp_l         0000000180030d5c     libucrt:strnicmp.obj
 0004:00000d68       $pdata$_strdup             0000000180030d68     libucrt:strdup.obj
 0004:00000d74       $pdata$strcpy_s            0000000180030d74     libucrt:strcpy_s.obj
 0004:00000d80       $pdata$abort               0000000180030d80     libucrt:abort.obj
 0004:00000d8c       $pdata$??$parse_integer@KV?$c_string_character_source@D@__crt_strtox@@@__crt_strtox@@YAKQEAU__crt_locale_pointers@@V?$c_string_character_source@D@0@H_N@Z 0000000180030d8c     libucrt:atox.obj
 0004:00000d98       $pdata$??$parse_integer@KV?$c_string_character_source@_W@__crt_strtox@@@__crt_strtox@@YAKQEAU__crt_locale_pointers@@V?$c_string_character_source@_W@0@H_N@Z 0000000180030d98     libucrt:atox.obj
 0004:00000db0       $pdata$_free_base          0000000180030db0     libucrt:free_base.obj
 0004:00000dbc       $pdata$__acrt_errno_map_os_error 0000000180030dbc     libucrt:errno.obj
 0004:00000dc8       $pdata$__doserrno          0000000180030dc8     libucrt:errno.obj
 0004:00000dd4       $pdata$_errno              0000000180030dd4     libucrt:errno.obj
 0004:00000de0       $pdata$??$common_xtox@K_W@@YAHKQEA_W_KI_N@Z 0000000180030de0     libucrt:xtoa.obj
 0004:00000dec       $pdata$??$common_xtox_s@K_W@@YAHKQEA_W_KI_N@Z 0000000180030dec     libucrt:xtoa.obj
 0004:00000df8       $pdata$_itow_s             0000000180030df8     libucrt:xtoa.obj
 0004:00000e04       $pdata$_set_error_mode     0000000180030e04     libucrt:set_error_mode.obj
 0004:00000e10       $pdata$wcscat_s            0000000180030e10     libucrt:wcscat_s.obj
 0004:00000e1c       $pdata$wcscpy_s            0000000180030e1c     libucrt:wcscpy_s.obj
 0004:00000e28       $pdata$wcsncat_s           0000000180030e28     libucrt:wcsncat_s.obj
 0004:00000e34       $pdata$__acrt_GetModuleFileNameA 0000000180030e34     libucrt:getmodulefilenamea.obj
 0004:00000e40       $pdata$__acrt_show_wide_message_box 0000000180030e40     libucrt:crtmbox.obj
 0004:00000e4c       $pdata$__acrt_initialize_stdio 0000000180030e4c     libucrt:_file.obj
 0004:00000e58       $pdata$__acrt_uninitialize_stdio 0000000180030e58     libucrt:_file.obj
 0004:00000e64       $pdata$??$?RV<lambda_842d9ff0dc9ef11c61343bbaebe7f885>@@AEAV<lambda_c5860995281e5c4ce005b3de8f5874ee>@@V<lambda_d90129c13df834fdcbf8d2b88dafcf2d>@@@?$__crt_seh_guarded_call@X@@QEAAX$$QEAV<lambda_842d9ff0dc9ef11c61343bbaebe7f885>@@AEAV<lambda_c5860995281e5c4ce005b3de8f5874ee>@@$$QEAV<lambda_d90129c13df834fdcbf8d2b88dafcf2d>@@@Z 0000000180030e64     libucrt:fflush.obj
 0004:00000e70       $pdata$??$?RV<lambda_886d6c58226a84441f68b9f2b8217b83>@@AEAV<lambda_ab61a845afdef5b7c387490eaf3616ee>@@V<lambda_f7f22ab5edc0698d5f6905b0d3f44752>@@@?$__crt_seh_guarded_call@X@@QEAAX$$QEAV<lambda_886d6c58226a84441f68b9f2b8217b83>@@AEAV<lambda_ab61a845afdef5b7c387490eaf3616ee>@@$$QEAV<lambda_f7f22ab5edc0698d5f6905b0d3f44752>@@@Z 0000000180030e70     libucrt:fflush.obj
 0004:00000e7c       $pdata$??$?RV<lambda_c376a267cfb53b6959b3b692ec76b120>@@AEAV<lambda_9a32fed5bf61b6b509b2d3f6003082a1>@@V<lambda_572fbb9fa0ab338edf41edfd4b5fcc8d>@@@?$__crt_seh_guarded_call@H@@QEAAH$$QEAV<lambda_c376a267cfb53b6959b3b692ec76b120>@@AEAV<lambda_9a32fed5bf61b6b509b2d3f6003082a1>@@$$QEAV<lambda_572fbb9fa0ab338edf41edfd4b5fcc8d>@@@Z 0000000180030e7c     libucrt:fflush.obj
 0004:00000e88       $pdata$?common_flush_all@@YAH_N@Z 0000000180030e88     libucrt:fflush.obj
 0004:00000e94       $pdata$__acrt_stdio_flush_nolock 0000000180030e94     libucrt:fflush.obj
 0004:00000ea0       $pdata$_fflush_nolock      0000000180030ea0     libucrt:fflush.obj
 0004:00000eac       $pdata$fflush              0000000180030eac     libucrt:fflush.obj
 0004:00000eb8       $pdata$??$?RV<lambda_84ec643ea9557e2f7dc01bb0e9624395>@@AEAV<lambda_ca71763b3c0644891230e4f79ea54fa6>@@V<lambda_439a761618c59b0600e24586724d733b>@@@?$__crt_seh_guarded_call@H@@QEAAH$$QEAV<lambda_84ec643ea9557e2f7dc01bb0e9624395>@@AEAV<lambda_ca71763b3c0644891230e4f79ea54fa6>@@$$QEAV<lambda_439a761618c59b0600e24586724d733b>@@@Z 0000000180030eb8     libucrt:setvbuf.obj
 0004:00000ec4       $pdata$??R<lambda_ca71763b3c0644891230e4f79ea54fa6>@@QEBAHXZ 0000000180030ec4     libucrt:setvbuf.obj
 0004:00000ed0       $pdata$setvbuf             0000000180030ed0     libucrt:setvbuf.obj
 0004:00000edc       $pdata$??$?RV<lambda_450d765d439847d4c735a33c368b5fc0>@@AEAV<lambda_44731a7d0e6d81c3e6aa82d741081786>@@V<lambda_601a2a7da3b7a96e9554ac7215c4b07c>@@@?$__crt_seh_guarded_call@P6AXH@Z@@QEAAP6AXH@Z$$QEAV<lambda_450d765d439847d4c735a33c368b5fc0>@@AEAV<lambda_44731a7d0e6d81c3e6aa82d741081786>@@$$QEAV<lambda_601a2a7da3b7a96e9554ac7215c4b07c>@@@Z 0000000180030edc     libucrt:signal.obj
 0004:00000ee8       $pdata$__acrt_get_sigabrt_handler 0000000180030ee8     libucrt:signal.obj
 0004:00000ef4       $pdata$raise               0000000180030ef4     libucrt:signal.obj
 0004:00000f00       $pdata$??$?RV<lambda_0ae27a3a962d80f24befdcbee591983d>@@AEAV<lambda_8d0ee55de4b1038c4002e0adecdf1839>@@V<lambda_dc504788e8f1664fe9b84e20bfb512f2>@@@?$__crt_seh_guarded_call@X@@QEAAX$$QEAV<lambda_0ae27a3a962d80f24befdcbee591983d>@@AEAV<lambda_8d0ee55de4b1038c4002e0adecdf1839>@@$$QEAV<lambda_dc504788e8f1664fe9b84e20bfb512f2>@@@Z 0000000180030f00     libucrt:per_thread_data.obj
 0004:00000f0c       $pdata$??$?RV<lambda_2d41944a1d46af3157314b8a01080d33>@@AEAV<lambda_8f455de75cd7d7f24b4096f044d8b9e6>@@V<lambda_aa500f224e6afead328df44964fe2772>@@@?$__crt_seh_guarded_call@X@@QEAAX$$QEAV<lambda_2d41944a1d46af3157314b8a01080d33>@@AEAV<lambda_8f455de75cd7d7f24b4096f044d8b9e6>@@$$QEAV<lambda_aa500f224e6afead328df44964fe2772>@@@Z 0000000180030f0c     libucrt:per_thread_data.obj
 0004:00000f18       $pdata$??$?RV<lambda_aa87e3671a710a21b5dc78c0bdf72e11>@@AEAV<lambda_92619d2358a28f41a33ba319515a20b9>@@V<lambda_6992ecaafeb10aed2b74cb1fae11a551>@@@?$__crt_seh_guarded_call@X@@QEAAX$$QEAV<lambda_aa87e3671a710a21b5dc78c0bdf72e11>@@AEAV<lambda_92619d2358a28f41a33ba319515a20b9>@@$$QEAV<lambda_6992ecaafeb10aed2b74cb1fae11a551>@@@Z 0000000180030f18     libucrt:per_thread_data.obj
 0004:00000f24       $pdata$??$?RV<lambda_f2e299630e499de9f9a165e60fcd3db5>@@AEAV<lambda_2ae9d31cdba2644fcbeaf08da7c24588>@@V<lambda_40d01ff24d0e7b3814fdbdcee8eab3c7>@@@?$__crt_seh_guarded_call@X@@QEAAX$$QEAV<lambda_f2e299630e499de9f9a165e60fcd3db5>@@AEAV<lambda_2ae9d31cdba2644fcbeaf08da7c24588>@@$$QEAV<lambda_40d01ff24d0e7b3814fdbdcee8eab3c7>@@@Z 0000000180030f24     libucrt:per_thread_data.obj
 0004:00000f30       $pdata$?construct_ptd_array@@YAXQEAU__acrt_ptd@@@Z 0000000180030f30     libucrt:per_thread_data.obj
 0004:00000f3c       $pdata$?destroy_fls@@YAXPEAX@Z 0000000180030f3c     libucrt:per_thread_data.obj
 0004:00000f48       $pdata$?destroy_ptd_array@@YAXQEAU__acrt_ptd@@@Z 0000000180030f48     libucrt:per_thread_data.obj
 0004:00000f54       $pdata$?replace_current_thread_locale_nolock@@YAXQEAU__acrt_ptd@@QEAU__crt_locale_data@@@Z 0000000180030f54     libucrt:per_thread_data.obj
 0004:00000f60       $pdata$__acrt_freeptd      0000000180030f60     libucrt:per_thread_data.obj
 0004:00000f6c       $pdata$__acrt_getptd       0000000180030f6c     libucrt:per_thread_data.obj
 0004:00000f78       $pdata$__acrt_getptd_head  0000000180030f78     libucrt:per_thread_data.obj
 0004:00000f84       $pdata$__acrt_getptd_noexit 0000000180030f84     libucrt:per_thread_data.obj
 0004:00000f90       $pdata$__acrt_initialize_ptd 0000000180030f90     libucrt:per_thread_data.obj
 0004:00000f9c       $pdata$__acrt_uninitialize_ptd 0000000180030f9c     libucrt:per_thread_data.obj
 0004:00000fa8       $pdata$_malloc_base        0000000180030fa8     libucrt:malloc_base.obj
 0004:00000fb4       $pdata$isdigit             0000000180030fb4     libucrt:_ctype.obj
 0004:00000fc0       $pdata$?internal_isupper_l@@YA_NHQEAU__crt_locale_pointers@@@Z 0000000180030fc0     libucrt:tolower_toupper.obj
 0004:00000fcc       $pdata$_tolower_l          0000000180030fcc     libucrt:tolower_toupper.obj
 0004:00000fd8       $pdata$tolower             0000000180030fd8     libucrt:tolower_toupper.obj
 0004:00000fe4       $pdata$strtol              0000000180030fe4     libucrt:strtox.obj
 0004:00000ff0       $pdata$wcstol              0000000180030ff0     libucrt:strtox.obj
 0004:00000ffc       $pdata$_mbtowc_l           0000000180030ffc     libucrt:mbtowc.obj
 0004:00001008       $pdata$_wctomb_s_l         0000000180031008     libucrt:wctomb.obj
 0004:00001014       $pdata$wctomb_s            0000000180031014     libucrt:wctomb.obj
 0004:00001020       $pdata$__acrt_update_locale_info 0000000180031020     libucrt:locale_update.obj
 0004:0000102c       $pdata$__acrt_update_multibyte_info 000000018003102c     libucrt:locale_update.obj
 0004:00001038       $pdata$?fp_format_a@@YAHQEBNPEAD_KQEAD2H_NIQEAU__crt_locale_pointers@@@Z 0000000180031038     libucrt:cvt.obj
 0004:00001044       $pdata$?fp_format_e@@YAHQEBNQEAD_K12H_NIQEAU__crt_locale_pointers@@@Z 0000000180031044     libucrt:cvt.obj
 0004:00001050       $pdata$?fp_format_e_internal@@YAHQEAD_KH_NIQEAU_strflt@@2QEAU__crt_locale_pointers@@@Z 0000000180031050     libucrt:cvt.obj
 0004:0000105c       $pdata$?fp_format_f_internal@@YAHQEAD_KHQEAU_strflt@@_NQEAU__crt_locale_pointers@@@Z 000000018003105c     libucrt:cvt.obj
 0004:00001068       $pdata$?fp_format_g@@YAHQEBNQEAD_K12H_NIQEAU__crt_locale_pointers@@@Z 0000000180031068     libucrt:cvt.obj
 0004:00001074       $pdata$?fp_format_nan_or_infinity@@YAHW4__acrt_fp_class@@_NPEAD_K1@Z 0000000180031074     libucrt:cvt.obj
 0004:00001080       $pdata$__acrt_fp_format    0000000180031080     libucrt:cvt.obj
 0004:0000108c       $pdata$_fputwc_nolock      000000018003108c     libucrt:fputwc.obj
 0004:00001098       $pdata$_fileno             0000000180031098     libucrt:fileno.obj
 0004:000010a4       $pdata$__acrt_stdio_begin_temporary_buffering_nolock 00000001800310a4     libucrt:_sftbuf.obj
 0004:000010b0       $pdata$__acrt_stdio_end_temporary_buffering_nolock 00000001800310b0     libucrt:_sftbuf.obj
 0004:000010bc       $pdata$??$?RV<lambda_410d79af7f07d98d83a3f525b3859a53>@@AEAV<lambda_3e16ef9562a7dcce91392c22ab16ea36>@@V<lambda_38119f0e861e05405d8a144b9b982f0a>@@@?$__crt_seh_guarded_call@X@@QEAAX$$QEAV<lambda_410d79af7f07d98d83a3f525b3859a53>@@AEAV<lambda_3e16ef9562a7dcce91392c22ab16ea36>@@$$QEAV<lambda_38119f0e861e05405d8a144b9b982f0a>@@@Z 00000001800310bc     libucrt:wsetlocale.obj
 0004:000010c8       $pdata$__acrt_uninitialize_locale 00000001800310c8     libucrt:wsetlocale.obj
 0004:000010d4       $pdata$?initialize_inherited_file_handles_nolock@@YAXXZ 00000001800310d4     libucrt:ioinit.obj
 0004:000010e0       $pdata$?initialize_stdio_handles_nolock@@YAXXZ 00000001800310e0     libucrt:ioinit.obj
 0004:000010ec       $pdata$__acrt_initialize_lowio 00000001800310ec     libucrt:ioinit.obj
 0004:000010f8       $pdata$__acrt_uninitialize_lowio 00000001800310f8     libucrt:ioinit.obj
 0004:00001104       $pdata$__acrt_initialize_locks 0000000180031104     libucrt:locks.obj
 0004:00001110       $pdata$__acrt_uninitialize_locks 0000000180031110     libucrt:locks.obj
 0004:0000111c       $pdata$__acrt_get_developer_information_policy 000000018003111c     libucrt:win_policies.obj
 0004:00001128       $pdata$__acrt_get_process_end_policy 0000000180031128     libucrt:win_policies.obj
 0004:00001134       $pdata$__acrt_get_windowing_model_policy 0000000180031134     libucrt:win_policies.obj
 0004:00001140       $pdata$_calloc_base        0000000180031140     libucrt:calloc_base.obj
 0004:0000114c       $pdata$??$common_expand_argv_wildcards@D@@YAHQEAPEADQEAPEAPEAD@Z 000000018003114c     libucrt:argv_wildcards.obj
 0004:00001158       $pdata$??$copy_and_add_argument_to_buffer@D@@YAHQEBD0_KAEAV?$argument_list@D@?A0x5f5c8891@@@Z 0000000180031158     libucrt:argv_wildcards.obj
 0004:00001164       $pdata$??$expand_argument_wildcards@D@@YAHQEAD0AEAV?$argument_list@D@?A0x5f5c8891@@@Z 0000000180031164     libucrt:argv_wildcards.obj
 0004:00001170       $pdata$??$?RV<lambda_efdfa57d1f175319df784efa44bb7b81>@@AEAV<lambda_5f0a4c1567f8adc6734073e5d1e1b35c>@@V<lambda_2e8a7d3640ea6ccb4c2413664c2db6fd>@@@?$__crt_seh_guarded_call@X@@QEAAX$$QEAV<lambda_efdfa57d1f175319df784efa44bb7b81>@@AEAV<lambda_5f0a4c1567f8adc6734073e5d1e1b35c>@@$$QEAV<lambda_2e8a7d3640ea6ccb4c2413664c2db6fd>@@@Z 0000000180031170     libucrt:mbctype.obj
 0004:0000117c       $pdata$?getSystemCP@@YAHH@Z 000000018003117c     libucrt:mbctype.obj
 0004:00001188       $pdata$?setSBCS@@YAXPEAU__crt_multibyte_data@@@Z 0000000180031188     libucrt:mbctype.obj
 0004:00001194       $pdata$?setSBUpLow@@YAXPEAU__crt_multibyte_data@@@Z 0000000180031194     libucrt:mbctype.obj
 0004:000011a0       $pdata$?setmbcp_internal@@YAHH_NQEAU__acrt_ptd@@QEAPEAU__crt_multibyte_data@@@Z 00000001800311a0     libucrt:mbctype.obj
 0004:000011ac       $pdata$?update_thread_multibyte_data_internal@@YAPEAU__crt_multibyte_data@@QEAU__acrt_ptd@@QEAPEAU1@@Z 00000001800311ac     libucrt:mbctype.obj
 0004:000011b8       $pdata$__acrt_initialize_multibyte 00000001800311b8     libucrt:mbctype.obj
 0004:000011c4       $pdata$__acrt_update_thread_multibyte_data 00000001800311c4     libucrt:mbctype.obj
 0004:000011d0       $pdata$_setmbcp_nolock     00000001800311d0     libucrt:mbctype.obj
 0004:000011dc       $pdata$?x_ismbbtype_l@@YAHPEAU__crt_locale_pointers@@IHH@Z 00000001800311dc     libucrt:ismbbyte.obj
 0004:000011e8       $pdata$__acrt_initialize_command_line 00000001800311e8     libucrt:argv_data.obj
 0004:000011f4       $pdata$__acrt_WideCharToMultiByte 00000001800311f4     libucrt:widechartomultibyte.obj
 0004:00001200       $pdata$__dcrt_get_narrow_environment_from_os 0000000180031200     libucrt:get_environment_from_os.obj
 0004:0000120c       $pdata$_recalloc_base      000000018003120c     libucrt:recalloc.obj
 0004:00001218       $pdata$?try_get_function@@YAPEAXW4function_id@?A0x391cf84c@@QEBDQEBW4module_id@2@2@Z 0000000180031218     libucrt:winapi_thunks.obj
 0004:00001224       $pdata$__acrt_AppPolicyGetProcessTerminationMethodInternal 0000000180031224     libucrt:winapi_thunks.obj
 0004:00001230       $pdata$__acrt_AppPolicyGetShowDeveloperDiagnosticInternal 0000000180031230     libucrt:winapi_thunks.obj
 0004:0000123c       $pdata$__acrt_AppPolicyGetWindowingModelInternal 000000018003123c     libucrt:winapi_thunks.obj
 0004:00001248       $pdata$__acrt_FlsAlloc     0000000180031248     libucrt:winapi_thunks.obj
 0004:00001254       $pdata$__acrt_FlsFree      0000000180031254     libucrt:winapi_thunks.obj
 0004:00001260       $pdata$__acrt_FlsGetValue  0000000180031260     libucrt:winapi_thunks.obj
 0004:0000126c       $pdata$__acrt_FlsSetValue  000000018003126c     libucrt:winapi_thunks.obj
 0004:00001278       $pdata$__acrt_InitializeCriticalSectionEx 0000000180031278     libucrt:winapi_thunks.obj
 0004:00001284       $pdata$__acrt_LCMapStringEx 0000000180031284     libucrt:winapi_thunks.obj
 0004:00001290       $pdata$__acrt_LocaleNameToLCID 0000000180031290     libucrt:winapi_thunks.obj
 0004:0000129c       $pdata$__acrt_MessageBoxW  000000018003129c     libucrt:winapi_thunks.obj
 0004:000012a8       $pdata$__acrt_can_show_message_box 00000001800312a8     libucrt:winapi_thunks.obj
 0004:000012b4       $pdata$__acrt_get_parent_window 00000001800312b4     libucrt:winapi_thunks.obj
 0004:000012c0       $pdata$__acrt_initialize_winapi_thunks 00000001800312c0     libucrt:winapi_thunks.obj
 0004:000012cc       $pdata$__acrt_is_interactive 00000001800312cc     libucrt:winapi_thunks.obj
 0004:000012d8       $pdata$__acrt_uninitialize_winapi_thunks 00000001800312d8     libucrt:winapi_thunks.obj
 0004:000012e4       $pdata$__acrt_initialize_heap 00000001800312e4     libucrt:heap_handle.obj
 0004:000012f0       $pdata$__acrt_execute_initializers 00000001800312f0     libucrt:shared_initialization.obj
 0004:000012fc       $pdata$__acrt_execute_uninitializers 00000001800312fc     libucrt:shared_initialization.obj
 0004:00001308       $pdata$__pctype_func       0000000180031308     libucrt:ctype.obj
 0004:00001314       $pdata$iswctype            0000000180031314     libucrt:iswctype.obj
 0004:00001320       $pdata$_isctype_l          0000000180031320     libucrt:isctype.obj
 0004:0000132c       $pdata$?_mbstowcs_l_helper@@YA_KPEA_WPEBD_KPEAU__crt_locale_pointers@@@Z 000000018003132c     libucrt:mbstowcs.obj
 0004:00001338       $pdata$_fcloseall          0000000180031338     libucrt:closeall.obj
 0004:00001344       $pdata$__acrt_stdio_free_buffer_nolock 0000000180031344     libucrt:_freebuf.obj
 0004:00001350       $pdata$??$?RV<lambda_a37b2b86f63e897a80ea819b0eb08c01>@@AEAV<lambda_38ce7e780aa69e748d6df282ebc68efe>@@V<lambda_99fb1378e971ab6e7edea83e3a7a83a2>@@@?$__crt_seh_guarded_call@H@@QEAAH$$QEAV<lambda_a37b2b86f63e897a80ea819b0eb08c01>@@AEAV<lambda_38ce7e780aa69e748d6df282ebc68efe>@@$$QEAV<lambda_99fb1378e971ab6e7edea83e3a7a83a2>@@@Z 0000000180031350     libucrt:commit.obj
 0004:0000135c       $pdata$_commit             000000018003135c     libucrt:commit.obj
 0004:00001368       $pdata$?write_double_translated_ansi_nolock@@YA?AUwrite_result@?A0x17268360@@HQEBDI@Z 0000000180031368     libucrt:write.obj
 0004:00001374       $pdata$?write_text_ansi_nolock@@YA?AUwrite_result@?A0x17268360@@HQEBDI@Z 0000000180031374     libucrt:write.obj
 0004:00001380       $pdata$?write_text_utf16le_nolock@@YA?AUwrite_result@?A0x17268360@@HQEBDI@Z 0000000180031380     libucrt:write.obj
 0004:0000138c       $pdata$?write_text_utf8_nolock@@YA?AUwrite_result@?A0x17268360@@HQEBDI@Z 000000018003138c     libucrt:write.obj
 0004:00001398       $pdata$_write              0000000180031398     libucrt:write.obj
 0004:000013a4       $pdata$_write_nolock       00000001800313a4     libucrt:write.obj
 0004:000013b0       $pdata$__acrt_free_locale  00000001800313b0     libucrt:locale_refcounting.obj
 0004:000013bc       $pdata$__acrt_locale_free_lc_time_if_unreferenced 00000001800313bc     libucrt:locale_refcounting.obj
 0004:000013c8       $pdata$__acrt_release_locale_ref 00000001800313c8     libucrt:locale_refcounting.obj
 0004:000013d4       $pdata$__acrt_update_thread_locale_data 00000001800313d4     libucrt:locale_refcounting.obj
 0004:000013e0       $pdata$_updatetlocinfoEx_nolock 00000001800313e0     libucrt:locale_refcounting.obj
 0004:000013ec       $pdata$_isleadbyte_l       00000001800313ec     libucrt:_wctype.obj
 0004:000013f8       $pdata$?__acrt_LCMapStringA_stat@@YAHPEAU__crt_locale_pointers@@PEB_WKPEBDHPEADHHH@Z 00000001800313f8     libucrt:lcmapstringa.obj
 0004:00001404       $pdata$__acrt_LCMapStringA 0000000180031404     libucrt:lcmapstringa.obj
 0004:00001410       $pdata$?__mbrtowc_utf8@__crt_mbstring@@YA_KPEA_WPEBD_KPEAU_Mbstatet@@@Z 0000000180031410     libucrt:mbrtowc.obj
 0004:0000141c       $pdata$?__mbsrtowcs_utf8@__crt_mbstring@@YA_KPEA_WPEAPEBD_KPEAU_Mbstatet@@@Z 000000018003141c     libucrt:mbrtowc.obj
 0004:00001428       $pdata$__acrt_fp_strflt_to_string 0000000180031428     libucrt:_fptostr.obj
 0004:00001434       $pdata$?divide@__crt_strtox@@YA_KAEAUbig_integer@1@AEBU21@@Z 0000000180031434     libucrt:cfout.obj
 0004:00001440       $pdata$0$?divide@__crt_strtox@@YA_KAEAUbig_integer@1@AEBU21@@Z 0000000180031440     libucrt:cfout.obj
 0004:0000144c       $pdata$6$?divide@__crt_strtox@@YA_KAEAUbig_integer@1@AEBU21@@Z 000000018003144c     libucrt:cfout.obj
 0004:00001458       $pdata$7$?divide@__crt_strtox@@YA_KAEAUbig_integer@1@AEBU21@@Z 0000000180031458     libucrt:cfout.obj
 0004:00001464       $pdata$8$?divide@__crt_strtox@@YA_KAEAUbig_integer@1@AEBU21@@Z 0000000180031464     libucrt:cfout.obj
 0004:00001470       $pdata$__acrt_fltout       0000000180031470     libucrt:cfout.obj
 0004:0000147c       $pdata$memcpy_s            000000018003147c     libucrt:cfout.obj
 0004:00001488       $pdata$??$write_buffer_nolock@D@@YA_NDV__crt_stdio_stream@@@Z 0000000180031488     libucrt:_flsbuf.obj
 0004:00001494       $pdata$??$write_buffer_nolock@_W@@YA_N_WV__crt_stdio_stream@@@Z 0000000180031494     libucrt:_flsbuf.obj
 0004:000014a0       $pdata$__acrt_stdio_flush_and_write_narrow_nolock 00000001800314a0     libucrt:_flsbuf.obj
 0004:000014ac       $pdata$__acrt_stdio_flush_and_write_wide_nolock 00000001800314ac     libucrt:_flsbuf.obj
 0004:000014b8       $pdata$_isatty             00000001800314b8     libucrt:isatty.obj
 0004:000014c4       $pdata$__acrt_locale_free_monetary 00000001800314c4     libucrt:initmon.obj
 0004:000014d0       $pdata$__acrt_locale_free_numeric 00000001800314d0     libucrt:initnum.obj
 0004:000014dc       $pdata$?free_crt_array_internal@@YAXQEAPEBX_K@Z 00000001800314dc     libucrt:inittime.obj
 0004:000014e8       $pdata$__acrt_locale_free_time 00000001800314e8     libucrt:inittime.obj
 0004:000014f4       $pdata$__acrt_GetStringTypeA 00000001800314f4     libucrt:getstringtypea.obj
 0004:00001500       $pdata$__acrt_lowio_create_handle_array 0000000180031500     libucrt:osfinfo.obj
 0004:0000150c       $pdata$__acrt_lowio_destroy_handle_array 000000018003150c     libucrt:osfinfo.obj
 0004:00001518       $pdata$__acrt_lowio_ensure_fh_exists 0000000180031518     libucrt:osfinfo.obj
 0004:00001524       $pdata$_free_osfhnd        0000000180031524     libucrt:osfinfo.obj
 0004:00001530       $pdata$_get_osfhandle      0000000180031530     libucrt:osfinfo.obj
 0004:0000153c       $pdata$qsort               000000018003153c     libucrt:qsort.obj
 0004:00001548       $pdata$4$qsort             0000000180031548     libucrt:qsort.obj
 0004:00001554       $pdata$5$qsort             0000000180031554     libucrt:qsort.obj
 0004:00001560       $pdata$fallbackMethod      0000000180031560     libucrt:strpbrk.obj
 0004:0000156c       $pdata$strpbrk             000000018003156c     libucrt:strpbrk.obj
 0004:00001578       $pdata$??$__acrt_convert_wcs_mbs@D_W$$A6A_KPEA_WPEBD_KPEAU__crt_locale_pointers@@@ZU__crt_win32_buffer_internal_dynamic_resizing@@@@YAHQEBDAEAV?$__crt_win32_buffer@_WU__crt_win32_buffer_internal_dynamic_resizing@@@@A6A_KPEA_WPEBD_KPEAU__crt_locale_pointers@@@Z5@Z 0000000180031578     libucrt:findfirstfileexa.obj
 0004:00001584       $pdata$__acrt_FindFirstFileExA 0000000180031584     libucrt:findfirstfileexa.obj
 0004:00001590       $pdata$??$__acrt_convert_wcs_mbs@_WD$$A6A_KPEADPEB_W_KPEAU__crt_locale_pointers@@@ZU__crt_win32_buffer_no_resizing@@@@YAHQEB_WAEAV?$__crt_win32_buffer@DU__crt_win32_buffer_no_resizing@@@@A6A_KPEADPEB_W_KPEAU__crt_locale_pointers@@@Z5@Z 0000000180031590     libucrt:findnextfilea.obj
 0004:0000159c       $pdata$__acrt_FindNextFileA 000000018003159c     libucrt:findnextfilea.obj
 0004:000015a8       $pdata$_mbsdec_l           00000001800315a8     libucrt:mbsdec.obj
 0004:000015b4       $pdata$?initialize_multibyte@@YAHXZ 00000001800315b4     libucrt:multibyte_initializer.obj
 0004:000015c0       $pdata$_msize_base         00000001800315c0     libucrt:msize.obj
 0004:000015cc       $pdata$_realloc_base       00000001800315cc     libucrt:realloc_base.obj
 0004:000015d8       $pdata$?GetTableIndexFromLocaleName@@YAHPEB_W@Z 00000001800315d8     libucrt:lcidtoname_downlevel.obj
 0004:000015e4       $pdata$__acrt_DownlevelLocaleNameToLCID 00000001800315e4     libucrt:lcidtoname_downlevel.obj
 0004:000015f0       $pdata$_fclose_nolock      00000001800315f0     libucrt:fclose.obj
 0004:000015fc       $pdata$fclose              00000001800315fc     libucrt:fclose.obj
 0004:00001608       $pdata$??$common_lseek@_J@@YA_JH_JH@Z 0000000180031608     libucrt:lseek.obj
 0004:00001614       $pdata$??$common_lseek_nolock@_J@@YA_JH_JH@Z 0000000180031614     libucrt:lseek.obj
 0004:00001620       $pdata$_putwch_nolock      0000000180031620     libucrt:putwch.obj
 0004:0000162c       $pdata$?__mbrtoc32_utf8@__crt_mbstring@@YA_KPEA_UPEBD_KPEAU_Mbstatet@@@Z 000000018003162c     libucrt:mbrtoc32.obj
 0004:00001638       $pdata$fegetenv            0000000180031638     libucrt:fegetenv.obj
 0004:00001644       $pdata$fesetenv            0000000180031644     libucrt:fesetenv.obj
 0004:00001650       $pdata$feholdexcept        0000000180031650     libucrt:feholdexcept.obj
 0004:00001668       $pdata$__acrt_stdio_allocate_buffer_nolock 0000000180031668     libucrt:_getbuf.obj
 0004:00001674       $pdata$?_wcstombs_l_helper@@YA_KPEADPEB_W_KPEAU__crt_locale_pointers@@@Z 0000000180031674     libucrt:wcstombs.obj
 0004:00001680       $pdata$??$?RV<lambda_751a882b2c74d4b022dec766aa51a29a>@@AEAV<lambda_628dfdc04ba53c8bfc02c9951375f3f5>@@V<lambda_f6c7be5f7998530c34de24c7437d6b54>@@@?$__crt_seh_guarded_call@H@@QEAAH$$QEAV<lambda_751a882b2c74d4b022dec766aa51a29a>@@AEAV<lambda_628dfdc04ba53c8bfc02c9951375f3f5>@@$$QEAV<lambda_f6c7be5f7998530c34de24c7437d6b54>@@@Z 0000000180031680     libucrt:close.obj
 0004:0000168c       $pdata$_close              000000018003168c     libucrt:close.obj
 0004:00001698       $pdata$_close_nolock       0000000180031698     libucrt:close.obj
 0004:000016a4       $pdata$__dcrt_lowio_ensure_console_output_initialized 00000001800316a4     libucrt:initcon.obj
 0004:000016b0       $pdata$__dcrt_terminate_console_output 00000001800316b0     libucrt:initcon.obj
 0004:000016bc       $pdata$__dcrt_write_console 00000001800316bc     libucrt:initcon.obj
 0004:000016c8       $pdata$__acrt_fenv_set_control 00000001800316c8     libucrt:_fenvutils.obj
 0004:000016d4       $pdata$_clearfp            00000001800316d4     libucrt:ieee.obj
 0004:000016e0       $pdata$_call_matherr       00000001800316e0     libucrt:libm_error.obj
 0004:000016ec       $pdata$_exception_enabled  00000001800316ec     libucrt:libm_error.obj
 0004:000016f8       $pdata$_handle_error       00000001800316f8     libucrt:libm_error.obj
 0004:00001704       $pdata$__acrt_initialize_fma3 0000000180031704     libucrt:fma3_available.obj
 0004:00001710       $pdata$_log10_special      0000000180031710     libucrt:log_special.obj
 0004:0000171c       $pdata$_log_special_common 000000018003171c     libucrt:log_special.obj
 0004:00001728       $pdata$?__wcsrtombs_utf8@__crt_mbstring@@YA_KPEADPEAPEB_W_KPEAU_Mbstatet@@@Z 0000000180031728     libucrt:wcrtomb.obj
 0004:00001740       $pdata$_raise_exc          0000000180031740     libucrt:fpexcept.obj
 0004:0000174c       $pdata$_raise_exc_ex       000000018003174c     libucrt:fpexcept.obj
 0004:00001758       $pdata$_set_errno_from_matherr 0000000180031758     libucrt:fpexcept.obj
 0004:00001764       $pdata$_clrfp              0000000180031764     libucrt:fpctrl.obj
 0004:00001770       $pdata$_ctrlfp             0000000180031770     libucrt:fpctrl.obj
 0004:0000177c       $pdata$_set_statfp         000000018003177c     libucrt:fpctrl.obj
 0004:00001788       $pdata$_statfp             0000000180031788     libucrt:fpctrl.obj
 0004:00001794       $pdata$?__c16rtomb_utf8@__crt_mbstring@@YA_KPEAD_SPEAU_Mbstatet@@@Z 0000000180031794     libucrt:c16rtomb.obj
 0004:000017a0       $pdata$?__c32rtomb_utf8@__crt_mbstring@@YA_KPEAD_UPEAU_Mbstatet@@@Z 00000001800317a0     libucrt:c32rtomb.obj
 0004:000017ac       $pdata$?DloadAcquireSectionWriteAccess@@YAXXZ 00000001800317ac     DelayImp:delayhlp.obj
 0004:000017b8       $pdata$?DloadGetSRWLockFunctionPointers@@YAEXZ 00000001800317b8     DelayImp:delayhlp.obj
 0004:000017c4       $pdata$?DloadMakePermanentImageCommit@@YAXPEAX_K@Z 00000001800317c4     DelayImp:delayhlp.obj
 0004:000017d0       $pdata$?DloadObtainSection@@YAPEAXPEAK0@Z 00000001800317d0     DelayImp:delayhlp.obj
 0004:000017dc       $pdata$?DloadProtectSection@@YAXKPEAK@Z 00000001800317dc     DelayImp:delayhlp.obj
 0004:000017e8       $pdata$?DloadReleaseSectionWriteAccess@@YAXXZ 00000001800317e8     DelayImp:delayhlp.obj
 0004:000017f4       $pdata$__delayLoadHelper2  00000001800317f4     DelayImp:delayhlp.obj
 0004:00001800       $pdata$__GSHandlerCheck    0000000180031800     LIBCMT:_gshandler_.obj
 0004:0000180c       $pdata$__GSHandlerCheckCommon 000000018003180c     LIBCMT:_gshandler_.obj
 0004:00001818       $pdata$_IsNonwritableInCurrentImage 0000000180031818     LIBCMT:pesect.obj
 0004:00001830       $pdata$__GSHandlerCheck_EH 0000000180031830     LIBCMT:gshandlereh.obj
 0004:0000183c       $pdata$strrchr             000000018003183c     libvcruntime:strrchr.obj
 0004:00001860       $pdata$?dtor$1@?0??Open@@YAXAEBV?$FunctionCallbackInfo@VValue@v8@@@Nan@@@Z@4HA 0000000180031860     serialport.obj
 0004:0000186c       $pdata$?dtor$0@?0??Update@@YAXAEBV?$FunctionCallbackInfo@VValue@v8@@@Nan@@@Z@4HA 000000018003186c     serialport.obj
 0004:00001878       $pdata$?dtor$0@?0??Close@@YAXAEBV?$FunctionCallbackInfo@VValue@v8@@@Nan@@@Z@4HA 0000000180031878     serialport.obj
 0004:00001884       $pdata$?dtor$0@?0??Drain@@YAXAEBV?$FunctionCallbackInfo@VValue@v8@@@Nan@@@Z@4HA 0000000180031884     serialport.obj
 0004:00001884       $pdata$?dtor$0@?0??Flush@@YAXAEBV?$FunctionCallbackInfo@VValue@v8@@@Nan@@@Z@4HA 0000000180031884     serialport.obj
 0004:00001890       $pdata$?dtor$0@?0??Set@@YAXAEBV?$FunctionCallbackInfo@VValue@v8@@@Nan@@@Z@4HA 0000000180031890     serialport.obj
 0004:0000189c       $pdata$?dtor$0@?0??Get@@YAXAEBV?$FunctionCallbackInfo@VValue@v8@@@Nan@@@Z@4HA 000000018003189c     serialport.obj
 0004:000018a8       $pdata$?dtor$0@?0??Write@@YAXAEBV?$FunctionCallbackInfo@VValue@v8@@@Nan@@@Z@4HA 00000001800318a8     serialport_win.obj
 0004:000018b4       $pdata$?dtor$0@?0??Read@@YAXAEBV?$FunctionCallbackInfo@VValue@v8@@@Nan@@@Z@4HA 00000001800318b4     serialport_win.obj
 0004:000018c0       $pdata$?dtor$0@?0??List@@YAXAEBV?$FunctionCallbackInfo@VValue@v8@@@Nan@@@Z@4HA 00000001800318c0     serialport_win.obj
 0004:000018cc       $pdata$__scrt_is_nonwritable_in_current_image$filt$0 00000001800318cc     LIBCMT:utility.obj
 0004:000018d8       $pdata$?fin$0@?0??dllmain_crt_process_attach@@YAHQEAUHINSTANCE__@@QEAX@Z@4HA 00000001800318d8     LIBCMT:dll_dllmain.obj
 0004:000018e4       $pdata$?fin$0@?0??dllmain_crt_process_detach@@YAH_N@Z@4HA 00000001800318e4     LIBCMT:dll_dllmain.obj
 0004:000018f0       $pdata$?filt$0@?0??dllmain_dispatch@@YAHQEAUHINSTANCE__@@KQEAX@Z@4HA 00000001800318f0     LIBCMT:dll_dllmain.obj
 0004:000018fc       $pdata$?filt$0@?0???$_CallSETranslator@V__FrameHandler3@@@@YAHPEAUEHExceptionRecord@@PEA_KPEAU_CONTEXT@@PEAU_xDISPATCHER_CONTEXT@@PEBU_s_FuncInfo@@K1@Z@4HA 00000001800318fc     libvcruntime:risctrnsctrl.obj
 0004:00001908       $pdata$?filt$0@?0??CxxCallCatchBlock@__FrameHandler3@@SAPEAXPEAU_EXCEPTION_RECORD@@@Z@4HA 0000000180031908     libvcruntime:frame.obj
 0004:00001914       $pdata$?fin$1@?0??CxxCallCatchBlock@__FrameHandler3@@SAPEAXPEAU_EXCEPTION_RECORD@@@Z@4HA 0000000180031914     libvcruntime:frame.obj
 0004:00001920       $pdata$?filt$0@?0??FrameUnwindToState@__FrameHandler3@@SAXPEA_KPEAU_xDISPATCHER_CONTEXT@@PEBU_s_FuncInfo@@H@Z@4HA 0000000180031920     libvcruntime:frame.obj
 0004:0000192c       $pdata$?fin$1@?0??FrameUnwindToState@__FrameHandler3@@SAXPEA_KPEAU_xDISPATCHER_CONTEXT@@PEBU_s_FuncInfo@@H@Z@4HA 000000018003192c     libvcruntime:frame.obj
 0004:00001938       $pdata$__DestructExceptionObject$filt$0 0000000180031938     libvcruntime:ehhelpers.obj
 0004:00001944       $pdata$?fin$0@?0???$?RV<lambda_84ec643ea9557e2f7dc01bb0e9624395>@@AEAV<lambda_ca71763b3c0644891230e4f79ea54fa6>@@V<lambda_439a761618c59b0600e24586724d733b>@@@?$__crt_seh_guarded_call@H@@QEAAH$$QEAV<lambda_84ec643ea9557e2f7dc01bb0e9624395>@@AEAV<lambda_ca71763b3c0644891230e4f79ea54fa6>@@$$QEAV<lambda_439a761618c59b0600e24586724d733b>@@@Z@4HA 0000000180031944     libucrt:setvbuf.obj
 0004:00001944       $pdata$?fin$0@?0???$?RV<lambda_842d9ff0dc9ef11c61343bbaebe7f885>@@AEAV<lambda_c5860995281e5c4ce005b3de8f5874ee>@@V<lambda_d90129c13df834fdcbf8d2b88dafcf2d>@@@?$__crt_seh_guarded_call@X@@QEAAX$$QEAV<lambda_842d9ff0dc9ef11c61343bbaebe7f885>@@AEAV<lambda_c5860995281e5c4ce005b3de8f5874ee>@@$$QEAV<lambda_d90129c13df834fdcbf8d2b88dafcf2d>@@@Z@4HA 0000000180031944     libucrt:fflush.obj
 0004:00001944       $pdata$?fin$0@?0???$?RV<lambda_0d412022a4b28cc8a401ea49574e8ae6>@@AEAV<lambda_a775ed57af18ba8e4d5dc780aa9068fe>@@V<lambda_975a71a6baa488a08f4e15f6b0339b9e>@@@?$__crt_seh_guarded_call@H@@QEAAH$$QEAV<lambda_0d412022a4b28cc8a401ea49574e8ae6>@@AEAV<lambda_a775ed57af18ba8e4d5dc780aa9068fe>@@$$QEAV<lambda_975a71a6baa488a08f4e15f6b0339b9e>@@@Z@4HA 0000000180031944     libucrt:output.obj
 0004:00001944       $pdata$?fin$0@?0???$?RV<lambda_c376a267cfb53b6959b3b692ec76b120>@@AEAV<lambda_9a32fed5bf61b6b509b2d3f6003082a1>@@V<lambda_572fbb9fa0ab338edf41edfd4b5fcc8d>@@@?$__crt_seh_guarded_call@H@@QEAAH$$QEAV<lambda_c376a267cfb53b6959b3b692ec76b120>@@AEAV<lambda_9a32fed5bf61b6b509b2d3f6003082a1>@@$$QEAV<lambda_572fbb9fa0ab338edf41edfd4b5fcc8d>@@@Z@4HA 0000000180031944     libucrt:fflush.obj
 0004:00001950       $pdata$_query_new_handler$fin$0 0000000180031950     libucrt:new_handler.obj
 0004:0000195c       $pdata$?fin$0@?0???$?RV<lambda_f2e299630e499de9f9a165e60fcd3db5>@@AEAV<lambda_2ae9d31cdba2644fcbeaf08da7c24588>@@V<lambda_40d01ff24d0e7b3814fdbdcee8eab3c7>@@@?$__crt_seh_guarded_call@X@@QEAAX$$QEAV<lambda_f2e299630e499de9f9a165e60fcd3db5>@@AEAV<lambda_2ae9d31cdba2644fcbeaf08da7c24588>@@$$QEAV<lambda_40d01ff24d0e7b3814fdbdcee8eab3c7>@@@Z@4HA 000000018003195c     libucrt:per_thread_data.obj
 0004:0000195c       $pdata$?fin$0@?0???$?RV<lambda_aa87e3671a710a21b5dc78c0bdf72e11>@@AEAV<lambda_92619d2358a28f41a33ba319515a20b9>@@V<lambda_6992ecaafeb10aed2b74cb1fae11a551>@@@?$__crt_seh_guarded_call@X@@QEAAX$$QEAV<lambda_aa87e3671a710a21b5dc78c0bdf72e11>@@AEAV<lambda_92619d2358a28f41a33ba319515a20b9>@@$$QEAV<lambda_6992ecaafeb10aed2b74cb1fae11a551>@@@Z@4HA 000000018003195c     libucrt:per_thread_data.obj
 0004:0000195c       $pdata$?fin$0@?0???$?RV<lambda_2d41944a1d46af3157314b8a01080d33>@@AEAV<lambda_8f455de75cd7d7f24b4096f044d8b9e6>@@V<lambda_aa500f224e6afead328df44964fe2772>@@@?$__crt_seh_guarded_call@X@@QEAAX$$QEAV<lambda_2d41944a1d46af3157314b8a01080d33>@@AEAV<lambda_8f455de75cd7d7f24b4096f044d8b9e6>@@$$QEAV<lambda_aa500f224e6afead328df44964fe2772>@@@Z@4HA 000000018003195c     libucrt:per_thread_data.obj
 0004:0000195c       $pdata$?fin$0@?0???$?RV<lambda_efdfa57d1f175319df784efa44bb7b81>@@AEAV<lambda_5f0a4c1567f8adc6734073e5d1e1b35c>@@V<lambda_2e8a7d3640ea6ccb4c2413664c2db6fd>@@@?$__crt_seh_guarded_call@X@@QEAAX$$QEAV<lambda_efdfa57d1f175319df784efa44bb7b81>@@AEAV<lambda_5f0a4c1567f8adc6734073e5d1e1b35c>@@$$QEAV<lambda_2e8a7d3640ea6ccb4c2413664c2db6fd>@@@Z@4HA 000000018003195c     libucrt:mbctype.obj
 0004:0000195c       $pdata$?fin$0@?0???$?RV<lambda_450d765d439847d4c735a33c368b5fc0>@@AEAV<lambda_44731a7d0e6d81c3e6aa82d741081786>@@V<lambda_601a2a7da3b7a96e9554ac7215c4b07c>@@@?$__crt_seh_guarded_call@P6AXH@Z@@QEAAP6AXH@Z$$QEAV<lambda_450d765d439847d4c735a33c368b5fc0>@@AEAV<lambda_44731a7d0e6d81c3e6aa82d741081786>@@$$QEAV<lambda_601a2a7da3b7a96e9554ac7215c4b07c>@@@Z@4HA 000000018003195c     libucrt:signal.obj
 0004:0000195c       $pdata$?fin$0@?0???$?RV<lambda_d80eeec6fff315bfe5c115232f3240e3>@@AEAV<lambda_6e4b09c48022b2350581041d5f6b0c4c>@@V<lambda_2358e3775559c9db80273638284d5e45>@@@?$__crt_seh_guarded_call@X@@QEAAX$$QEAV<lambda_d80eeec6fff315bfe5c115232f3240e3>@@AEAV<lambda_6e4b09c48022b2350581041d5f6b0c4c>@@$$QEAV<lambda_2358e3775559c9db80273638284d5e45>@@@Z@4HA 000000018003195c     libucrt:exit.obj
 0004:0000195c       $pdata$?fin$0@?0???$?RV<lambda_8369fcb7c4df1e85de37618bd2b85f07>@@AEAV<lambda_a10e4b102d4a2c3aac6f4f48bbdf488f>@@V<lambda_5b7707bd6d7a0c4713179f36c7fd995d>@@@?$__crt_seh_guarded_call@H@@QEAAH$$QEAV<lambda_8369fcb7c4df1e85de37618bd2b85f07>@@AEAV<lambda_a10e4b102d4a2c3aac6f4f48bbdf488f>@@$$QEAV<lambda_5b7707bd6d7a0c4713179f36c7fd995d>@@@Z@4HA 000000018003195c     libucrt:onexit.obj
 0004:0000195c       $pdata$?fin$0@?0???$?RV<lambda_7777bce6b2f8c936911f934f8298dc43>@@AEAV<lambda_f03950bc5685219e0bcd2087efbe011e>@@V<lambda_3883c3dff614d5e0c5f61bb1ac94921c>@@@?$__crt_seh_guarded_call@H@@QEAAH$$QEAV<lambda_7777bce6b2f8c936911f934f8298dc43>@@AEAV<lambda_f03950bc5685219e0bcd2087efbe011e>@@$$QEAV<lambda_3883c3dff614d5e0c5f61bb1ac94921c>@@@Z@4HA 000000018003195c     libucrt:onexit.obj
 0004:0000195c       $pdata$?fin$0@?0???$?RV<lambda_0ae27a3a962d80f24befdcbee591983d>@@AEAV<lambda_8d0ee55de4b1038c4002e0adecdf1839>@@V<lambda_dc504788e8f1664fe9b84e20bfb512f2>@@@?$__crt_seh_guarded_call@X@@QEAAX$$QEAV<lambda_0ae27a3a962d80f24befdcbee591983d>@@AEAV<lambda_8d0ee55de4b1038c4002e0adecdf1839>@@$$QEAV<lambda_dc504788e8f1664fe9b84e20bfb512f2>@@@Z@4HA 000000018003195c     libucrt:per_thread_data.obj
 0004:00001968       $pdata$?filt$0@?0???R<lambda_6e4b09c48022b2350581041d5f6b0c4c>@@QEBA@XZ@4HA 0000000180031968     libucrt:exit.obj
 0004:00001974       $pdata$?fin$0@?0???$?RV<lambda_886d6c58226a84441f68b9f2b8217b83>@@AEAV<lambda_ab61a845afdef5b7c387490eaf3616ee>@@V<lambda_f7f22ab5edc0698d5f6905b0d3f44752>@@@?$__crt_seh_guarded_call@X@@QEAAX$$QEAV<lambda_886d6c58226a84441f68b9f2b8217b83>@@AEAV<lambda_ab61a845afdef5b7c387490eaf3616ee>@@$$QEAV<lambda_f7f22ab5edc0698d5f6905b0d3f44752>@@@Z@4HA 0000000180031974     libucrt:fflush.obj
 0004:00001980       $pdata$raise$fin$0         0000000180031980     libucrt:signal.obj
 0004:0000198c       $pdata$?fin$0@?0???$?RV<lambda_410d79af7f07d98d83a3f525b3859a53>@@AEAV<lambda_3e16ef9562a7dcce91392c22ab16ea36>@@V<lambda_38119f0e861e05405d8a144b9b982f0a>@@@?$__crt_seh_guarded_call@X@@QEAAX$$QEAV<lambda_410d79af7f07d98d83a3f525b3859a53>@@AEAV<lambda_3e16ef9562a7dcce91392c22ab16ea36>@@$$QEAV<lambda_38119f0e861e05405d8a144b9b982f0a>@@@Z@4HA 000000018003198c     libucrt:wsetlocale.obj
 0004:00001998       $pdata$__acrt_lowio_ensure_fh_exists$fin$0 0000000180031998     libucrt:osfinfo.obj
 0004:00001998       $pdata$__acrt_initialize_lowio$fin$0 0000000180031998     libucrt:ioinit.obj
 0004:000019a4       $pdata$?fin$0@?0??update_thread_multibyte_data_internal@@YAPEAU__crt_multibyte_data@@QEAU__acrt_ptd@@QEAPEAU1@@Z@4HA 00000001800319a4     libucrt:mbctype.obj
 0004:000019b0       $pdata$_fcloseall$fin$0    00000001800319b0     libucrt:closeall.obj
 0004:000019bc       $pdata$?fin$0@?0???$?RV<lambda_a37b2b86f63e897a80ea819b0eb08c01>@@AEAV<lambda_38ce7e780aa69e748d6df282ebc68efe>@@V<lambda_99fb1378e971ab6e7edea83e3a7a83a2>@@@?$__crt_seh_guarded_call@H@@QEAAH$$QEAV<lambda_a37b2b86f63e897a80ea819b0eb08c01>@@AEAV<lambda_38ce7e780aa69e748d6df282ebc68efe>@@$$QEAV<lambda_99fb1378e971ab6e7edea83e3a7a83a2>@@@Z@4HA 00000001800319bc     libucrt:commit.obj
 0004:000019bc       $pdata$?fin$0@?0???$?RV<lambda_751a882b2c74d4b022dec766aa51a29a>@@AEAV<lambda_628dfdc04ba53c8bfc02c9951375f3f5>@@V<lambda_f6c7be5f7998530c34de24c7437d6b54>@@@?$__crt_seh_guarded_call@H@@QEAAH$$QEAV<lambda_751a882b2c74d4b022dec766aa51a29a>@@AEAV<lambda_628dfdc04ba53c8bfc02c9951375f3f5>@@$$QEAV<lambda_f6c7be5f7998530c34de24c7437d6b54>@@@Z@4HA 00000001800319bc     libucrt:close.obj
 0004:000019c8       $pdata$_write$fin$0        00000001800319c8     libucrt:write.obj
 0004:000019c8       $pdata$?fin$0@?0???$common_lseek@_J@@YA_JH_JH@Z@4HA 00000001800319c8     libucrt:lseek.obj
 0004:000019d4       $pdata$__acrt_update_thread_locale_data$fin$0 00000001800319d4     libucrt:locale_refcounting.obj
 0004:000019e0       $pdata$fclose$fin$0        00000001800319e0     libucrt:fclose.obj
 0004:000019ec       $pdata$_ctrlfp$filt$0      00000001800319ec     libucrt:fpctrl.obj
 0004:000019f8       $pdata$_IsNonwritableInCurrentImage$filt$0 00000001800319f8     LIBCMT:pesect.obj
 0004:00001a04       $pdata$??__Fg_closingHandles@@YAXXZ 0000000180031a04     serialport_win.obj
 0005:00000060       $R000000                   0000000180032060     * linker generated manifest res *

 Exports

  ordinal    name

        1    _register_serialport_
